
/home/spy/dev/AoC/funnybug.so:     file format elf64-x86-64


Disassembly of section .init:

0000000000003000 <_init>:
    3000:	f3 0f 1e fa          	endbr64 
    3004:	48 83 ec 08          	sub    $0x8,%rsp
    3008:	48 8b 05 59 bf 00 00 	mov    0xbf59(%rip),%rax        # ef68 <__gmon_start__@Base>
    300f:	48 85 c0             	test   %rax,%rax
    3012:	74 02                	je     3016 <_init+0x16>
    3014:	ff d0                	call   *%rax
    3016:	48 83 c4 08          	add    $0x8,%rsp
    301a:	c3                   	ret    

Disassembly of section .plt:

0000000000003020 <.plt>:
    3020:	ff 35 e2 bf 00 00    	push   0xbfe2(%rip)        # f008 <_GLOBAL_OFFSET_TABLE_+0x8>
    3026:	f2 ff 25 e3 bf 00 00 	bnd jmp *0xbfe3(%rip)        # f010 <_GLOBAL_OFFSET_TABLE_+0x10>
    302d:	0f 1f 00             	nopl   (%rax)
    3030:	f3 0f 1e fa          	endbr64 
    3034:	68 00 00 00 00       	push   $0x0
    3039:	f2 e9 e1 ff ff ff    	bnd jmp 3020 <_init+0x20>
    303f:	90                   	nop
    3040:	f3 0f 1e fa          	endbr64 
    3044:	68 01 00 00 00       	push   $0x1
    3049:	f2 e9 d1 ff ff ff    	bnd jmp 3020 <_init+0x20>
    304f:	90                   	nop
    3050:	f3 0f 1e fa          	endbr64 
    3054:	68 02 00 00 00       	push   $0x2
    3059:	f2 e9 c1 ff ff ff    	bnd jmp 3020 <_init+0x20>
    305f:	90                   	nop
    3060:	f3 0f 1e fa          	endbr64 
    3064:	68 03 00 00 00       	push   $0x3
    3069:	f2 e9 b1 ff ff ff    	bnd jmp 3020 <_init+0x20>
    306f:	90                   	nop
    3070:	f3 0f 1e fa          	endbr64 
    3074:	68 04 00 00 00       	push   $0x4
    3079:	f2 e9 a1 ff ff ff    	bnd jmp 3020 <_init+0x20>
    307f:	90                   	nop
    3080:	f3 0f 1e fa          	endbr64 
    3084:	68 05 00 00 00       	push   $0x5
    3089:	f2 e9 91 ff ff ff    	bnd jmp 3020 <_init+0x20>
    308f:	90                   	nop
    3090:	f3 0f 1e fa          	endbr64 
    3094:	68 06 00 00 00       	push   $0x6
    3099:	f2 e9 81 ff ff ff    	bnd jmp 3020 <_init+0x20>
    309f:	90                   	nop
    30a0:	f3 0f 1e fa          	endbr64 
    30a4:	68 07 00 00 00       	push   $0x7
    30a9:	f2 e9 71 ff ff ff    	bnd jmp 3020 <_init+0x20>
    30af:	90                   	nop
    30b0:	f3 0f 1e fa          	endbr64 
    30b4:	68 08 00 00 00       	push   $0x8
    30b9:	f2 e9 61 ff ff ff    	bnd jmp 3020 <_init+0x20>
    30bf:	90                   	nop
    30c0:	f3 0f 1e fa          	endbr64 
    30c4:	68 09 00 00 00       	push   $0x9
    30c9:	f2 e9 51 ff ff ff    	bnd jmp 3020 <_init+0x20>
    30cf:	90                   	nop
    30d0:	f3 0f 1e fa          	endbr64 
    30d4:	68 0a 00 00 00       	push   $0xa
    30d9:	f2 e9 41 ff ff ff    	bnd jmp 3020 <_init+0x20>
    30df:	90                   	nop
    30e0:	f3 0f 1e fa          	endbr64 
    30e4:	68 0b 00 00 00       	push   $0xb
    30e9:	f2 e9 31 ff ff ff    	bnd jmp 3020 <_init+0x20>
    30ef:	90                   	nop
    30f0:	f3 0f 1e fa          	endbr64 
    30f4:	68 0c 00 00 00       	push   $0xc
    30f9:	f2 e9 21 ff ff ff    	bnd jmp 3020 <_init+0x20>
    30ff:	90                   	nop
    3100:	f3 0f 1e fa          	endbr64 
    3104:	68 0d 00 00 00       	push   $0xd
    3109:	f2 e9 11 ff ff ff    	bnd jmp 3020 <_init+0x20>
    310f:	90                   	nop
    3110:	f3 0f 1e fa          	endbr64 
    3114:	68 0e 00 00 00       	push   $0xe
    3119:	f2 e9 01 ff ff ff    	bnd jmp 3020 <_init+0x20>
    311f:	90                   	nop
    3120:	f3 0f 1e fa          	endbr64 
    3124:	68 0f 00 00 00       	push   $0xf
    3129:	f2 e9 f1 fe ff ff    	bnd jmp 3020 <_init+0x20>
    312f:	90                   	nop
    3130:	f3 0f 1e fa          	endbr64 
    3134:	68 10 00 00 00       	push   $0x10
    3139:	f2 e9 e1 fe ff ff    	bnd jmp 3020 <_init+0x20>
    313f:	90                   	nop
    3140:	f3 0f 1e fa          	endbr64 
    3144:	68 11 00 00 00       	push   $0x11
    3149:	f2 e9 d1 fe ff ff    	bnd jmp 3020 <_init+0x20>
    314f:	90                   	nop
    3150:	f3 0f 1e fa          	endbr64 
    3154:	68 12 00 00 00       	push   $0x12
    3159:	f2 e9 c1 fe ff ff    	bnd jmp 3020 <_init+0x20>
    315f:	90                   	nop
    3160:	f3 0f 1e fa          	endbr64 
    3164:	68 13 00 00 00       	push   $0x13
    3169:	f2 e9 b1 fe ff ff    	bnd jmp 3020 <_init+0x20>
    316f:	90                   	nop
    3170:	f3 0f 1e fa          	endbr64 
    3174:	68 14 00 00 00       	push   $0x14
    3179:	f2 e9 a1 fe ff ff    	bnd jmp 3020 <_init+0x20>
    317f:	90                   	nop
    3180:	f3 0f 1e fa          	endbr64 
    3184:	68 15 00 00 00       	push   $0x15
    3189:	f2 e9 91 fe ff ff    	bnd jmp 3020 <_init+0x20>
    318f:	90                   	nop
    3190:	f3 0f 1e fa          	endbr64 
    3194:	68 16 00 00 00       	push   $0x16
    3199:	f2 e9 81 fe ff ff    	bnd jmp 3020 <_init+0x20>
    319f:	90                   	nop
    31a0:	f3 0f 1e fa          	endbr64 
    31a4:	68 17 00 00 00       	push   $0x17
    31a9:	f2 e9 71 fe ff ff    	bnd jmp 3020 <_init+0x20>
    31af:	90                   	nop
    31b0:	f3 0f 1e fa          	endbr64 
    31b4:	68 18 00 00 00       	push   $0x18
    31b9:	f2 e9 61 fe ff ff    	bnd jmp 3020 <_init+0x20>
    31bf:	90                   	nop
    31c0:	f3 0f 1e fa          	endbr64 
    31c4:	68 19 00 00 00       	push   $0x19
    31c9:	f2 e9 51 fe ff ff    	bnd jmp 3020 <_init+0x20>
    31cf:	90                   	nop
    31d0:	f3 0f 1e fa          	endbr64 
    31d4:	68 1a 00 00 00       	push   $0x1a
    31d9:	f2 e9 41 fe ff ff    	bnd jmp 3020 <_init+0x20>
    31df:	90                   	nop
    31e0:	f3 0f 1e fa          	endbr64 
    31e4:	68 1b 00 00 00       	push   $0x1b
    31e9:	f2 e9 31 fe ff ff    	bnd jmp 3020 <_init+0x20>
    31ef:	90                   	nop
    31f0:	f3 0f 1e fa          	endbr64 
    31f4:	68 1c 00 00 00       	push   $0x1c
    31f9:	f2 e9 21 fe ff ff    	bnd jmp 3020 <_init+0x20>
    31ff:	90                   	nop
    3200:	f3 0f 1e fa          	endbr64 
    3204:	68 1d 00 00 00       	push   $0x1d
    3209:	f2 e9 11 fe ff ff    	bnd jmp 3020 <_init+0x20>
    320f:	90                   	nop
    3210:	f3 0f 1e fa          	endbr64 
    3214:	68 1e 00 00 00       	push   $0x1e
    3219:	f2 e9 01 fe ff ff    	bnd jmp 3020 <_init+0x20>
    321f:	90                   	nop
    3220:	f3 0f 1e fa          	endbr64 
    3224:	68 1f 00 00 00       	push   $0x1f
    3229:	f2 e9 f1 fd ff ff    	bnd jmp 3020 <_init+0x20>
    322f:	90                   	nop
    3230:	f3 0f 1e fa          	endbr64 
    3234:	68 20 00 00 00       	push   $0x20
    3239:	f2 e9 e1 fd ff ff    	bnd jmp 3020 <_init+0x20>
    323f:	90                   	nop
    3240:	f3 0f 1e fa          	endbr64 
    3244:	68 21 00 00 00       	push   $0x21
    3249:	f2 e9 d1 fd ff ff    	bnd jmp 3020 <_init+0x20>
    324f:	90                   	nop
    3250:	f3 0f 1e fa          	endbr64 
    3254:	68 22 00 00 00       	push   $0x22
    3259:	f2 e9 c1 fd ff ff    	bnd jmp 3020 <_init+0x20>
    325f:	90                   	nop
    3260:	f3 0f 1e fa          	endbr64 
    3264:	68 23 00 00 00       	push   $0x23
    3269:	f2 e9 b1 fd ff ff    	bnd jmp 3020 <_init+0x20>
    326f:	90                   	nop
    3270:	f3 0f 1e fa          	endbr64 
    3274:	68 24 00 00 00       	push   $0x24
    3279:	f2 e9 a1 fd ff ff    	bnd jmp 3020 <_init+0x20>
    327f:	90                   	nop
    3280:	f3 0f 1e fa          	endbr64 
    3284:	68 25 00 00 00       	push   $0x25
    3289:	f2 e9 91 fd ff ff    	bnd jmp 3020 <_init+0x20>
    328f:	90                   	nop
    3290:	f3 0f 1e fa          	endbr64 
    3294:	68 26 00 00 00       	push   $0x26
    3299:	f2 e9 81 fd ff ff    	bnd jmp 3020 <_init+0x20>
    329f:	90                   	nop
    32a0:	f3 0f 1e fa          	endbr64 
    32a4:	68 27 00 00 00       	push   $0x27
    32a9:	f2 e9 71 fd ff ff    	bnd jmp 3020 <_init+0x20>
    32af:	90                   	nop
    32b0:	f3 0f 1e fa          	endbr64 
    32b4:	68 28 00 00 00       	push   $0x28
    32b9:	f2 e9 61 fd ff ff    	bnd jmp 3020 <_init+0x20>
    32bf:	90                   	nop
    32c0:	f3 0f 1e fa          	endbr64 
    32c4:	68 29 00 00 00       	push   $0x29
    32c9:	f2 e9 51 fd ff ff    	bnd jmp 3020 <_init+0x20>
    32cf:	90                   	nop
    32d0:	f3 0f 1e fa          	endbr64 
    32d4:	68 2a 00 00 00       	push   $0x2a
    32d9:	f2 e9 41 fd ff ff    	bnd jmp 3020 <_init+0x20>
    32df:	90                   	nop
    32e0:	f3 0f 1e fa          	endbr64 
    32e4:	68 2b 00 00 00       	push   $0x2b
    32e9:	f2 e9 31 fd ff ff    	bnd jmp 3020 <_init+0x20>
    32ef:	90                   	nop
    32f0:	f3 0f 1e fa          	endbr64 
    32f4:	68 2c 00 00 00       	push   $0x2c
    32f9:	f2 e9 21 fd ff ff    	bnd jmp 3020 <_init+0x20>
    32ff:	90                   	nop
    3300:	f3 0f 1e fa          	endbr64 
    3304:	68 2d 00 00 00       	push   $0x2d
    3309:	f2 e9 11 fd ff ff    	bnd jmp 3020 <_init+0x20>
    330f:	90                   	nop
    3310:	f3 0f 1e fa          	endbr64 
    3314:	68 2e 00 00 00       	push   $0x2e
    3319:	f2 e9 01 fd ff ff    	bnd jmp 3020 <_init+0x20>
    331f:	90                   	nop
    3320:	f3 0f 1e fa          	endbr64 
    3324:	68 2f 00 00 00       	push   $0x2f
    3329:	f2 e9 f1 fc ff ff    	bnd jmp 3020 <_init+0x20>
    332f:	90                   	nop
    3330:	f3 0f 1e fa          	endbr64 
    3334:	68 30 00 00 00       	push   $0x30
    3339:	f2 e9 e1 fc ff ff    	bnd jmp 3020 <_init+0x20>
    333f:	90                   	nop
    3340:	f3 0f 1e fa          	endbr64 
    3344:	68 31 00 00 00       	push   $0x31
    3349:	f2 e9 d1 fc ff ff    	bnd jmp 3020 <_init+0x20>
    334f:	90                   	nop
    3350:	f3 0f 1e fa          	endbr64 
    3354:	68 32 00 00 00       	push   $0x32
    3359:	f2 e9 c1 fc ff ff    	bnd jmp 3020 <_init+0x20>
    335f:	90                   	nop
    3360:	f3 0f 1e fa          	endbr64 
    3364:	68 33 00 00 00       	push   $0x33
    3369:	f2 e9 b1 fc ff ff    	bnd jmp 3020 <_init+0x20>
    336f:	90                   	nop
    3370:	f3 0f 1e fa          	endbr64 
    3374:	68 34 00 00 00       	push   $0x34
    3379:	f2 e9 a1 fc ff ff    	bnd jmp 3020 <_init+0x20>
    337f:	90                   	nop
    3380:	f3 0f 1e fa          	endbr64 
    3384:	68 35 00 00 00       	push   $0x35
    3389:	f2 e9 91 fc ff ff    	bnd jmp 3020 <_init+0x20>
    338f:	90                   	nop
    3390:	f3 0f 1e fa          	endbr64 
    3394:	68 36 00 00 00       	push   $0x36
    3399:	f2 e9 81 fc ff ff    	bnd jmp 3020 <_init+0x20>
    339f:	90                   	nop
    33a0:	f3 0f 1e fa          	endbr64 
    33a4:	68 37 00 00 00       	push   $0x37
    33a9:	f2 e9 71 fc ff ff    	bnd jmp 3020 <_init+0x20>
    33af:	90                   	nop
    33b0:	f3 0f 1e fa          	endbr64 
    33b4:	68 38 00 00 00       	push   $0x38
    33b9:	f2 e9 61 fc ff ff    	bnd jmp 3020 <_init+0x20>
    33bf:	90                   	nop
    33c0:	f3 0f 1e fa          	endbr64 
    33c4:	68 39 00 00 00       	push   $0x39
    33c9:	f2 e9 51 fc ff ff    	bnd jmp 3020 <_init+0x20>
    33cf:	90                   	nop
    33d0:	f3 0f 1e fa          	endbr64 
    33d4:	68 3a 00 00 00       	push   $0x3a
    33d9:	f2 e9 41 fc ff ff    	bnd jmp 3020 <_init+0x20>
    33df:	90                   	nop
    33e0:	f3 0f 1e fa          	endbr64 
    33e4:	68 3b 00 00 00       	push   $0x3b
    33e9:	f2 e9 31 fc ff ff    	bnd jmp 3020 <_init+0x20>
    33ef:	90                   	nop
    33f0:	f3 0f 1e fa          	endbr64 
    33f4:	68 3c 00 00 00       	push   $0x3c
    33f9:	f2 e9 21 fc ff ff    	bnd jmp 3020 <_init+0x20>
    33ff:	90                   	nop
    3400:	f3 0f 1e fa          	endbr64 
    3404:	68 3d 00 00 00       	push   $0x3d
    3409:	f2 e9 11 fc ff ff    	bnd jmp 3020 <_init+0x20>
    340f:	90                   	nop
    3410:	f3 0f 1e fa          	endbr64 
    3414:	68 3e 00 00 00       	push   $0x3e
    3419:	f2 e9 01 fc ff ff    	bnd jmp 3020 <_init+0x20>
    341f:	90                   	nop
    3420:	f3 0f 1e fa          	endbr64 
    3424:	68 3f 00 00 00       	push   $0x3f
    3429:	f2 e9 f1 fb ff ff    	bnd jmp 3020 <_init+0x20>
    342f:	90                   	nop
    3430:	f3 0f 1e fa          	endbr64 
    3434:	68 40 00 00 00       	push   $0x40
    3439:	f2 e9 e1 fb ff ff    	bnd jmp 3020 <_init+0x20>
    343f:	90                   	nop
    3440:	f3 0f 1e fa          	endbr64 
    3444:	68 41 00 00 00       	push   $0x41
    3449:	f2 e9 d1 fb ff ff    	bnd jmp 3020 <_init+0x20>
    344f:	90                   	nop
    3450:	f3 0f 1e fa          	endbr64 
    3454:	68 42 00 00 00       	push   $0x42
    3459:	f2 e9 c1 fb ff ff    	bnd jmp 3020 <_init+0x20>
    345f:	90                   	nop
    3460:	f3 0f 1e fa          	endbr64 
    3464:	68 43 00 00 00       	push   $0x43
    3469:	f2 e9 b1 fb ff ff    	bnd jmp 3020 <_init+0x20>
    346f:	90                   	nop
    3470:	f3 0f 1e fa          	endbr64 
    3474:	68 44 00 00 00       	push   $0x44
    3479:	f2 e9 a1 fb ff ff    	bnd jmp 3020 <_init+0x20>
    347f:	90                   	nop
    3480:	f3 0f 1e fa          	endbr64 
    3484:	68 45 00 00 00       	push   $0x45
    3489:	f2 e9 91 fb ff ff    	bnd jmp 3020 <_init+0x20>
    348f:	90                   	nop
    3490:	f3 0f 1e fa          	endbr64 
    3494:	68 46 00 00 00       	push   $0x46
    3499:	f2 e9 81 fb ff ff    	bnd jmp 3020 <_init+0x20>
    349f:	90                   	nop
    34a0:	f3 0f 1e fa          	endbr64 
    34a4:	68 47 00 00 00       	push   $0x47
    34a9:	f2 e9 71 fb ff ff    	bnd jmp 3020 <_init+0x20>
    34af:	90                   	nop
    34b0:	f3 0f 1e fa          	endbr64 
    34b4:	68 48 00 00 00       	push   $0x48
    34b9:	f2 e9 61 fb ff ff    	bnd jmp 3020 <_init+0x20>
    34bf:	90                   	nop
    34c0:	f3 0f 1e fa          	endbr64 
    34c4:	68 49 00 00 00       	push   $0x49
    34c9:	f2 e9 51 fb ff ff    	bnd jmp 3020 <_init+0x20>
    34cf:	90                   	nop
    34d0:	f3 0f 1e fa          	endbr64 
    34d4:	68 4a 00 00 00       	push   $0x4a
    34d9:	f2 e9 41 fb ff ff    	bnd jmp 3020 <_init+0x20>
    34df:	90                   	nop
    34e0:	f3 0f 1e fa          	endbr64 
    34e4:	68 4b 00 00 00       	push   $0x4b
    34e9:	f2 e9 31 fb ff ff    	bnd jmp 3020 <_init+0x20>
    34ef:	90                   	nop
    34f0:	f3 0f 1e fa          	endbr64 
    34f4:	68 4c 00 00 00       	push   $0x4c
    34f9:	f2 e9 21 fb ff ff    	bnd jmp 3020 <_init+0x20>
    34ff:	90                   	nop
    3500:	f3 0f 1e fa          	endbr64 
    3504:	68 4d 00 00 00       	push   $0x4d
    3509:	f2 e9 11 fb ff ff    	bnd jmp 3020 <_init+0x20>
    350f:	90                   	nop
    3510:	f3 0f 1e fa          	endbr64 
    3514:	68 4e 00 00 00       	push   $0x4e
    3519:	f2 e9 01 fb ff ff    	bnd jmp 3020 <_init+0x20>
    351f:	90                   	nop
    3520:	f3 0f 1e fa          	endbr64 
    3524:	68 4f 00 00 00       	push   $0x4f
    3529:	f2 e9 f1 fa ff ff    	bnd jmp 3020 <_init+0x20>
    352f:	90                   	nop
    3530:	f3 0f 1e fa          	endbr64 
    3534:	68 50 00 00 00       	push   $0x50
    3539:	f2 e9 e1 fa ff ff    	bnd jmp 3020 <_init+0x20>
    353f:	90                   	nop
    3540:	f3 0f 1e fa          	endbr64 
    3544:	68 51 00 00 00       	push   $0x51
    3549:	f2 e9 d1 fa ff ff    	bnd jmp 3020 <_init+0x20>
    354f:	90                   	nop
    3550:	f3 0f 1e fa          	endbr64 
    3554:	68 52 00 00 00       	push   $0x52
    3559:	f2 e9 c1 fa ff ff    	bnd jmp 3020 <_init+0x20>
    355f:	90                   	nop
    3560:	f3 0f 1e fa          	endbr64 
    3564:	68 53 00 00 00       	push   $0x53
    3569:	f2 e9 b1 fa ff ff    	bnd jmp 3020 <_init+0x20>
    356f:	90                   	nop
    3570:	f3 0f 1e fa          	endbr64 
    3574:	68 54 00 00 00       	push   $0x54
    3579:	f2 e9 a1 fa ff ff    	bnd jmp 3020 <_init+0x20>
    357f:	90                   	nop
    3580:	f3 0f 1e fa          	endbr64 
    3584:	68 55 00 00 00       	push   $0x55
    3589:	f2 e9 91 fa ff ff    	bnd jmp 3020 <_init+0x20>
    358f:	90                   	nop
    3590:	f3 0f 1e fa          	endbr64 
    3594:	68 56 00 00 00       	push   $0x56
    3599:	f2 e9 81 fa ff ff    	bnd jmp 3020 <_init+0x20>
    359f:	90                   	nop
    35a0:	f3 0f 1e fa          	endbr64 
    35a4:	68 57 00 00 00       	push   $0x57
    35a9:	f2 e9 71 fa ff ff    	bnd jmp 3020 <_init+0x20>
    35af:	90                   	nop

Disassembly of section .plt.got:

00000000000035b0 <__cxa_finalize@plt>:
    35b0:	f3 0f 1e fa          	endbr64 
    35b4:	f2 ff 25 2d ba 00 00 	bnd jmp *0xba2d(%rip)        # efe8 <__cxa_finalize@GLIBC_2.2.5>
    35bb:	0f 1f 44 00 00       	nopl   0x0(%rax,%rax,1)

Disassembly of section .plt.sec:

00000000000035c0 <PyUnicode_FromFormat@plt>:
    35c0:	f3 0f 1e fa          	endbr64 
    35c4:	f2 ff 25 4d ba 00 00 	bnd jmp *0xba4d(%rip)        # f018 <PyUnicode_FromFormat@Base>
    35cb:	0f 1f 44 00 00       	nopl   0x0(%rax,%rax,1)

00000000000035d0 <PyList_New@plt>:
    35d0:	f3 0f 1e fa          	endbr64 
    35d4:	f2 ff 25 45 ba 00 00 	bnd jmp *0xba45(%rip)        # f020 <PyList_New@Base>
    35db:	0f 1f 44 00 00       	nopl   0x0(%rax,%rax,1)

00000000000035e0 <_PyUnicode_Ready@plt>:
    35e0:	f3 0f 1e fa          	endbr64 
    35e4:	f2 ff 25 3d ba 00 00 	bnd jmp *0xba3d(%rip)        # f028 <_PyUnicode_Ready@Base>
    35eb:	0f 1f 44 00 00       	nopl   0x0(%rax,%rax,1)

00000000000035f0 <PyDict_SetItemString@plt>:
    35f0:	f3 0f 1e fa          	endbr64 
    35f4:	f2 ff 25 35 ba 00 00 	bnd jmp *0xba35(%rip)        # f030 <PyDict_SetItemString@Base>
    35fb:	0f 1f 44 00 00       	nopl   0x0(%rax,%rax,1)

0000000000003600 <PyDict_Size@plt>:
    3600:	f3 0f 1e fa          	endbr64 
    3604:	f2 ff 25 2d ba 00 00 	bnd jmp *0xba2d(%rip)        # f038 <PyDict_Size@Base>
    360b:	0f 1f 44 00 00       	nopl   0x0(%rax,%rax,1)

0000000000003610 <PySet_New@plt>:
    3610:	f3 0f 1e fa          	endbr64 
    3614:	f2 ff 25 25 ba 00 00 	bnd jmp *0xba25(%rip)        # f040 <PySet_New@Base>
    361b:	0f 1f 44 00 00       	nopl   0x0(%rax,%rax,1)

0000000000003620 <PyObject_ClearWeakRefs@plt>:
    3620:	f3 0f 1e fa          	endbr64 
    3624:	f2 ff 25 1d ba 00 00 	bnd jmp *0xba1d(%rip)        # f048 <PyObject_ClearWeakRefs@Base>
    362b:	0f 1f 44 00 00       	nopl   0x0(%rax,%rax,1)

0000000000003630 <_PyThreadState_UncheckedGet@plt>:
    3630:	f3 0f 1e fa          	endbr64 
    3634:	f2 ff 25 15 ba 00 00 	bnd jmp *0xba15(%rip)        # f050 <_PyThreadState_UncheckedGet@Base>
    363b:	0f 1f 44 00 00       	nopl   0x0(%rax,%rax,1)

0000000000003640 <PyDescr_IsData@plt>:
    3640:	f3 0f 1e fa          	endbr64 
    3644:	f2 ff 25 0d ba 00 00 	bnd jmp *0xba0d(%rip)        # f058 <PyDescr_IsData@Base>
    364b:	0f 1f 44 00 00       	nopl   0x0(%rax,%rax,1)

0000000000003650 <PyModuleDef_Init@plt>:
    3650:	f3 0f 1e fa          	endbr64 
    3654:	f2 ff 25 05 ba 00 00 	bnd jmp *0xba05(%rip)        # f060 <PyModuleDef_Init@Base>
    365b:	0f 1f 44 00 00       	nopl   0x0(%rax,%rax,1)

0000000000003660 <Py_EnterRecursiveCall@plt>:
    3660:	f3 0f 1e fa          	endbr64 
    3664:	f2 ff 25 fd b9 00 00 	bnd jmp *0xb9fd(%rip)        # f068 <Py_EnterRecursiveCall@Base>
    366b:	0f 1f 44 00 00       	nopl   0x0(%rax,%rax,1)

0000000000003670 <PyFrame_New@plt>:
    3670:	f3 0f 1e fa          	endbr64 
    3674:	f2 ff 25 f5 b9 00 00 	bnd jmp *0xb9f5(%rip)        # f070 <PyFrame_New@Base>
    367b:	0f 1f 44 00 00       	nopl   0x0(%rax,%rax,1)

0000000000003680 <PyMem_Free@plt>:
    3680:	f3 0f 1e fa          	endbr64 
    3684:	f2 ff 25 ed b9 00 00 	bnd jmp *0xb9ed(%rip)        # f078 <PyMem_Free@Base>
    368b:	0f 1f 44 00 00       	nopl   0x0(%rax,%rax,1)

0000000000003690 <PyNumber_InPlaceAdd@plt>:
    3690:	f3 0f 1e fa          	endbr64 
    3694:	f2 ff 25 e5 b9 00 00 	bnd jmp *0xb9e5(%rip)        # f080 <PyNumber_InPlaceAdd@Base>
    369b:	0f 1f 44 00 00       	nopl   0x0(%rax,%rax,1)

00000000000036a0 <PyNumber_Add@plt>:
    36a0:	f3 0f 1e fa          	endbr64 
    36a4:	f2 ff 25 dd b9 00 00 	bnd jmp *0xb9dd(%rip)        # f088 <PyNumber_Add@Base>
    36ab:	0f 1f 44 00 00       	nopl   0x0(%rax,%rax,1)

00000000000036b0 <PyObject_GetAttrString@plt>:
    36b0:	f3 0f 1e fa          	endbr64 
    36b4:	f2 ff 25 d5 b9 00 00 	bnd jmp *0xb9d5(%rip)        # f090 <PyObject_GetAttrString@Base>
    36bb:	0f 1f 44 00 00       	nopl   0x0(%rax,%rax,1)

00000000000036c0 <PyImport_AddModule@plt>:
    36c0:	f3 0f 1e fa          	endbr64 
    36c4:	f2 ff 25 cd b9 00 00 	bnd jmp *0xb9cd(%rip)        # f098 <PyImport_AddModule@Base>
    36cb:	0f 1f 44 00 00       	nopl   0x0(%rax,%rax,1)

00000000000036d0 <PyBytes_FromStringAndSize@plt>:
    36d0:	f3 0f 1e fa          	endbr64 
    36d4:	f2 ff 25 c5 b9 00 00 	bnd jmp *0xb9c5(%rip)        # f0a0 <PyBytes_FromStringAndSize@Base>
    36db:	0f 1f 44 00 00       	nopl   0x0(%rax,%rax,1)

00000000000036e0 <_PyObject_GenericGetAttrWithDict@plt>:
    36e0:	f3 0f 1e fa          	endbr64 
    36e4:	f2 ff 25 bd b9 00 00 	bnd jmp *0xb9bd(%rip)        # f0a8 <_PyObject_GenericGetAttrWithDict@Base>
    36eb:	0f 1f 44 00 00       	nopl   0x0(%rax,%rax,1)

00000000000036f0 <PyObject_SetAttrString@plt>:
    36f0:	f3 0f 1e fa          	endbr64 
    36f4:	f2 ff 25 b5 b9 00 00 	bnd jmp *0xb9b5(%rip)        # f0b0 <PyObject_SetAttrString@Base>
    36fb:	0f 1f 44 00 00       	nopl   0x0(%rax,%rax,1)

0000000000003700 <PyErr_WarnEx@plt>:
    3700:	f3 0f 1e fa          	endbr64 
    3704:	f2 ff 25 ad b9 00 00 	bnd jmp *0xb9ad(%rip)        # f0b8 <PyErr_WarnEx@Base>
    370b:	0f 1f 44 00 00       	nopl   0x0(%rax,%rax,1)

0000000000003710 <_Py_Dealloc@plt>:
    3710:	f3 0f 1e fa          	endbr64 
    3714:	f2 ff 25 a5 b9 00 00 	bnd jmp *0xb9a5(%rip)        # f0c0 <_Py_Dealloc@Base>
    371b:	0f 1f 44 00 00       	nopl   0x0(%rax,%rax,1)

0000000000003720 <PyModule_NewObject@plt>:
    3720:	f3 0f 1e fa          	endbr64 
    3724:	f2 ff 25 9d b9 00 00 	bnd jmp *0xb99d(%rip)        # f0c8 <PyModule_NewObject@Base>
    372b:	0f 1f 44 00 00       	nopl   0x0(%rax,%rax,1)

0000000000003730 <PyErr_NoMemory@plt>:
    3730:	f3 0f 1e fa          	endbr64 
    3734:	f2 ff 25 95 b9 00 00 	bnd jmp *0xb995(%rip)        # f0d0 <PyErr_NoMemory@Base>
    373b:	0f 1f 44 00 00       	nopl   0x0(%rax,%rax,1)

0000000000003740 <PyObject_GC_Del@plt>:
    3740:	f3 0f 1e fa          	endbr64 
    3744:	f2 ff 25 8d b9 00 00 	bnd jmp *0xb98d(%rip)        # f0d8 <PyObject_GC_Del@Base>
    374b:	0f 1f 44 00 00       	nopl   0x0(%rax,%rax,1)

0000000000003750 <PyObject_RichCompare@plt>:
    3750:	f3 0f 1e fa          	endbr64 
    3754:	f2 ff 25 85 b9 00 00 	bnd jmp *0xb985(%rip)        # f0e0 <PyObject_RichCompare@Base>
    375b:	0f 1f 44 00 00       	nopl   0x0(%rax,%rax,1)

0000000000003760 <PyImport_GetModuleDict@plt>:
    3760:	f3 0f 1e fa          	endbr64 
    3764:	f2 ff 25 7d b9 00 00 	bnd jmp *0xb97d(%rip)        # f0e8 <PyImport_GetModuleDict@Base>
    376b:	0f 1f 44 00 00       	nopl   0x0(%rax,%rax,1)

0000000000003770 <PyObject_GC_Track@plt>:
    3770:	f3 0f 1e fa          	endbr64 
    3774:	f2 ff 25 75 b9 00 00 	bnd jmp *0xb975(%rip)        # f0f0 <PyObject_GC_Track@Base>
    377b:	0f 1f 44 00 00       	nopl   0x0(%rax,%rax,1)

0000000000003780 <__stack_chk_fail@plt>:
    3780:	f3 0f 1e fa          	endbr64 
    3784:	f2 ff 25 6d b9 00 00 	bnd jmp *0xb96d(%rip)        # f0f8 <__stack_chk_fail@GLIBC_2.4>
    378b:	0f 1f 44 00 00       	nopl   0x0(%rax,%rax,1)

0000000000003790 <PyErr_GivenExceptionMatches@plt>:
    3790:	f3 0f 1e fa          	endbr64 
    3794:	f2 ff 25 65 b9 00 00 	bnd jmp *0xb965(%rip)        # f100 <PyErr_GivenExceptionMatches@Base>
    379b:	0f 1f 44 00 00       	nopl   0x0(%rax,%rax,1)

00000000000037a0 <PyErr_SetString@plt>:
    37a0:	f3 0f 1e fa          	endbr64 
    37a4:	f2 ff 25 5d b9 00 00 	bnd jmp *0xb95d(%rip)        # f108 <PyErr_SetString@Base>
    37ab:	0f 1f 44 00 00       	nopl   0x0(%rax,%rax,1)

00000000000037b0 <PyMethod_New@plt>:
    37b0:	f3 0f 1e fa          	endbr64 
    37b4:	f2 ff 25 55 b9 00 00 	bnd jmp *0xb955(%rip)        # f110 <PyMethod_New@Base>
    37bb:	0f 1f 44 00 00       	nopl   0x0(%rax,%rax,1)

00000000000037c0 <_PyObject_GC_New@plt>:
    37c0:	f3 0f 1e fa          	endbr64 
    37c4:	f2 ff 25 4d b9 00 00 	bnd jmp *0xb94d(%rip)        # f118 <_PyObject_GC_New@Base>
    37cb:	0f 1f 44 00 00       	nopl   0x0(%rax,%rax,1)

00000000000037d0 <PyObject_GetItem@plt>:
    37d0:	f3 0f 1e fa          	endbr64 
    37d4:	f2 ff 25 45 b9 00 00 	bnd jmp *0xb945(%rip)        # f120 <PyObject_GetItem@Base>
    37db:	0f 1f 44 00 00       	nopl   0x0(%rax,%rax,1)

00000000000037e0 <strrchr@plt>:
    37e0:	f3 0f 1e fa          	endbr64 
    37e4:	f2 ff 25 3d b9 00 00 	bnd jmp *0xb93d(%rip)        # f128 <strrchr@GLIBC_2.2.5>
    37eb:	0f 1f 44 00 00       	nopl   0x0(%rax,%rax,1)

00000000000037f0 <PyInterpreterState_GetID@plt>:
    37f0:	f3 0f 1e fa          	endbr64 
    37f4:	f2 ff 25 35 b9 00 00 	bnd jmp *0xb935(%rip)        # f130 <PyInterpreterState_GetID@Base>
    37fb:	0f 1f 44 00 00       	nopl   0x0(%rax,%rax,1)

0000000000003800 <PySequence_Contains@plt>:
    3800:	f3 0f 1e fa          	endbr64 
    3804:	f2 ff 25 2d b9 00 00 	bnd jmp *0xb92d(%rip)        # f138 <PySequence_Contains@Base>
    380b:	0f 1f 44 00 00       	nopl   0x0(%rax,%rax,1)

0000000000003810 <PyTuple_GetItem@plt>:
    3810:	f3 0f 1e fa          	endbr64 
    3814:	f2 ff 25 25 b9 00 00 	bnd jmp *0xb925(%rip)        # f140 <PyTuple_GetItem@Base>
    381b:	0f 1f 44 00 00       	nopl   0x0(%rax,%rax,1)

0000000000003820 <PyMem_Realloc@plt>:
    3820:	f3 0f 1e fa          	endbr64 
    3824:	f2 ff 25 1d b9 00 00 	bnd jmp *0xb91d(%rip)        # f148 <PyMem_Realloc@Base>
    382b:	0f 1f 44 00 00       	nopl   0x0(%rax,%rax,1)

0000000000003830 <PyErr_ExceptionMatches@plt>:
    3830:	f3 0f 1e fa          	endbr64 
    3834:	f2 ff 25 15 b9 00 00 	bnd jmp *0xb915(%rip)        # f150 <PyErr_ExceptionMatches@Base>
    383b:	0f 1f 44 00 00       	nopl   0x0(%rax,%rax,1)

0000000000003840 <PyOS_snprintf@plt>:
    3840:	f3 0f 1e fa          	endbr64 
    3844:	f2 ff 25 0d b9 00 00 	bnd jmp *0xb90d(%rip)        # f158 <PyOS_snprintf@Base>
    384b:	0f 1f 44 00 00       	nopl   0x0(%rax,%rax,1)

0000000000003850 <PyTraceBack_Here@plt>:
    3850:	f3 0f 1e fa          	endbr64 
    3854:	f2 ff 25 05 b9 00 00 	bnd jmp *0xb905(%rip)        # f160 <PyTraceBack_Here@Base>
    385b:	0f 1f 44 00 00       	nopl   0x0(%rax,%rax,1)

0000000000003860 <PyObject_Not@plt>:
    3860:	f3 0f 1e fa          	endbr64 
    3864:	f2 ff 25 fd b8 00 00 	bnd jmp *0xb8fd(%rip)        # f168 <PyObject_Not@Base>
    386b:	0f 1f 44 00 00       	nopl   0x0(%rax,%rax,1)

0000000000003870 <PyObject_Free@plt>:
    3870:	f3 0f 1e fa          	endbr64 
    3874:	f2 ff 25 f5 b8 00 00 	bnd jmp *0xb8f5(%rip)        # f170 <PyObject_Free@Base>
    387b:	0f 1f 44 00 00       	nopl   0x0(%rax,%rax,1)

0000000000003880 <PyLong_FromSsize_t@plt>:
    3880:	f3 0f 1e fa          	endbr64 
    3884:	f2 ff 25 ed b8 00 00 	bnd jmp *0xb8ed(%rip)        # f178 <PyLong_FromSsize_t@Base>
    388b:	0f 1f 44 00 00       	nopl   0x0(%rax,%rax,1)

0000000000003890 <PyFloat_FromDouble@plt>:
    3890:	f3 0f 1e fa          	endbr64 
    3894:	f2 ff 25 e5 b8 00 00 	bnd jmp *0xb8e5(%rip)        # f180 <PyFloat_FromDouble@Base>
    389b:	0f 1f 44 00 00       	nopl   0x0(%rax,%rax,1)

00000000000038a0 <PyType_Ready@plt>:
    38a0:	f3 0f 1e fa          	endbr64 
    38a4:	f2 ff 25 dd b8 00 00 	bnd jmp *0xb8dd(%rip)        # f188 <PyType_Ready@Base>
    38ab:	0f 1f 44 00 00       	nopl   0x0(%rax,%rax,1)

00000000000038b0 <PyLong_FromLong@plt>:
    38b0:	f3 0f 1e fa          	endbr64 
    38b4:	f2 ff 25 d5 b8 00 00 	bnd jmp *0xb8d5(%rip)        # f190 <PyLong_FromLong@Base>
    38bb:	0f 1f 44 00 00       	nopl   0x0(%rax,%rax,1)

00000000000038c0 <memcmp@plt>:
    38c0:	f3 0f 1e fa          	endbr64 
    38c4:	f2 ff 25 cd b8 00 00 	bnd jmp *0xb8cd(%rip)        # f198 <memcmp@GLIBC_2.2.5>
    38cb:	0f 1f 44 00 00       	nopl   0x0(%rax,%rax,1)

00000000000038d0 <PyLong_AsSsize_t@plt>:
    38d0:	f3 0f 1e fa          	endbr64 
    38d4:	f2 ff 25 c5 b8 00 00 	bnd jmp *0xb8c5(%rip)        # f1a0 <PyLong_AsSsize_t@Base>
    38db:	0f 1f 44 00 00       	nopl   0x0(%rax,%rax,1)

00000000000038e0 <PyErr_Clear@plt>:
    38e0:	f3 0f 1e fa          	endbr64 
    38e4:	f2 ff 25 bd b8 00 00 	bnd jmp *0xb8bd(%rip)        # f1a8 <PyErr_Clear@Base>
    38eb:	0f 1f 44 00 00       	nopl   0x0(%rax,%rax,1)

00000000000038f0 <PyList_Append@plt>:
    38f0:	f3 0f 1e fa          	endbr64 
    38f4:	f2 ff 25 b5 b8 00 00 	bnd jmp *0xb8b5(%rip)        # f1b0 <PyList_Append@Base>
    38fb:	0f 1f 44 00 00       	nopl   0x0(%rax,%rax,1)

0000000000003900 <PyTuple_New@plt>:
    3900:	f3 0f 1e fa          	endbr64 
    3904:	f2 ff 25 ad b8 00 00 	bnd jmp *0xb8ad(%rip)        # f1b8 <PyTuple_New@Base>
    390b:	0f 1f 44 00 00       	nopl   0x0(%rax,%rax,1)

0000000000003910 <PyThreadState_Get@plt>:
    3910:	f3 0f 1e fa          	endbr64 
    3914:	f2 ff 25 a5 b8 00 00 	bnd jmp *0xb8a5(%rip)        # f1c0 <PyThreadState_Get@Base>
    391b:	0f 1f 44 00 00       	nopl   0x0(%rax,%rax,1)

0000000000003920 <PyObject_SetAttr@plt>:
    3920:	f3 0f 1e fa          	endbr64 
    3924:	f2 ff 25 9d b8 00 00 	bnd jmp *0xb89d(%rip)        # f1c8 <PyObject_SetAttr@Base>
    392b:	0f 1f 44 00 00       	nopl   0x0(%rax,%rax,1)

0000000000003930 <PyErr_Occurred@plt>:
    3930:	f3 0f 1e fa          	endbr64 
    3934:	f2 ff 25 95 b8 00 00 	bnd jmp *0xb895(%rip)        # f1d0 <PyErr_Occurred@Base>
    393b:	0f 1f 44 00 00       	nopl   0x0(%rax,%rax,1)

0000000000003940 <_PyDict_GetItem_KnownHash@plt>:
    3940:	f3 0f 1e fa          	endbr64 
    3944:	f2 ff 25 8d b8 00 00 	bnd jmp *0xb88d(%rip)        # f1d8 <_PyDict_GetItem_KnownHash@Base>
    394b:	0f 1f 44 00 00       	nopl   0x0(%rax,%rax,1)

0000000000003950 <Py_LeaveRecursiveCall@plt>:
    3950:	f3 0f 1e fa          	endbr64 
    3954:	f2 ff 25 85 b8 00 00 	bnd jmp *0xb885(%rip)        # f1e0 <Py_LeaveRecursiveCall@Base>
    395b:	0f 1f 44 00 00       	nopl   0x0(%rax,%rax,1)

0000000000003960 <PyObject_VectorcallDict@plt>:
    3960:	f3 0f 1e fa          	endbr64 
    3964:	f2 ff 25 7d b8 00 00 	bnd jmp *0xb87d(%rip)        # f1e8 <PyObject_VectorcallDict@Base>
    396b:	0f 1f 44 00 00       	nopl   0x0(%rax,%rax,1)

0000000000003970 <PyTuple_GetSlice@plt>:
    3970:	f3 0f 1e fa          	endbr64 
    3974:	f2 ff 25 75 b8 00 00 	bnd jmp *0xb875(%rip)        # f1f0 <PyTuple_GetSlice@Base>
    397b:	0f 1f 44 00 00       	nopl   0x0(%rax,%rax,1)

0000000000003980 <PyDict_GetItemString@plt>:
    3980:	f3 0f 1e fa          	endbr64 
    3984:	f2 ff 25 6d b8 00 00 	bnd jmp *0xb86d(%rip)        # f1f8 <PyDict_GetItemString@Base>
    398b:	0f 1f 44 00 00       	nopl   0x0(%rax,%rax,1)

0000000000003990 <PyObject_Size@plt>:
    3990:	f3 0f 1e fa          	endbr64 
    3994:	f2 ff 25 65 b8 00 00 	bnd jmp *0xb865(%rip)        # f200 <PyObject_Size@Base>
    399b:	0f 1f 44 00 00       	nopl   0x0(%rax,%rax,1)

00000000000039a0 <PyObject_IsTrue@plt>:
    39a0:	f3 0f 1e fa          	endbr64 
    39a4:	f2 ff 25 5d b8 00 00 	bnd jmp *0xb85d(%rip)        # f208 <PyObject_IsTrue@Base>
    39ab:	0f 1f 44 00 00       	nopl   0x0(%rax,%rax,1)

00000000000039b0 <_PyType_Lookup@plt>:
    39b0:	f3 0f 1e fa          	endbr64 
    39b4:	f2 ff 25 55 b8 00 00 	bnd jmp *0xb855(%rip)        # f210 <_PyType_Lookup@Base>
    39bb:	0f 1f 44 00 00       	nopl   0x0(%rax,%rax,1)

00000000000039c0 <PyImport_ImportModuleLevelObject@plt>:
    39c0:	f3 0f 1e fa          	endbr64 
    39c4:	f2 ff 25 4d b8 00 00 	bnd jmp *0xb84d(%rip)        # f218 <PyImport_ImportModuleLevelObject@Base>
    39cb:	0f 1f 44 00 00       	nopl   0x0(%rax,%rax,1)

00000000000039d0 <PyObject_Hash@plt>:
    39d0:	f3 0f 1e fa          	endbr64 
    39d4:	f2 ff 25 45 b8 00 00 	bnd jmp *0xb845(%rip)        # f220 <PyObject_Hash@Base>
    39db:	0f 1f 44 00 00       	nopl   0x0(%rax,%rax,1)

00000000000039e0 <PyUnicode_Compare@plt>:
    39e0:	f3 0f 1e fa          	endbr64 
    39e4:	f2 ff 25 3d b8 00 00 	bnd jmp *0xb83d(%rip)        # f228 <PyUnicode_Compare@Base>
    39eb:	0f 1f 44 00 00       	nopl   0x0(%rax,%rax,1)

00000000000039f0 <PyDict_New@plt>:
    39f0:	f3 0f 1e fa          	endbr64 
    39f4:	f2 ff 25 35 b8 00 00 	bnd jmp *0xb835(%rip)        # f230 <PyDict_New@Base>
    39fb:	0f 1f 44 00 00       	nopl   0x0(%rax,%rax,1)

0000000000003a00 <PyDict_Next@plt>:
    3a00:	f3 0f 1e fa          	endbr64 
    3a04:	f2 ff 25 2d b8 00 00 	bnd jmp *0xb82d(%rip)        # f238 <PyDict_Next@Base>
    3a0b:	0f 1f 44 00 00       	nopl   0x0(%rax,%rax,1)

0000000000003a10 <PyUnicode_AsUTF8@plt>:
    3a10:	f3 0f 1e fa          	endbr64 
    3a14:	f2 ff 25 25 b8 00 00 	bnd jmp *0xb825(%rip)        # f240 <PyUnicode_AsUTF8@Base>
    3a1b:	0f 1f 44 00 00       	nopl   0x0(%rax,%rax,1)

0000000000003a20 <_PyObject_GetDictPtr@plt>:
    3a20:	f3 0f 1e fa          	endbr64 
    3a24:	f2 ff 25 1d b8 00 00 	bnd jmp *0xb81d(%rip)        # f248 <_PyObject_GetDictPtr@Base>
    3a2b:	0f 1f 44 00 00       	nopl   0x0(%rax,%rax,1)

0000000000003a30 <PyUnicode_FromString@plt>:
    3a30:	f3 0f 1e fa          	endbr64 
    3a34:	f2 ff 25 15 b8 00 00 	bnd jmp *0xb815(%rip)        # f250 <PyUnicode_FromString@Base>
    3a3b:	0f 1f 44 00 00       	nopl   0x0(%rax,%rax,1)

0000000000003a40 <PyObject_GetIter@plt>:
    3a40:	f3 0f 1e fa          	endbr64 
    3a44:	f2 ff 25 0d b8 00 00 	bnd jmp *0xb80d(%rip)        # f258 <PyObject_GetIter@Base>
    3a4b:	0f 1f 44 00 00       	nopl   0x0(%rax,%rax,1)

0000000000003a50 <PyUnicode_InternFromString@plt>:
    3a50:	f3 0f 1e fa          	endbr64 
    3a54:	f2 ff 25 05 b8 00 00 	bnd jmp *0xb805(%rip)        # f260 <PyUnicode_InternFromString@Base>
    3a5b:	0f 1f 44 00 00       	nopl   0x0(%rax,%rax,1)

0000000000003a60 <PyDict_SetItem@plt>:
    3a60:	f3 0f 1e fa          	endbr64 
    3a64:	f2 ff 25 fd b7 00 00 	bnd jmp *0xb7fd(%rip)        # f268 <PyDict_SetItem@Base>
    3a6b:	0f 1f 44 00 00       	nopl   0x0(%rax,%rax,1)

0000000000003a70 <PyObject_Call@plt>:
    3a70:	f3 0f 1e fa          	endbr64 
    3a74:	f2 ff 25 f5 b7 00 00 	bnd jmp *0xb7f5(%rip)        # f270 <PyObject_Call@Base>
    3a7b:	0f 1f 44 00 00       	nopl   0x0(%rax,%rax,1)

0000000000003a80 <PyUnicode_Decode@plt>:
    3a80:	f3 0f 1e fa          	endbr64 
    3a84:	f2 ff 25 ed b7 00 00 	bnd jmp *0xb7ed(%rip)        # f278 <PyUnicode_Decode@Base>
    3a8b:	0f 1f 44 00 00       	nopl   0x0(%rax,%rax,1)

0000000000003a90 <PyErr_Format@plt>:
    3a90:	f3 0f 1e fa          	endbr64 
    3a94:	f2 ff 25 e5 b7 00 00 	bnd jmp *0xb7e5(%rip)        # f280 <PyErr_Format@Base>
    3a9b:	0f 1f 44 00 00       	nopl   0x0(%rax,%rax,1)

0000000000003aa0 <PyUnicode_FromStringAndSize@plt>:
    3aa0:	f3 0f 1e fa          	endbr64 
    3aa4:	f2 ff 25 dd b7 00 00 	bnd jmp *0xb7dd(%rip)        # f288 <PyUnicode_FromStringAndSize@Base>
    3aab:	0f 1f 44 00 00       	nopl   0x0(%rax,%rax,1)

0000000000003ab0 <PyModule_GetDict@plt>:
    3ab0:	f3 0f 1e fa          	endbr64 
    3ab4:	f2 ff 25 d5 b7 00 00 	bnd jmp *0xb7d5(%rip)        # f290 <PyModule_GetDict@Base>
    3abb:	0f 1f 44 00 00       	nopl   0x0(%rax,%rax,1)

0000000000003ac0 <PyNumber_Index@plt>:
    3ac0:	f3 0f 1e fa          	endbr64 
    3ac4:	f2 ff 25 cd b7 00 00 	bnd jmp *0xb7cd(%rip)        # f298 <PyNumber_Index@Base>
    3acb:	0f 1f 44 00 00       	nopl   0x0(%rax,%rax,1)

0000000000003ad0 <PyObject_GetAttr@plt>:
    3ad0:	f3 0f 1e fa          	endbr64 
    3ad4:	f2 ff 25 c5 b7 00 00 	bnd jmp *0xb7c5(%rip)        # f2a0 <PyObject_GetAttr@Base>
    3adb:	0f 1f 44 00 00       	nopl   0x0(%rax,%rax,1)

0000000000003ae0 <PyMem_Malloc@plt>:
    3ae0:	f3 0f 1e fa          	endbr64 
    3ae4:	f2 ff 25 bd b7 00 00 	bnd jmp *0xb7bd(%rip)        # f2a8 <PyMem_Malloc@Base>
    3aeb:	0f 1f 44 00 00       	nopl   0x0(%rax,%rax,1)

0000000000003af0 <PyTuple_Pack@plt>:
    3af0:	f3 0f 1e fa          	endbr64 
    3af4:	f2 ff 25 b5 b7 00 00 	bnd jmp *0xb7b5(%rip)        # f2b0 <PyTuple_Pack@Base>
    3afb:	0f 1f 44 00 00       	nopl   0x0(%rax,%rax,1)

0000000000003b00 <PyCode_NewWithPosOnlyArgs@plt>:
    3b00:	f3 0f 1e fa          	endbr64 
    3b04:	f2 ff 25 ad b7 00 00 	bnd jmp *0xb7ad(%rip)        # f2b8 <PyCode_NewWithPosOnlyArgs@Base>
    3b0b:	0f 1f 44 00 00       	nopl   0x0(%rax,%rax,1)

0000000000003b10 <Py_GetVersion@plt>:
    3b10:	f3 0f 1e fa          	endbr64 
    3b14:	f2 ff 25 a5 b7 00 00 	bnd jmp *0xb7a5(%rip)        # f2c0 <Py_GetVersion@Base>
    3b1b:	0f 1f 44 00 00       	nopl   0x0(%rax,%rax,1)

0000000000003b20 <PyCode_NewEmpty@plt>:
    3b20:	f3 0f 1e fa          	endbr64 
    3b24:	f2 ff 25 9d b7 00 00 	bnd jmp *0xb79d(%rip)        # f2c8 <PyCode_NewEmpty@Base>
    3b2b:	0f 1f 44 00 00       	nopl   0x0(%rax,%rax,1)

0000000000003b30 <PyObject_GC_UnTrack@plt>:
    3b30:	f3 0f 1e fa          	endbr64 
    3b34:	f2 ff 25 95 b7 00 00 	bnd jmp *0xb795(%rip)        # f2d0 <PyObject_GC_UnTrack@Base>
    3b3b:	0f 1f 44 00 00       	nopl   0x0(%rax,%rax,1)

Disassembly of section .text:

0000000000003b40 <__Pyx_PyImport_AddModuleRef>:
    3b40:	51                   	push   %rcx
    3b41:	e8 7a fb ff ff       	call   36c0 <PyImport_AddModule@plt>
    3b46:	48 85 c0             	test   %rax,%rax
    3b49:	74 03                	je     3b4e <__Pyx_PyImport_AddModuleRef+0xe>
    3b4b:	48 ff 00             	incq   (%rax)
    3b4e:	5a                   	pop    %rdx
    3b4f:	c3                   	ret    

0000000000003b50 <__Pyx_copy_spec_to_module>:
    3b50:	41 56                	push   %r14
    3b52:	49 89 ce             	mov    %rcx,%r14
    3b55:	41 55                	push   %r13
    3b57:	49 89 f5             	mov    %rsi,%r13
    3b5a:	48 89 d6             	mov    %rdx,%rsi
    3b5d:	41 54                	push   %r12
    3b5f:	55                   	push   %rbp
    3b60:	53                   	push   %rbx
    3b61:	44 89 c3             	mov    %r8d,%ebx
    3b64:	e8 47 fb ff ff       	call   36b0 <PyObject_GetAttrString@plt>
    3b69:	48 85 c0             	test   %rax,%rax
    3b6c:	74 2f                	je     3b9d <__Pyx_copy_spec_to_module+0x4d>
    3b6e:	48 3b 05 0b b4 00 00 	cmp    0xb40b(%rip),%rax        # ef80 <_Py_NoneStruct@Base>
    3b75:	48 89 c5             	mov    %rax,%rbp
    3b78:	75 08                	jne    3b82 <__Pyx_copy_spec_to_module+0x32>
    3b7a:	45 31 e4             	xor    %r12d,%r12d
    3b7d:	80 e3 01             	and    $0x1,%bl
    3b80:	74 11                	je     3b93 <__Pyx_copy_spec_to_module+0x43>
    3b82:	48 89 ea             	mov    %rbp,%rdx
    3b85:	4c 89 f6             	mov    %r14,%rsi
    3b88:	4c 89 ef             	mov    %r13,%rdi
    3b8b:	e8 60 fa ff ff       	call   35f0 <PyDict_SetItemString@plt>
    3b90:	41 89 c4             	mov    %eax,%r12d
    3b93:	48 89 ef             	mov    %rbp,%rdi
    3b96:	e8 35 1d 00 00       	call   58d0 <_Py_DECREF>
    3b9b:	eb 1f                	jmp    3bbc <__Pyx_copy_spec_to_module+0x6c>
    3b9d:	48 8b 05 0c b4 00 00 	mov    0xb40c(%rip),%rax        # efb0 <PyExc_AttributeError@Base>
    3ba4:	41 83 cc ff          	or     $0xffffffff,%r12d
    3ba8:	48 8b 38             	mov    (%rax),%rdi
    3bab:	e8 80 fc ff ff       	call   3830 <PyErr_ExceptionMatches@plt>
    3bb0:	85 c0                	test   %eax,%eax
    3bb2:	74 08                	je     3bbc <__Pyx_copy_spec_to_module+0x6c>
    3bb4:	e8 27 fd ff ff       	call   38e0 <PyErr_Clear@plt>
    3bb9:	45 31 e4             	xor    %r12d,%r12d
    3bbc:	5b                   	pop    %rbx
    3bbd:	44 89 e0             	mov    %r12d,%eax
    3bc0:	5d                   	pop    %rbp
    3bc1:	41 5c                	pop    %r12
    3bc3:	41 5d                	pop    %r13
    3bc5:	41 5e                	pop    %r14
    3bc7:	c3                   	ret    

0000000000003bc8 <__pyx_pymod_create>:
    3bc8:	f3 0f 1e fa          	endbr64 
    3bcc:	41 56                	push   %r14
    3bce:	41 55                	push   %r13
    3bd0:	41 54                	push   %r12
    3bd2:	55                   	push   %rbp
    3bd3:	48 89 fd             	mov    %rdi,%rbp
    3bd6:	51                   	push   %rcx
    3bd7:	e8 34 fd ff ff       	call   3910 <PyThreadState_Get@plt>
    3bdc:	48 8b 78 10          	mov    0x10(%rax),%rdi
    3be0:	e8 0b fc ff ff       	call   37f0 <PyInterpreterState_GetID@plt>
    3be5:	48 8b 15 fc b6 00 00 	mov    0xb6fc(%rip),%rdx        # f2e8 <main_interpreter_id.0>
    3bec:	48 83 fa ff          	cmp    $0xffffffffffffffff,%rdx
    3bf0:	75 0e                	jne    3c00 <__pyx_pymod_create+0x38>
    3bf2:	48 89 05 ef b6 00 00 	mov    %rax,0xb6ef(%rip)        # f2e8 <main_interpreter_id.0>
    3bf9:	48 ff c0             	inc    %rax
    3bfc:	74 1d                	je     3c1b <__pyx_pymod_create+0x53>
    3bfe:	eb 23                	jmp    3c23 <__pyx_pymod_create+0x5b>
    3c00:	48 39 d0             	cmp    %rdx,%rax
    3c03:	74 1e                	je     3c23 <__pyx_pymod_create+0x5b>
    3c05:	48 8b 05 9c b3 00 00 	mov    0xb39c(%rip),%rax        # efa8 <PyExc_ImportError@Base>
    3c0c:	48 8d 35 6d 84 00 00 	lea    0x846d(%rip),%rsi        # c080 <_fini+0x308>
    3c13:	48 8b 38             	mov    (%rax),%rdi
    3c16:	e8 85 fb ff ff       	call   37a0 <PyErr_SetString@plt>
    3c1b:	45 31 e4             	xor    %r12d,%r12d
    3c1e:	e9 ee 00 00 00       	jmp    3d11 <__pyx_pymod_create+0x149>
    3c23:	4c 8b 25 86 bf 00 00 	mov    0xbf86(%rip),%r12        # fbb0 <__pyx_m>
    3c2a:	4d 85 e4             	test   %r12,%r12
    3c2d:	74 09                	je     3c38 <__pyx_pymod_create+0x70>
    3c2f:	49 ff 04 24          	incq   (%r12)
    3c33:	e9 d9 00 00 00       	jmp    3d11 <__pyx_pymod_create+0x149>
    3c38:	48 8d 35 c6 8b 00 00 	lea    0x8bc6(%rip),%rsi        # c805 <_fini+0xa8d>
    3c3f:	48 89 ef             	mov    %rbp,%rdi
    3c42:	e8 69 fa ff ff       	call   36b0 <PyObject_GetAttrString@plt>
    3c47:	49 89 c5             	mov    %rax,%r13
    3c4a:	48 85 c0             	test   %rax,%rax
    3c4d:	74 cc                	je     3c1b <__pyx_pymod_create+0x53>
    3c4f:	48 89 c7             	mov    %rax,%rdi
    3c52:	e8 c9 fa ff ff       	call   3720 <PyModule_NewObject@plt>
    3c57:	4c 89 ef             	mov    %r13,%rdi
    3c5a:	49 89 c6             	mov    %rax,%r14
    3c5d:	e8 6e 1c 00 00       	call   58d0 <_Py_DECREF>
    3c62:	4d 85 f6             	test   %r14,%r14
    3c65:	74 b4                	je     3c1b <__pyx_pymod_create+0x53>
    3c67:	4c 89 f7             	mov    %r14,%rdi
    3c6a:	e8 41 fe ff ff       	call   3ab0 <PyModule_GetDict@plt>
    3c6f:	49 89 c5             	mov    %rax,%r13
    3c72:	48 85 c0             	test   %rax,%rax
    3c75:	0f 84 8e 00 00 00    	je     3d09 <__pyx_pymod_create+0x141>
    3c7b:	41 b8 01 00 00 00    	mov    $0x1,%r8d
    3c81:	48 8d 0d 0d 8a 00 00 	lea    0x8a0d(%rip),%rcx        # c695 <_fini+0x91d>
    3c88:	48 89 c6             	mov    %rax,%rsi
    3c8b:	48 89 ef             	mov    %rbp,%rdi
    3c8e:	48 8d 15 0b 8a 00 00 	lea    0x8a0b(%rip),%rdx        # c6a0 <_fini+0x928>
    3c95:	e8 b6 fe ff ff       	call   3b50 <__Pyx_copy_spec_to_module>
    3c9a:	85 c0                	test   %eax,%eax
    3c9c:	78 6b                	js     3d09 <__pyx_pymod_create+0x141>
    3c9e:	41 b8 01 00 00 00    	mov    $0x1,%r8d
    3ca4:	48 8d 0d fc 89 00 00 	lea    0x89fc(%rip),%rcx        # c6a7 <_fini+0x92f>
    3cab:	4c 89 ee             	mov    %r13,%rsi
    3cae:	48 89 ef             	mov    %rbp,%rdi
    3cb1:	48 8d 15 f8 89 00 00 	lea    0x89f8(%rip),%rdx        # c6b0 <_fini+0x938>
    3cb8:	e8 93 fe ff ff       	call   3b50 <__Pyx_copy_spec_to_module>
    3cbd:	85 c0                	test   %eax,%eax
    3cbf:	78 48                	js     3d09 <__pyx_pymod_create+0x141>
    3cc1:	41 b8 01 00 00 00    	mov    $0x1,%r8d
    3cc7:	48 8d 0d e9 89 00 00 	lea    0x89e9(%rip),%rcx        # c6b7 <_fini+0x93f>
    3cce:	4c 89 ee             	mov    %r13,%rsi
    3cd1:	48 89 ef             	mov    %rbp,%rdi
    3cd4:	48 8d 15 e8 89 00 00 	lea    0x89e8(%rip),%rdx        # c6c3 <_fini+0x94b>
    3cdb:	e8 70 fe ff ff       	call   3b50 <__Pyx_copy_spec_to_module>
    3ce0:	85 c0                	test   %eax,%eax
    3ce2:	78 25                	js     3d09 <__pyx_pymod_create+0x141>
    3ce4:	45 31 c0             	xor    %r8d,%r8d
    3ce7:	48 8d 0d dc 89 00 00 	lea    0x89dc(%rip),%rcx        # c6ca <_fini+0x952>
    3cee:	4c 89 ee             	mov    %r13,%rsi
    3cf1:	48 89 ef             	mov    %rbp,%rdi
    3cf4:	48 8d 15 d8 89 00 00 	lea    0x89d8(%rip),%rdx        # c6d3 <_fini+0x95b>
    3cfb:	e8 50 fe ff ff       	call   3b50 <__Pyx_copy_spec_to_module>
    3d00:	85 c0                	test   %eax,%eax
    3d02:	78 05                	js     3d09 <__pyx_pymod_create+0x141>
    3d04:	4d 89 f4             	mov    %r14,%r12
    3d07:	eb 08                	jmp    3d11 <__pyx_pymod_create+0x149>
    3d09:	4c 89 f7             	mov    %r14,%rdi
    3d0c:	e8 bf 1b 00 00       	call   58d0 <_Py_DECREF>
    3d11:	5a                   	pop    %rdx
    3d12:	4c 89 e0             	mov    %r12,%rax
    3d15:	5d                   	pop    %rbp
    3d16:	41 5c                	pop    %r12
    3d18:	41 5d                	pop    %r13
    3d1a:	41 5e                	pop    %r14
    3d1c:	c3                   	ret    

0000000000003d1d <__Pyx_CyFunction_New.constprop.0>:
    3d1d:	41 57                	push   %r15
    3d1f:	49 89 f7             	mov    %rsi,%r15
    3d22:	41 56                	push   %r14
    3d24:	49 89 fe             	mov    %rdi,%r14
    3d27:	41 55                	push   %r13
    3d29:	49 89 cd             	mov    %rcx,%r13
    3d2c:	41 54                	push   %r12
    3d2e:	55                   	push   %rbp
    3d2f:	48 89 d5             	mov    %rdx,%rbp
    3d32:	53                   	push   %rbx
    3d33:	4c 89 c3             	mov    %r8,%rbx
    3d36:	41 51                	push   %r9
    3d38:	48 8b 3d d1 bc 00 00 	mov    0xbcd1(%rip),%rdi        # fa10 <__pyx_mstate_global_static+0x30>
    3d3f:	e8 7c fa ff ff       	call   37c0 <_PyObject_GC_New@plt>
    3d44:	49 89 c4             	mov    %rax,%r12
    3d47:	48 85 c0             	test   %rax,%rax
    3d4a:	0f 84 4c 01 00 00    	je     3e9c <__Pyx_CyFunction_New.constprop.0+0x17f>
    3d50:	c7 80 90 00 00 00 00 	movl   $0x0,0x90(%rax)
    3d57:	00 00 00 
    3d5a:	48 c7 40 28 00 00 00 	movq   $0x0,0x28(%rax)
    3d61:	00 
    3d62:	4c 89 70 10          	mov    %r14,0x10(%rax)
    3d66:	49 89 44 24 18       	mov    %rax,0x18(%r12)
    3d6b:	48 c7 40 70 00 00 00 	movq   $0x0,0x70(%rax)
    3d72:	00 
    3d73:	48 85 ed             	test   %rbp,%rbp
    3d76:	74 04                	je     3d7c <__Pyx_CyFunction_New.constprop.0+0x5f>
    3d78:	48 ff 45 00          	incq   0x0(%rbp)
    3d7c:	49 89 6c 24 20       	mov    %rbp,0x20(%r12)
    3d81:	49 c7 44 24 40 00 00 	movq   $0x0,0x40(%r12)
    3d88:	00 00 
    3d8a:	49 c7 44 24 48 00 00 	movq   $0x0,0x48(%r12)
    3d91:	00 00 
    3d93:	49 ff 07             	incq   (%r15)
    3d96:	4d 89 7c 24 50       	mov    %r15,0x50(%r12)
    3d9b:	49 c7 44 24 58 00 00 	movq   $0x0,0x58(%r12)
    3da2:	00 00 
    3da4:	49 c7 44 24 38 00 00 	movq   $0x0,0x38(%r12)
    3dab:	00 00 
    3dad:	4d 89 6c 24 60       	mov    %r13,0x60(%r12)
    3db2:	49 ff 45 00          	incq   0x0(%r13)
    3db6:	48 85 db             	test   %rbx,%rbx
    3db9:	74 03                	je     3dbe <__Pyx_CyFunction_New.constprop.0+0xa1>
    3dbb:	48 ff 03             	incq   (%rbx)
    3dbe:	41 8b 46 10          	mov    0x10(%r14),%eax
    3dc2:	49 89 5c 24 68       	mov    %rbx,0x68(%r12)
    3dc7:	41 c7 84 24 80 00 00 	movl   $0x0,0x80(%r12)
    3dce:	00 00 00 00 00 
    3dd3:	49 c7 44 24 78 00 00 	movq   $0x0,0x78(%r12)
    3dda:	00 00 
    3ddc:	25 8f 02 00 00       	and    $0x28f,%eax
    3de1:	49 c7 84 24 88 00 00 	movq   $0x0,0x88(%r12)
    3de8:	00 00 00 00 00 
    3ded:	49 c7 84 24 98 00 00 	movq   $0x0,0x98(%r12)
    3df4:	00 00 00 00 00 
    3df9:	49 c7 84 24 a0 00 00 	movq   $0x0,0xa0(%r12)
    3e00:	00 00 00 00 00 
    3e05:	49 c7 84 24 a8 00 00 	movq   $0x0,0xa8(%r12)
    3e0c:	00 00 00 00 00 
    3e11:	49 c7 84 24 b0 00 00 	movq   $0x0,0xb0(%r12)
    3e18:	00 00 00 00 00 
    3e1d:	49 c7 84 24 b8 00 00 	movq   $0x0,0xb8(%r12)
    3e24:	00 00 00 00 00 
    3e29:	83 f8 08             	cmp    $0x8,%eax
    3e2c:	74 4d                	je     3e7b <__Pyx_CyFunction_New.constprop.0+0x15e>
    3e2e:	7f 13                	jg     3e43 <__Pyx_CyFunction_New.constprop.0+0x126>
    3e30:	83 f8 03             	cmp    $0x3,%eax
    3e33:	74 4f                	je     3e84 <__Pyx_CyFunction_New.constprop.0+0x167>
    3e35:	48 8d 15 34 1f 00 00 	lea    0x1f34(%rip),%rdx        # 5d70 <__Pyx_CyFunction_Vectorcall_NOARGS>
    3e3c:	83 f8 04             	cmp    $0x4,%eax
    3e3f:	74 4e                	je     3e8f <__Pyx_CyFunction_New.constprop.0+0x172>
    3e41:	eb 15                	jmp    3e58 <__Pyx_CyFunction_New.constprop.0+0x13b>
    3e43:	3d 82 00 00 00       	cmp    $0x82,%eax
    3e48:	74 3e                	je     3e88 <__Pyx_CyFunction_New.constprop.0+0x16b>
    3e4a:	48 8d 15 8f 1e 00 00 	lea    0x1e8f(%rip),%rdx        # 5ce0 <__Pyx_CyFunction_Vectorcall_FASTCALL_KEYWORDS_METHOD>
    3e51:	3d 82 02 00 00       	cmp    $0x282,%eax
    3e56:	74 37                	je     3e8f <__Pyx_CyFunction_New.constprop.0+0x172>
    3e58:	48 8b 05 c9 b0 00 00 	mov    0xb0c9(%rip),%rax        # ef28 <PyExc_SystemError@Base>
    3e5f:	48 8d 35 fb 87 00 00 	lea    0x87fb(%rip),%rsi        # c661 <_fini+0x8e9>
    3e66:	48 8b 38             	mov    (%rax),%rdi
    3e69:	e8 32 f9 ff ff       	call   37a0 <PyErr_SetString@plt>
    3e6e:	4c 89 e7             	mov    %r12,%rdi
    3e71:	45 31 e4             	xor    %r12d,%r12d
    3e74:	e8 57 1a 00 00       	call   58d0 <_Py_DECREF>
    3e79:	eb 21                	jmp    3e9c <__Pyx_CyFunction_New.constprop.0+0x17f>
    3e7b:	48 8d 15 6e 1a 00 00 	lea    0x1a6e(%rip),%rdx        # 58f0 <__Pyx_CyFunction_Vectorcall_O>
    3e82:	eb 0b                	jmp    3e8f <__Pyx_CyFunction_New.constprop.0+0x172>
    3e84:	31 d2                	xor    %edx,%edx
    3e86:	eb 07                	jmp    3e8f <__Pyx_CyFunction_New.constprop.0+0x172>
    3e88:	48 8d 15 e1 1d 00 00 	lea    0x1de1(%rip),%rdx        # 5c70 <__Pyx_CyFunction_Vectorcall_FASTCALL_KEYWORDS>
    3e8f:	49 89 54 24 30       	mov    %rdx,0x30(%r12)
    3e94:	4c 89 e7             	mov    %r12,%rdi
    3e97:	e8 d4 f8 ff ff       	call   3770 <PyObject_GC_Track@plt>
    3e9c:	5a                   	pop    %rdx
    3e9d:	4c 89 e0             	mov    %r12,%rax
    3ea0:	5b                   	pop    %rbx
    3ea1:	5d                   	pop    %rbp
    3ea2:	41 5c                	pop    %r12
    3ea4:	41 5d                	pop    %r13
    3ea6:	41 5e                	pop    %r14
    3ea8:	41 5f                	pop    %r15
    3eaa:	c3                   	ret    

0000000000003eab <__Pyx_CreateStringTabAndInitStrings>:
    3eab:	55                   	push   %rbp
    3eac:	53                   	push   %rbx
    3ead:	48 81 ec 78 06 00 00 	sub    $0x678,%rsp
    3eb4:	64 48 8b 04 25 28 00 	mov    %fs:0x28,%rax
    3ebb:	00 00 
    3ebd:	48 89 84 24 68 06 00 	mov    %rax,0x668(%rsp)
    3ec4:	00 
    3ec5:	48 8d 05 4c bb 00 00 	lea    0xbb4c(%rip),%rax        # fa18 <__pyx_mstate_global_static+0x38>
    3ecc:	66 c7 44 24 20 00 01 	movw   $0x100,0x20(%rsp)
    3ed3:	48 89 e5             	mov    %rsp,%rbp
    3ed6:	48 c7 44 24 10 01 00 	movq   $0x1,0x10(%rsp)
    3edd:	00 00 
    3edf:	48 c7 44 24 18 00 00 	movq   $0x0,0x18(%rsp)
    3ee6:	00 00 
    3ee8:	c6 44 24 22 00       	movb   $0x0,0x22(%rsp)
    3eed:	48 c7 44 24 38 49 00 	movq   $0x49,0x38(%rsp)
    3ef4:	00 00 
    3ef6:	48 c7 44 24 40 00 00 	movq   $0x0,0x40(%rsp)
    3efd:	00 00 
    3eff:	48 89 04 24          	mov    %rax,(%rsp)
    3f03:	48 8d 05 55 8b 00 00 	lea    0x8b55(%rip),%rax        # ca5f <__pyx_k_>
    3f0a:	48 89 44 24 08       	mov    %rax,0x8(%rsp)
    3f0f:	48 8d 05 0a bb 00 00 	lea    0xbb0a(%rip),%rax        # fa20 <__pyx_mstate_global_static+0x40>
    3f16:	48 89 44 24 28       	mov    %rax,0x28(%rsp)
    3f1b:	48 8d 05 9e 89 00 00 	lea    0x899e(%rip),%rax        # c8c0 <__pyx_k_00100_11110_10110_10111_10101_01>
    3f22:	48 89 44 24 30       	mov    %rax,0x30(%rsp)
    3f27:	48 8d 05 fa ba 00 00 	lea    0xbafa(%rip),%rax        # fa28 <__pyx_mstate_global_static+0x48>
    3f2e:	48 89 44 24 50       	mov    %rax,0x50(%rsp)
    3f33:	48 8d 05 23 8b 00 00 	lea    0x8b23(%rip),%rax        # ca5d <__pyx_k_1>
    3f3a:	48 89 44 24 58       	mov    %rax,0x58(%rsp)
    3f3f:	48 8d 05 ea ba 00 00 	lea    0xbaea(%rip),%rax        # fa30 <__pyx_mstate_global_static+0x50>
    3f46:	48 89 44 24 78       	mov    %rax,0x78(%rsp)
    3f4b:	48 8d 05 be 89 00 00 	lea    0x89be(%rip),%rax        # c910 <__pyx_k_2021_Day03_funnybug_pyx>
    3f52:	48 89 84 24 80 00 00 	mov    %rax,0x80(%rsp)
    3f59:	00 
    3f5a:	48 8d 05 d7 ba 00 00 	lea    0xbad7(%rip),%rax        # fa38 <__pyx_mstate_global_static+0x58>
    3f61:	48 89 84 24 a0 00 00 	mov    %rax,0xa0(%rsp)
    3f68:	00 
    3f69:	48 8d 05 e5 8a 00 00 	lea    0x8ae5(%rip),%rax        # ca55 <__pyx_k__6>
    3f70:	48 89 84 24 a8 00 00 	mov    %rax,0xa8(%rsp)
    3f77:	00 
    3f78:	48 8d 05 c1 ba 00 00 	lea    0xbac1(%rip),%rax        # fa40 <__pyx_mstate_global_static+0x60>
    3f7f:	66 c7 44 24 48 00 01 	movw   $0x100,0x48(%rsp)
    3f86:	c6 44 24 4a 00       	movb   $0x0,0x4a(%rsp)
    3f8b:	48 c7 44 24 60 02 00 	movq   $0x2,0x60(%rsp)
    3f92:	00 00 
    3f94:	48 c7 44 24 68 00 00 	movq   $0x0,0x68(%rsp)
    3f9b:	00 00 
    3f9d:	66 c7 44 24 70 00 01 	movw   $0x100,0x70(%rsp)
    3fa4:	c6 44 24 72 00       	movb   $0x0,0x72(%rsp)
    3fa9:	48 c7 84 24 88 00 00 	movq   $0x18,0x88(%rsp)
    3fb0:	00 18 00 00 00 
    3fb5:	48 c7 84 24 90 00 00 	movq   $0x0,0x90(%rsp)
    3fbc:	00 00 00 00 00 
    3fc1:	66 c7 84 24 98 00 00 	movw   $0x100,0x98(%rsp)
    3fc8:	00 00 01 
    3fcb:	c6 84 24 9a 00 00 00 	movb   $0x0,0x9a(%rsp)
    3fd2:	00 
    3fd3:	48 c7 84 24 b0 00 00 	movq   $0x2,0xb0(%rsp)
    3fda:	00 02 00 00 00 
    3fdf:	48 c7 84 24 b8 00 00 	movq   $0x0,0xb8(%rsp)
    3fe6:	00 00 00 00 00 
    3feb:	48 89 84 24 c8 00 00 	mov    %rax,0xc8(%rsp)
    3ff2:	00 
    3ff3:	48 8d 05 57 8a 00 00 	lea    0x8a57(%rip),%rax        # ca51 <__pyx_k_ans>
    3ffa:	48 89 84 24 d0 00 00 	mov    %rax,0xd0(%rsp)
    4001:	00 
    4002:	48 8d 05 3f ba 00 00 	lea    0xba3f(%rip),%rax        # fa48 <__pyx_mstate_global_static+0x68>
    4009:	48 89 84 24 f0 00 00 	mov    %rax,0xf0(%rsp)
    4010:	00 
    4011:	48 8d 05 b5 89 00 00 	lea    0x89b5(%rip),%rax        # c9cd <__pyx_k_append>
    4018:	48 89 84 24 f8 00 00 	mov    %rax,0xf8(%rsp)
    401f:	00 
    4020:	48 8d 05 29 ba 00 00 	lea    0xba29(%rip),%rax        # fa50 <__pyx_mstate_global_static+0x70>
    4027:	48 89 84 24 18 01 00 	mov    %rax,0x118(%rsp)
    402e:	00 
    402f:	48 8d 05 1a 89 00 00 	lea    0x891a(%rip),%rax        # c950 <__pyx_k_asyncio_coroutines>
    4036:	48 89 84 24 20 01 00 	mov    %rax,0x120(%rsp)
    403d:	00 
    403e:	48 8d 05 13 ba 00 00 	lea    0xba13(%rip),%rax        # fa58 <__pyx_mstate_global_static+0x78>
    4045:	48 89 84 24 40 01 00 	mov    %rax,0x140(%rsp)
    404c:	00 
    404d:	48 8d 05 f9 89 00 00 	lea    0x89f9(%rip),%rax        # ca4d <__pyx_k_bit>
    4054:	48 89 84 24 48 01 00 	mov    %rax,0x148(%rsp)
    405b:	00 
    405c:	48 8d 05 fd b9 00 00 	lea    0xb9fd(%rip),%rax        # fa60 <__pyx_mstate_global_static+0x80>
    4063:	48 89 84 24 68 01 00 	mov    %rax,0x168(%rsp)
    406a:	00 
    406b:	48 8d 05 be 89 00 00 	lea    0x89be(%rip),%rax        # ca30 <__pyx_k_bool>
    4072:	48 89 84 24 70 01 00 	mov    %rax,0x170(%rsp)
    4079:	00 
    407a:	48 8d 05 e7 b9 00 00 	lea    0xb9e7(%rip),%rax        # fa68 <__pyx_mstate_global_static+0x88>
    4081:	66 c7 84 24 c0 00 00 	movw   $0x100,0xc0(%rsp)
    4088:	00 00 01 
    408b:	c6 84 24 c2 00 00 00 	movb   $0x1,0xc2(%rsp)
    4092:	01 
    4093:	48 c7 84 24 d8 00 00 	movq   $0x4,0xd8(%rsp)
    409a:	00 04 00 00 00 
    409f:	48 c7 84 24 e0 00 00 	movq   $0x0,0xe0(%rsp)
    40a6:	00 00 00 00 00 
    40ab:	66 c7 84 24 e8 00 00 	movw   $0x100,0xe8(%rsp)
    40b2:	00 00 01 
    40b5:	c6 84 24 ea 00 00 00 	movb   $0x1,0xea(%rsp)
    40bc:	01 
    40bd:	48 c7 84 24 00 01 00 	movq   $0x7,0x100(%rsp)
    40c4:	00 07 00 00 00 
    40c9:	48 c7 84 24 08 01 00 	movq   $0x0,0x108(%rsp)
    40d0:	00 00 00 00 00 
    40d5:	66 c7 84 24 10 01 00 	movw   $0x100,0x110(%rsp)
    40dc:	00 00 01 
    40df:	c6 84 24 12 01 00 00 	movb   $0x1,0x112(%rsp)
    40e6:	01 
    40e7:	48 c7 84 24 28 01 00 	movq   $0x13,0x128(%rsp)
    40ee:	00 13 00 00 00 
    40f3:	48 c7 84 24 30 01 00 	movq   $0x0,0x130(%rsp)
    40fa:	00 00 00 00 00 
    40ff:	66 c7 84 24 38 01 00 	movw   $0x100,0x138(%rsp)
    4106:	00 00 01 
    4109:	c6 84 24 3a 01 00 00 	movb   $0x1,0x13a(%rsp)
    4110:	01 
    4111:	48 c7 84 24 50 01 00 	movq   $0x4,0x150(%rsp)
    4118:	00 04 00 00 00 
    411d:	48 c7 84 24 58 01 00 	movq   $0x0,0x158(%rsp)
    4124:	00 00 00 00 00 
    4129:	66 c7 84 24 60 01 00 	movw   $0x100,0x160(%rsp)
    4130:	00 00 01 
    4133:	c6 84 24 62 01 00 00 	movb   $0x1,0x162(%rsp)
    413a:	01 
    413b:	48 c7 84 24 78 01 00 	movq   $0x5,0x178(%rsp)
    4142:	00 05 00 00 00 
    4147:	48 c7 84 24 80 01 00 	movq   $0x0,0x180(%rsp)
    414e:	00 00 00 00 00 
    4153:	66 c7 84 24 88 01 00 	movw   $0x100,0x188(%rsp)
    415a:	00 00 01 
    415d:	c6 84 24 8a 01 00 00 	movb   $0x1,0x18a(%rsp)
    4164:	01 
    4165:	48 89 84 24 90 01 00 	mov    %rax,0x190(%rsp)
    416c:	00 
    416d:	48 8d 05 e7 88 00 00 	lea    0x88e7(%rip),%rax        # ca5b <__pyx_k_c>
    4174:	48 89 84 24 98 01 00 	mov    %rax,0x198(%rsp)
    417b:	00 
    417c:	48 8d 05 ed b8 00 00 	lea    0xb8ed(%rip),%rax        # fa70 <__pyx_mstate_global_static+0x90>
    4183:	48 89 84 24 b8 01 00 	mov    %rax,0x1b8(%rsp)
    418a:	00 
    418b:	48 8d 05 de 87 00 00 	lea    0x87de(%rip),%rax        # c970 <__pyx_k_class_getitem>
    4192:	48 89 84 24 c0 01 00 	mov    %rax,0x1c0(%rsp)
    4199:	00 
    419a:	48 8d 05 d7 b8 00 00 	lea    0xb8d7(%rip),%rax        # fa78 <__pyx_mstate_global_static+0x98>
    41a1:	48 89 84 24 e0 01 00 	mov    %rax,0x1e0(%rsp)
    41a8:	00 
    41a9:	48 8d 05 80 87 00 00 	lea    0x8780(%rip),%rax        # c930 <__pyx_k_cline_in_traceback>
    41b0:	48 89 84 24 e8 01 00 	mov    %rax,0x1e8(%rsp)
    41b7:	00 
    41b8:	48 8d 05 c1 b8 00 00 	lea    0xb8c1(%rip),%rax        # fa80 <__pyx_mstate_global_static+0xa0>
    41bf:	48 89 84 24 08 02 00 	mov    %rax,0x208(%rsp)
    41c6:	00 
    41c7:	48 8d 05 24 88 00 00 	lea    0x8824(%rip),%rax        # c9f2 <__pyx_k_count>
    41ce:	48 89 84 24 10 02 00 	mov    %rax,0x210(%rsp)
    41d5:	00 
    41d6:	48 8d 05 ab b8 00 00 	lea    0xb8ab(%rip),%rax        # fa88 <__pyx_mstate_global_static+0xa8>
    41dd:	48 89 84 24 30 02 00 	mov    %rax,0x230(%rsp)
    41e4:	00 
    41e5:	48 8d 05 ac 87 00 00 	lea    0x87ac(%rip),%rax        # c998 <__pyx_k_enumerate>
    41ec:	48 89 84 24 38 02 00 	mov    %rax,0x238(%rsp)
    41f3:	00 
    41f4:	48 8d 05 95 b8 00 00 	lea    0xb895(%rip),%rax        # fa90 <__pyx_mstate_global_static+0xb0>
    41fb:	48 89 84 24 58 02 00 	mov    %rax,0x258(%rsp)
    4202:	00 
    4203:	48 8d 05 b6 87 00 00 	lea    0x87b6(%rip),%rax        # c9c0 <__pyx_k_epsilon>
    420a:	48 89 84 24 60 02 00 	mov    %rax,0x260(%rsp)
    4211:	00 
    4212:	48 8d 05 7f b8 00 00 	lea    0xb87f(%rip),%rax        # fa98 <__pyx_mstate_global_static+0xb8>
    4219:	48 c7 84 24 a0 01 00 	movq   $0x2,0x1a0(%rsp)
    4220:	00 02 00 00 00 
    4225:	48 c7 84 24 a8 01 00 	movq   $0x0,0x1a8(%rsp)
    422c:	00 00 00 00 00 
    4231:	66 c7 84 24 b0 01 00 	movw   $0x100,0x1b0(%rsp)
    4238:	00 00 01 
    423b:	c6 84 24 b2 01 00 00 	movb   $0x1,0x1b2(%rsp)
    4242:	01 
    4243:	48 c7 84 24 c8 01 00 	movq   $0x12,0x1c8(%rsp)
    424a:	00 12 00 00 00 
    424f:	48 c7 84 24 d0 01 00 	movq   $0x0,0x1d0(%rsp)
    4256:	00 00 00 00 00 
    425b:	66 c7 84 24 d8 01 00 	movw   $0x100,0x1d8(%rsp)
    4262:	00 00 01 
    4265:	c6 84 24 da 01 00 00 	movb   $0x1,0x1da(%rsp)
    426c:	01 
    426d:	48 c7 84 24 f0 01 00 	movq   $0x13,0x1f0(%rsp)
    4274:	00 13 00 00 00 
    4279:	48 c7 84 24 f8 01 00 	movq   $0x0,0x1f8(%rsp)
    4280:	00 00 00 00 00 
    4285:	66 c7 84 24 00 02 00 	movw   $0x100,0x200(%rsp)
    428c:	00 00 01 
    428f:	c6 84 24 02 02 00 00 	movb   $0x1,0x202(%rsp)
    4296:	01 
    4297:	48 c7 84 24 18 02 00 	movq   $0x6,0x218(%rsp)
    429e:	00 06 00 00 00 
    42a3:	48 c7 84 24 20 02 00 	movq   $0x0,0x220(%rsp)
    42aa:	00 00 00 00 00 
    42af:	66 c7 84 24 28 02 00 	movw   $0x100,0x228(%rsp)
    42b6:	00 00 01 
    42b9:	c6 84 24 2a 02 00 00 	movb   $0x1,0x22a(%rsp)
    42c0:	01 
    42c1:	48 c7 84 24 40 02 00 	movq   $0xa,0x240(%rsp)
    42c8:	00 0a 00 00 00 
    42cd:	48 c7 84 24 48 02 00 	movq   $0x0,0x248(%rsp)
    42d4:	00 00 00 00 00 
    42d9:	66 c7 84 24 50 02 00 	movw   $0x100,0x250(%rsp)
    42e0:	00 00 01 
    42e3:	c6 84 24 52 02 00 00 	movb   $0x1,0x252(%rsp)
    42ea:	01 
    42eb:	48 c7 84 24 68 02 00 	movq   $0x8,0x268(%rsp)
    42f2:	00 08 00 00 00 
    42f7:	48 c7 84 24 70 02 00 	movq   $0x0,0x270(%rsp)
    42fe:	00 00 00 00 00 
    4303:	48 89 84 24 80 02 00 	mov    %rax,0x280(%rsp)
    430a:	00 
    430b:	48 8d 05 96 86 00 00 	lea    0x8696(%rip),%rax        # c9a8 <__pyx_k_funnybug>
    4312:	48 89 84 24 88 02 00 	mov    %rax,0x288(%rsp)
    4319:	00 
    431a:	48 8d 05 7f b7 00 00 	lea    0xb77f(%rip),%rax        # faa0 <__pyx_mstate_global_static+0xc0>
    4321:	48 89 84 24 a8 02 00 	mov    %rax,0x2a8(%rsp)
    4328:	00 
    4329:	48 8d 05 bc 86 00 00 	lea    0x86bc(%rip),%rax        # c9ec <__pyx_k_gamma>
    4330:	48 89 84 24 b0 02 00 	mov    %rax,0x2b0(%rsp)
    4337:	00 
    4338:	48 8d 05 69 b7 00 00 	lea    0xb769(%rip),%rax        # faa8 <__pyx_mstate_global_static+0xc8>
    433f:	48 89 84 24 d0 02 00 	mov    %rax,0x2d0(%rsp)
    4346:	00 
    4347:	48 8d 05 dd 86 00 00 	lea    0x86dd(%rip),%rax        # ca2b <__pyx_k_grid>
    434e:	48 89 84 24 d8 02 00 	mov    %rax,0x2d8(%rsp)
    4355:	00 
    4356:	48 8d 05 53 b7 00 00 	lea    0xb753(%rip),%rax        # fab0 <__pyx_mstate_global_static+0xd0>
    435d:	48 89 84 24 f8 02 00 	mov    %rax,0x2f8(%rsp)
    4364:	00 
    4365:	48 8d 05 ed 86 00 00 	lea    0x86ed(%rip),%rax        # ca59 <__pyx_k_i>
    436c:	48 89 84 24 00 03 00 	mov    %rax,0x300(%rsp)
    4373:	00 
    4374:	48 8d 05 3d b7 00 00 	lea    0xb73d(%rip),%rax        # fab8 <__pyx_mstate_global_static+0xd8>
    437b:	48 89 84 24 20 03 00 	mov    %rax,0x320(%rsp)
    4382:	00 
    4383:	48 8d 05 5c 86 00 00 	lea    0x865c(%rip),%rax        # c9e6 <__pyx_k_index>
    438a:	48 89 84 24 28 03 00 	mov    %rax,0x328(%rsp)
    4391:	00 
    4392:	48 8d 05 27 b7 00 00 	lea    0xb727(%rip),%rax        # fac0 <__pyx_mstate_global_static+0xe0>
    4399:	66 c7 84 24 78 02 00 	movw   $0x100,0x278(%rsp)
    43a0:	00 00 01 
    43a3:	c6 84 24 7a 02 00 00 	movb   $0x1,0x27a(%rsp)
    43aa:	01 
    43ab:	48 c7 84 24 90 02 00 	movq   $0x9,0x290(%rsp)
    43b2:	00 09 00 00 00 
    43b7:	48 c7 84 24 98 02 00 	movq   $0x0,0x298(%rsp)
    43be:	00 00 00 00 00 
    43c3:	66 c7 84 24 a0 02 00 	movw   $0x100,0x2a0(%rsp)
    43ca:	00 00 01 
    43cd:	c6 84 24 a2 02 00 00 	movb   $0x1,0x2a2(%rsp)
    43d4:	01 
    43d5:	48 c7 84 24 b8 02 00 	movq   $0x6,0x2b8(%rsp)
    43dc:	00 06 00 00 00 
    43e1:	48 c7 84 24 c0 02 00 	movq   $0x0,0x2c0(%rsp)
    43e8:	00 00 00 00 00 
    43ed:	66 c7 84 24 c8 02 00 	movw   $0x100,0x2c8(%rsp)
    43f4:	00 00 01 
    43f7:	c6 84 24 ca 02 00 00 	movb   $0x1,0x2ca(%rsp)
    43fe:	01 
    43ff:	48 c7 84 24 e0 02 00 	movq   $0x5,0x2e0(%rsp)
    4406:	00 05 00 00 00 
    440b:	48 c7 84 24 e8 02 00 	movq   $0x0,0x2e8(%rsp)
    4412:	00 00 00 00 00 
    4417:	66 c7 84 24 f0 02 00 	movw   $0x100,0x2f0(%rsp)
    441e:	00 00 01 
    4421:	c6 84 24 f2 02 00 00 	movb   $0x1,0x2f2(%rsp)
    4428:	01 
    4429:	48 c7 84 24 08 03 00 	movq   $0x2,0x308(%rsp)
    4430:	00 02 00 00 00 
    4435:	48 c7 84 24 10 03 00 	movq   $0x0,0x310(%rsp)
    443c:	00 00 00 00 00 
    4441:	66 c7 84 24 18 03 00 	movw   $0x100,0x318(%rsp)
    4448:	00 00 01 
    444b:	c6 84 24 1a 03 00 00 	movb   $0x1,0x31a(%rsp)
    4452:	01 
    4453:	48 c7 84 24 30 03 00 	movq   $0x6,0x330(%rsp)
    445a:	00 06 00 00 00 
    445f:	48 c7 84 24 38 03 00 	movq   $0x0,0x338(%rsp)
    4466:	00 00 00 00 00 
    446b:	66 c7 84 24 40 03 00 	movw   $0x100,0x340(%rsp)
    4472:	00 00 01 
    4475:	c6 84 24 42 03 00 00 	movb   $0x1,0x342(%rsp)
    447c:	01 
    447d:	48 89 84 24 48 03 00 	mov    %rax,0x348(%rsp)
    4484:	00 
    4485:	48 8d 05 fc 84 00 00 	lea    0x84fc(%rip),%rax        # c988 <__pyx_k_is_coroutine>
    448c:	48 89 84 24 50 03 00 	mov    %rax,0x350(%rsp)
    4493:	00 
    4494:	48 8d 05 2d b6 00 00 	lea    0xb62d(%rip),%rax        # fac8 <__pyx_mstate_global_static+0xe8>
    449b:	48 89 84 24 70 03 00 	mov    %rax,0x370(%rsp)
    44a2:	00 
    44a3:	48 8d 05 7c 85 00 00 	lea    0x857c(%rip),%rax        # ca26 <__pyx_k_keep>
    44aa:	48 89 84 24 78 03 00 	mov    %rax,0x378(%rsp)
    44b1:	00 
    44b2:	48 8d 05 17 b6 00 00 	lea    0xb617(%rip),%rax        # fad0 <__pyx_mstate_global_static+0xf0>
    44b9:	48 89 84 24 98 03 00 	mov    %rax,0x398(%rsp)
    44c0:	00 
    44c1:	48 8d 05 81 85 00 00 	lea    0x8581(%rip),%rax        # ca49 <__pyx_k_key>
    44c8:	48 89 84 24 a0 03 00 	mov    %rax,0x3a0(%rsp)
    44cf:	00 
    44d0:	48 8d 05 01 b6 00 00 	lea    0xb601(%rip),%rax        # fad8 <__pyx_mstate_global_static+0xf8>
    44d7:	48 89 84 24 c0 03 00 	mov    %rax,0x3c0(%rsp)
    44de:	00 
    44df:	48 8d 05 3b 85 00 00 	lea    0x853b(%rip),%rax        # ca21 <__pyx_k_line>
    44e6:	48 89 84 24 c8 03 00 	mov    %rax,0x3c8(%rsp)
    44ed:	00 
    44ee:	48 8d 05 eb b5 00 00 	lea    0xb5eb(%rip),%rax        # fae0 <__pyx_mstate_global_static+0x100>
    44f5:	48 89 84 24 e8 03 00 	mov    %rax,0x3e8(%rsp)
    44fc:	00 
    44fd:	48 8d 05 dc 84 00 00 	lea    0x84dc(%rip),%rax        # c9e0 <__pyx_k_lines>
    4504:	48 89 84 24 f0 03 00 	mov    %rax,0x3f0(%rsp)
    450b:	00 
    450c:	48 8d 05 d5 b5 00 00 	lea    0xb5d5(%rip),%rax        # fae8 <__pyx_mstate_global_static+0x108>
    4513:	48 89 84 24 10 04 00 	mov    %rax,0x410(%rsp)
    451a:	00 
    451b:	48 8d 05 f6 84 00 00 	lea    0x84f6(%rip),%rax        # ca18 <__pyx_k_main>
    4522:	48 89 84 24 18 04 00 	mov    %rax,0x418(%rsp)
    4529:	00 
    452a:	48 8d 05 bf b5 00 00 	lea    0xb5bf(%rip),%rax        # faf0 <__pyx_mstate_global_static+0x110>
    4531:	48 c7 84 24 58 03 00 	movq   $0xe,0x358(%rsp)
    4538:	00 0e 00 00 00 
    453d:	48 c7 84 24 60 03 00 	movq   $0x0,0x360(%rsp)
    4544:	00 00 00 00 00 
    4549:	66 c7 84 24 68 03 00 	movw   $0x100,0x368(%rsp)
    4550:	00 00 01 
    4553:	c6 84 24 6a 03 00 00 	movb   $0x1,0x36a(%rsp)
    455a:	01 
    455b:	48 c7 84 24 80 03 00 	movq   $0x5,0x380(%rsp)
    4562:	00 05 00 00 00 
    4567:	48 c7 84 24 88 03 00 	movq   $0x0,0x388(%rsp)
    456e:	00 00 00 00 00 
    4573:	66 c7 84 24 90 03 00 	movw   $0x100,0x390(%rsp)
    457a:	00 00 01 
    457d:	c6 84 24 92 03 00 00 	movb   $0x1,0x392(%rsp)
    4584:	01 
    4585:	48 c7 84 24 a8 03 00 	movq   $0x4,0x3a8(%rsp)
    458c:	00 04 00 00 00 
    4591:	48 c7 84 24 b0 03 00 	movq   $0x0,0x3b0(%rsp)
    4598:	00 00 00 00 00 
    459d:	66 c7 84 24 b8 03 00 	movw   $0x100,0x3b8(%rsp)
    45a4:	00 00 01 
    45a7:	c6 84 24 ba 03 00 00 	movb   $0x1,0x3ba(%rsp)
    45ae:	01 
    45af:	48 c7 84 24 d0 03 00 	movq   $0x5,0x3d0(%rsp)
    45b6:	00 05 00 00 00 
    45bb:	48 c7 84 24 d8 03 00 	movq   $0x0,0x3d8(%rsp)
    45c2:	00 00 00 00 00 
    45c7:	66 c7 84 24 e0 03 00 	movw   $0x100,0x3e0(%rsp)
    45ce:	00 00 01 
    45d1:	c6 84 24 e2 03 00 00 	movb   $0x1,0x3e2(%rsp)
    45d8:	01 
    45d9:	48 c7 84 24 f8 03 00 	movq   $0x6,0x3f8(%rsp)
    45e0:	00 06 00 00 00 
    45e5:	48 c7 84 24 00 04 00 	movq   $0x0,0x400(%rsp)
    45ec:	00 00 00 00 00 
    45f1:	c6 84 24 08 04 00 00 	movb   $0x0,0x408(%rsp)
    45f8:	00 
    45f9:	66 c7 84 24 09 04 00 	movw   $0x101,0x409(%rsp)
    4600:	00 01 01 
    4603:	48 c7 84 24 20 04 00 	movq   $0x9,0x420(%rsp)
    460a:	00 09 00 00 00 
    460f:	48 c7 84 24 28 04 00 	movq   $0x0,0x428(%rsp)
    4616:	00 00 00 00 00 
    461b:	48 89 84 24 38 04 00 	mov    %rax,0x438(%rsp)
    4622:	00 
    4623:	48 8d 05 9e 83 00 00 	lea    0x839e(%rip),%rax        # c9c8 <__pyx_k_main_2>
    462a:	48 89 84 24 40 04 00 	mov    %rax,0x440(%rsp)
    4631:	00 
    4632:	48 8d 05 bf b4 00 00 	lea    0xb4bf(%rip),%rax        # faf8 <__pyx_mstate_global_static+0x118>
    4639:	48 89 84 24 60 04 00 	mov    %rax,0x460(%rsp)
    4640:	00 
    4641:	48 8d 05 fd 83 00 00 	lea    0x83fd(%rip),%rax        # ca45 <__pyx_k_max>
    4648:	48 89 84 24 68 04 00 	mov    %rax,0x468(%rsp)
    464f:	00 
    4650:	48 8d 05 a9 b4 00 00 	lea    0xb4a9(%rip),%rax        # fb00 <__pyx_mstate_global_static+0x120>
    4657:	48 89 84 24 88 04 00 	mov    %rax,0x488(%rsp)
    465e:	00 
    465f:	48 8d 05 db 83 00 00 	lea    0x83db(%rip),%rax        # ca41 <__pyx_k_min>
    4666:	48 89 84 24 90 04 00 	mov    %rax,0x490(%rsp)
    466d:	00 
    466e:	48 8d 05 93 b4 00 00 	lea    0xb493(%rip),%rax        # fb08 <__pyx_mstate_global_static+0x128>
    4675:	48 89 84 24 b0 04 00 	mov    %rax,0x4b0(%rsp)
    467c:	00 
    467d:	48 8d 05 84 83 00 00 	lea    0x8384(%rip),%rax        # ca08 <__pyx_k_name>
    4684:	48 89 84 24 b8 04 00 	mov    %rax,0x4b8(%rsp)
    468b:	00 
    468c:	48 8d 05 7d b4 00 00 	lea    0xb47d(%rip),%rax        # fb10 <__pyx_mstate_global_static+0x130>
    4693:	48 89 84 24 d8 04 00 	mov    %rax,0x4d8(%rsp)
    469a:	00 
    469b:	48 8d 05 16 83 00 00 	lea    0x8316(%rip),%rax        # c9b8 <__pyx_k_new_pos>
    46a2:	48 89 84 24 e0 04 00 	mov    %rax,0x4e0(%rsp)
    46a9:	00 
    46aa:	48 8d 05 67 b4 00 00 	lea    0xb467(%rip),%rax        # fb18 <__pyx_mstate_global_static+0x138>
    46b1:	66 c7 84 24 30 04 00 	movw   $0x100,0x430(%rsp)
    46b8:	00 00 01 
    46bb:	c6 84 24 32 04 00 00 	movb   $0x1,0x432(%rsp)
    46c2:	01 
    46c3:	48 c7 84 24 48 04 00 	movq   $0x5,0x448(%rsp)
    46ca:	00 05 00 00 00 
    46cf:	48 c7 84 24 50 04 00 	movq   $0x0,0x450(%rsp)
    46d6:	00 00 00 00 00 
    46db:	66 c7 84 24 58 04 00 	movw   $0x100,0x458(%rsp)
    46e2:	00 00 01 
    46e5:	c6 84 24 5a 04 00 00 	movb   $0x1,0x45a(%rsp)
    46ec:	01 
    46ed:	48 c7 84 24 70 04 00 	movq   $0x4,0x470(%rsp)
    46f4:	00 04 00 00 00 
    46f9:	48 c7 84 24 78 04 00 	movq   $0x0,0x478(%rsp)
    4700:	00 00 00 00 00 
    4705:	66 c7 84 24 80 04 00 	movw   $0x100,0x480(%rsp)
    470c:	00 00 01 
    470f:	c6 84 24 82 04 00 00 	movb   $0x1,0x482(%rsp)
    4716:	01 
    4717:	48 c7 84 24 98 04 00 	movq   $0x4,0x498(%rsp)
    471e:	00 04 00 00 00 
    4723:	48 c7 84 24 a0 04 00 	movq   $0x0,0x4a0(%rsp)
    472a:	00 00 00 00 00 
    472f:	66 c7 84 24 a8 04 00 	movw   $0x100,0x4a8(%rsp)
    4736:	00 00 01 
    4739:	c6 84 24 aa 04 00 00 	movb   $0x1,0x4aa(%rsp)
    4740:	01 
    4741:	48 c7 84 24 c0 04 00 	movq   $0x9,0x4c0(%rsp)
    4748:	00 09 00 00 00 
    474d:	48 c7 84 24 c8 04 00 	movq   $0x0,0x4c8(%rsp)
    4754:	00 00 00 00 00 
    4759:	66 c7 84 24 d0 04 00 	movw   $0x100,0x4d0(%rsp)
    4760:	00 00 01 
    4763:	c6 84 24 d2 04 00 00 	movb   $0x1,0x4d2(%rsp)
    476a:	01 
    476b:	48 c7 84 24 e8 04 00 	movq   $0x8,0x4e8(%rsp)
    4772:	00 08 00 00 00 
    4777:	48 c7 84 24 f0 04 00 	movq   $0x0,0x4f0(%rsp)
    477e:	00 00 00 00 00 
    4783:	66 c7 84 24 f8 04 00 	movw   $0x100,0x4f8(%rsp)
    478a:	00 00 01 
    478d:	c6 84 24 fa 04 00 00 	movb   $0x1,0x4fa(%rsp)
    4794:	01 
    4795:	48 89 84 24 00 05 00 	mov    %rax,0x500(%rsp)
    479c:	00 
    479d:	48 8d 05 99 82 00 00 	lea    0x8299(%rip),%rax        # ca3d <__pyx_k_pop>
    47a4:	48 89 84 24 08 05 00 	mov    %rax,0x508(%rsp)
    47ab:	00 
    47ac:	48 8d 05 6d b3 00 00 	lea    0xb36d(%rip),%rax        # fb20 <__pyx_mstate_global_static+0x140>
    47b3:	48 89 84 24 28 05 00 	mov    %rax,0x528(%rsp)
    47ba:	00 
    47bb:	48 8d 05 77 82 00 00 	lea    0x8277(%rip),%rax        # ca39 <__pyx_k_pos>
    47c2:	48 89 84 24 30 05 00 	mov    %rax,0x530(%rsp)
    47c9:	00 
    47ca:	48 8d 05 57 b3 00 00 	lea    0xb357(%rip),%rax        # fb28 <__pyx_mstate_global_static+0x148>
    47d1:	48 89 84 24 50 05 00 	mov    %rax,0x550(%rsp)
    47d8:	00 
    47d9:	48 8d 05 fa 81 00 00 	lea    0x81fa(%rip),%rax        # c9da <__pyx_k_range>
    47e0:	48 89 84 24 58 05 00 	mov    %rax,0x558(%rsp)
    47e7:	00 
    47e8:	48 8d 05 41 b3 00 00 	lea    0xb341(%rip),%rax        # fb30 <__pyx_mstate_global_static+0x150>
    47ef:	48 89 84 24 78 05 00 	mov    %rax,0x578(%rsp)
    47f6:	00 
    47f7:	48 8d 05 37 82 00 00 	lea    0x8237(%rip),%rax        # ca35 <__pyx_k_res>
    47fe:	48 89 84 24 80 05 00 	mov    %rax,0x580(%rsp)
    4805:	00 
    4806:	48 8d 05 2b b3 00 00 	lea    0xb32b(%rip),%rax        # fb38 <__pyx_mstate_global_static+0x158>
    480d:	48 89 84 24 a0 05 00 	mov    %rax,0x5a0(%rsp)
    4814:	00 
    4815:	48 8d 05 b8 81 00 00 	lea    0x81b8(%rip),%rax        # c9d4 <__pyx_k_solve>
    481c:	48 89 84 24 a8 05 00 	mov    %rax,0x5a8(%rsp)
    4823:	00 
    4824:	48 8d 05 15 b3 00 00 	lea    0xb315(%rip),%rax        # fb40 <__pyx_mstate_global_static+0x160>
    482b:	48 89 84 24 c8 05 00 	mov    %rax,0x5c8(%rsp)
    4832:	00 
    4833:	48 8d 05 c7 81 00 00 	lea    0x81c7(%rip),%rax        # ca01 <__pyx_k_take>
    483a:	48 89 84 24 d0 05 00 	mov    %rax,0x5d0(%rsp)
    4841:	00 
    4842:	48 8d 05 ff b2 00 00 	lea    0xb2ff(%rip),%rax        # fb48 <__pyx_mstate_global_static+0x168>
    4849:	48 c7 84 24 10 05 00 	movq   $0x4,0x510(%rsp)
    4850:	00 04 00 00 00 
    4855:	48 c7 84 24 18 05 00 	movq   $0x0,0x518(%rsp)
    485c:	00 00 00 00 00 
    4861:	66 c7 84 24 20 05 00 	movw   $0x100,0x520(%rsp)
    4868:	00 00 01 
    486b:	c6 84 24 22 05 00 00 	movb   $0x1,0x522(%rsp)
    4872:	01 
    4873:	48 c7 84 24 38 05 00 	movq   $0x4,0x538(%rsp)
    487a:	00 04 00 00 00 
    487f:	48 c7 84 24 40 05 00 	movq   $0x0,0x540(%rsp)
    4886:	00 00 00 00 00 
    488b:	66 c7 84 24 48 05 00 	movw   $0x100,0x548(%rsp)
    4892:	00 00 01 
    4895:	c6 84 24 4a 05 00 00 	movb   $0x1,0x54a(%rsp)
    489c:	01 
    489d:	48 c7 84 24 60 05 00 	movq   $0x6,0x560(%rsp)
    48a4:	00 06 00 00 00 
    48a9:	48 c7 84 24 68 05 00 	movq   $0x0,0x568(%rsp)
    48b0:	00 00 00 00 00 
    48b5:	66 c7 84 24 70 05 00 	movw   $0x100,0x570(%rsp)
    48bc:	00 00 01 
    48bf:	c6 84 24 72 05 00 00 	movb   $0x1,0x572(%rsp)
    48c6:	01 
    48c7:	48 c7 84 24 88 05 00 	movq   $0x4,0x588(%rsp)
    48ce:	00 04 00 00 00 
    48d3:	48 c7 84 24 90 05 00 	movq   $0x0,0x590(%rsp)
    48da:	00 00 00 00 00 
    48df:	66 c7 84 24 98 05 00 	movw   $0x100,0x598(%rsp)
    48e6:	00 00 01 
    48e9:	c6 84 24 9a 05 00 00 	movb   $0x1,0x59a(%rsp)
    48f0:	01 
    48f1:	48 c7 84 24 b0 05 00 	movq   $0x6,0x5b0(%rsp)
    48f8:	00 06 00 00 00 
    48fd:	48 c7 84 24 b8 05 00 	movq   $0x0,0x5b8(%rsp)
    4904:	00 00 00 00 00 
    4909:	66 c7 84 24 c0 05 00 	movw   $0x100,0x5c0(%rsp)
    4910:	00 00 01 
    4913:	c6 84 24 c2 05 00 00 	movb   $0x1,0x5c2(%rsp)
    491a:	01 
    491b:	48 c7 84 24 d8 05 00 	movq   $0x5,0x5d8(%rsp)
    4922:	00 05 00 00 00 
    4927:	48 c7 84 24 e0 05 00 	movq   $0x0,0x5e0(%rsp)
    492e:	00 00 00 00 00 
    4933:	48 89 84 24 f0 05 00 	mov    %rax,0x5f0(%rsp)
    493a:	00 
    493b:	48 8d 05 b6 80 00 00 	lea    0x80b6(%rip),%rax        # c9f8 <__pyx_k_test>
    4942:	48 89 84 24 f8 05 00 	mov    %rax,0x5f8(%rsp)
    4949:	00 
    494a:	48 8d 05 ff b1 00 00 	lea    0xb1ff(%rip),%rax        # fb50 <__pyx_mstate_global_static+0x170>
    4951:	48 89 84 24 18 06 00 	mov    %rax,0x618(%rsp)
    4958:	00 
    4959:	48 8d 05 f7 80 00 00 	lea    0x80f7(%rip),%rax        # ca57 <__pyx_k_x>
    4960:	66 c7 84 24 e8 05 00 	movw   $0x100,0x5e8(%rsp)
    4967:	00 00 01 
    496a:	c6 84 24 ea 05 00 00 	movb   $0x1,0x5ea(%rsp)
    4971:	01 
    4972:	48 c7 84 24 00 06 00 	movq   $0x9,0x600(%rsp)
    4979:	00 09 00 00 00 
    497e:	48 c7 84 24 08 06 00 	movq   $0x0,0x608(%rsp)
    4985:	00 00 00 00 00 
    498a:	66 c7 84 24 10 06 00 	movw   $0x100,0x610(%rsp)
    4991:	00 00 01 
    4994:	c6 84 24 12 06 00 00 	movb   $0x1,0x612(%rsp)
    499b:	01 
    499c:	48 89 84 24 20 06 00 	mov    %rax,0x620(%rsp)
    49a3:	00 
    49a4:	48 c7 84 24 28 06 00 	movq   $0x2,0x628(%rsp)
    49ab:	00 02 00 00 00 
    49b0:	48 c7 84 24 30 06 00 	movq   $0x0,0x630(%rsp)
    49b7:	00 00 00 00 00 
    49bc:	66 c7 84 24 38 06 00 	movw   $0x100,0x638(%rsp)
    49c3:	00 00 01 
    49c6:	c6 84 24 3a 06 00 00 	movb   $0x1,0x63a(%rsp)
    49cd:	01 
    49ce:	48 c7 84 24 40 06 00 	movq   $0x0,0x640(%rsp)
    49d5:	00 00 00 00 00 
    49da:	48 c7 84 24 48 06 00 	movq   $0x0,0x648(%rsp)
    49e1:	00 00 00 00 00 
    49e6:	48 c7 84 24 50 06 00 	movq   $0x0,0x650(%rsp)
    49ed:	00 00 00 00 00 
    49f2:	48 c7 84 24 58 06 00 	movq   $0x0,0x658(%rsp)
    49f9:	00 00 00 00 00 
    49fe:	66 c7 84 24 60 06 00 	movw   $0x0,0x660(%rsp)
    4a05:	00 00 00 
    4a08:	c6 84 24 62 06 00 00 	movb   $0x0,0x662(%rsp)
    4a0f:	00 
    4a10:	48 8b 5d 00          	mov    0x0(%rbp),%rbx
    4a14:	48 85 db             	test   %rbx,%rbx
    4a17:	74 58                	je     4a71 <__Pyx_CreateStringTabAndInitStrings+0xbc6>
    4a19:	8a 45 20             	mov    0x20(%rbp),%al
    4a1c:	0a 45 21             	or     0x21(%rbp),%al
    4a1f:	48 8b 7d 08          	mov    0x8(%rbp),%rdi
    4a23:	48 8b 75 10          	mov    0x10(%rbp),%rsi
    4a27:	48 8b 55 18          	mov    0x18(%rbp),%rdx
    4a2b:	8a 4d 22             	mov    0x22(%rbp),%cl
    4a2e:	74 23                	je     4a53 <__Pyx_CreateStringTabAndInitStrings+0xba8>
    4a30:	84 c9                	test   %cl,%cl
    4a32:	74 07                	je     4a3b <__Pyx_CreateStringTabAndInitStrings+0xb90>
    4a34:	e8 17 f0 ff ff       	call   3a50 <PyUnicode_InternFromString@plt>
    4a39:	eb 20                	jmp    4a5b <__Pyx_CreateStringTabAndInitStrings+0xbb0>
    4a3b:	48 ff ce             	dec    %rsi
    4a3e:	48 85 d2             	test   %rdx,%rdx
    4a41:	74 09                	je     4a4c <__Pyx_CreateStringTabAndInitStrings+0xba1>
    4a43:	31 c9                	xor    %ecx,%ecx
    4a45:	e8 36 f0 ff ff       	call   3a80 <PyUnicode_Decode@plt>
    4a4a:	eb 0f                	jmp    4a5b <__Pyx_CreateStringTabAndInitStrings+0xbb0>
    4a4c:	e8 4f f0 ff ff       	call   3aa0 <PyUnicode_FromStringAndSize@plt>
    4a51:	eb 08                	jmp    4a5b <__Pyx_CreateStringTabAndInitStrings+0xbb0>
    4a53:	48 ff ce             	dec    %rsi
    4a56:	e8 75 ec ff ff       	call   36d0 <PyBytes_FromStringAndSize@plt>
    4a5b:	48 89 03             	mov    %rax,(%rbx)
    4a5e:	48 85 c0             	test   %rax,%rax
    4a61:	74 08                	je     4a6b <__Pyx_CreateStringTabAndInitStrings+0xbc0>
    4a63:	48 89 c7             	mov    %rax,%rdi
    4a66:	e8 65 ef ff ff       	call   39d0 <PyObject_Hash@plt>
    4a6b:	48 83 c5 28          	add    $0x28,%rbp
    4a6f:	eb 9f                	jmp    4a10 <__Pyx_CreateStringTabAndInitStrings+0xb65>
    4a71:	48 8b 84 24 68 06 00 	mov    0x668(%rsp),%rax
    4a78:	00 
    4a79:	64 48 2b 04 25 28 00 	sub    %fs:0x28,%rax
    4a80:	00 00 
    4a82:	74 05                	je     4a89 <__Pyx_CreateStringTabAndInitStrings+0xbde>
    4a84:	e8 f7 ec ff ff       	call   3780 <__stack_chk_fail@plt>
    4a89:	48 81 c4 78 06 00 00 	add    $0x678,%rsp
    4a90:	31 c0                	xor    %eax,%eax
    4a92:	5b                   	pop    %rbx
    4a93:	5d                   	pop    %rbp
    4a94:	c3                   	ret    

0000000000004a95 <__pyx_pymod_exec_funnybug>:
    4a95:	f3 0f 1e fa          	endbr64 
    4a99:	41 55                	push   %r13
    4a9b:	41 54                	push   %r12
    4a9d:	55                   	push   %rbp
    4a9e:	53                   	push   %rbx
    4a9f:	48 81 ec d8 00 00 00 	sub    $0xd8,%rsp
    4aa6:	48 8b 15 03 b1 00 00 	mov    0xb103(%rip),%rdx        # fbb0 <__pyx_m>
    4aad:	64 48 8b 04 25 28 00 	mov    %fs:0x28,%rax
    4ab4:	00 00 
    4ab6:	48 89 84 24 c8 00 00 	mov    %rax,0xc8(%rsp)
    4abd:	00 
    4abe:	31 c0                	xor    %eax,%eax
    4ac0:	48 85 d2             	test   %rdx,%rdx
    4ac3:	74 27                	je     4aec <__pyx_pymod_exec_funnybug+0x57>
    4ac5:	48 39 fa             	cmp    %rdi,%rdx
    4ac8:	0f 84 2d 08 00 00    	je     52fb <__pyx_pymod_exec_funnybug+0x866>
    4ace:	48 8b 05 7b a4 00 00 	mov    0xa47b(%rip),%rax        # ef50 <PyExc_RuntimeError@Base>
    4ad5:	48 8d 35 ec 78 00 00 	lea    0x78ec(%rip),%rsi        # c3c8 <_fini+0x650>
    4adc:	48 8b 38             	mov    (%rax),%rdi
    4adf:	e8 bc ec ff ff       	call   37a0 <PyErr_SetString@plt>
    4ae4:	83 c8 ff             	or     $0xffffffff,%eax
    4ae7:	e9 0f 08 00 00       	jmp    52fb <__pyx_pymod_exec_funnybug+0x866>
    4aec:	48 ff 07             	incq   (%rdi)
    4aef:	48 89 3d ba b0 00 00 	mov    %rdi,0xb0ba(%rip)        # fbb0 <__pyx_m>
    4af6:	e8 b5 ef ff ff       	call   3ab0 <PyModule_GetDict@plt>
    4afb:	48 89 05 de ae 00 00 	mov    %rax,0xaede(%rip)        # f9e0 <__pyx_mstate_global_static>
    4b02:	48 85 c0             	test   %rax,%rax
    4b05:	0f 84 51 06 00 00    	je     515c <__pyx_pymod_exec_funnybug+0x6c7>
    4b0b:	48 ff 00             	incq   (%rax)
    4b0e:	48 8d 3d 31 7c 00 00 	lea    0x7c31(%rip),%rdi        # c746 <_fini+0x9ce>
    4b15:	e8 26 f0 ff ff       	call   3b40 <__Pyx_PyImport_AddModuleRef>
    4b1a:	48 89 05 c7 ae 00 00 	mov    %rax,0xaec7(%rip)        # f9e8 <__pyx_mstate_global_static+0x8>
    4b21:	48 85 c0             	test   %rax,%rax
    4b24:	0f 84 44 06 00 00    	je     516e <__pyx_pymod_exec_funnybug+0x6d9>
    4b2a:	48 8d 3d 1e 7c 00 00 	lea    0x7c1e(%rip),%rdi        # c74f <_fini+0x9d7>
    4b31:	e8 0a f0 ff ff       	call   3b40 <__Pyx_PyImport_AddModuleRef>
    4b36:	48 89 05 b3 ae 00 00 	mov    %rax,0xaeb3(%rip)        # f9f0 <__pyx_mstate_global_static+0x10>
    4b3d:	48 85 c0             	test   %rax,%rax
    4b40:	0f 84 3a 06 00 00    	je     5180 <__pyx_pymod_exec_funnybug+0x6eb>
    4b46:	48 8b 15 9b ae 00 00 	mov    0xae9b(%rip),%rdx        # f9e8 <__pyx_mstate_global_static+0x8>
    4b4d:	48 8b 3d 5c b0 00 00 	mov    0xb05c(%rip),%rdi        # fbb0 <__pyx_m>
    4b54:	48 8d 35 03 7c 00 00 	lea    0x7c03(%rip),%rsi        # c75e <_fini+0x9e6>
    4b5b:	e8 90 eb ff ff       	call   36f0 <PyObject_SetAttrString@plt>
    4b60:	85 c0                	test   %eax,%eax
    4b62:	0f 88 2a 06 00 00    	js     5192 <__pyx_pymod_exec_funnybug+0x6fd>
    4b68:	e8 a3 ef ff ff       	call   3b10 <Py_GetVersion@plt>
    4b6d:	41 b9 04 00 00 00    	mov    $0x4,%r9d
    4b73:	31 f6                	xor    %esi,%esi
    4b75:	31 c9                	xor    %ecx,%ecx
    4b77:	41 b8 00 00 00 01    	mov    $0x1000000,%r8d
    4b7d:	31 d2                	xor    %edx,%edx
    4b7f:	48 63 fe             	movslq %esi,%rdi
    4b82:	0f be 3c 38          	movsbl (%rax,%rdi,1),%edi
    4b86:	44 8d 57 d0          	lea    -0x30(%rdi),%r10d
    4b8a:	41 80 fa 09          	cmp    $0x9,%r10b
    4b8e:	77 0b                	ja     4b9b <__pyx_pymod_exec_funnybug+0x106>
    4b90:	6b d2 0a             	imul   $0xa,%edx,%edx
    4b93:	ff c6                	inc    %esi
    4b95:	8d 54 3a d0          	lea    -0x30(%rdx,%rdi,1),%edx
    4b99:	eb e4                	jmp    4b7f <__pyx_pymod_exec_funnybug+0xea>
    4b9b:	49 0f af d0          	imul   %r8,%rdx
    4b9f:	48 01 d1             	add    %rdx,%rcx
    4ba2:	40 80 ff 2e          	cmp    $0x2e,%dil
    4ba6:	75 0b                	jne    4bb3 <__pyx_pymod_exec_funnybug+0x11e>
    4ba8:	49 c1 e8 08          	shr    $0x8,%r8
    4bac:	ff c6                	inc    %esi
    4bae:	41 ff c9             	dec    %r9d
    4bb1:	75 ca                	jne    4b7d <__pyx_pymod_exec_funnybug+0xe8>
    4bb3:	48 89 c8             	mov    %rcx,%rax
    4bb6:	48 35 f0 0c 0a 03    	xor    $0x30a0cf0,%rax
    4bbc:	a9 00 00 ff ff       	test   $0xffff0000,%eax
    4bc1:	75 18                	jne    4bdb <__pyx_pymod_exec_funnybug+0x146>
    4bc3:	31 ff                	xor    %edi,%edi
    4bc5:	e8 36 ed ff ff       	call   3900 <PyTuple_New@plt>
    4bca:	48 89 05 27 ae 00 00 	mov    %rax,0xae27(%rip)        # f9f8 <__pyx_mstate_global_static+0x18>
    4bd1:	48 85 c0             	test   %rax,%rax
    4bd4:	75 71                	jne    4c47 <__pyx_pymod_exec_funnybug+0x1b2>
    4bd6:	e9 c9 05 00 00       	jmp    51a4 <__pyx_pymod_exec_funnybug+0x70f>
    4bdb:	48 89 c8             	mov    %rcx,%rax
    4bde:	48 89 e5             	mov    %rsp,%rbp
    4be1:	48 c1 e9 18          	shr    $0x18,%rcx
    4be5:	52                   	push   %rdx
    4be6:	48 c1 e8 10          	shr    $0x10,%rax
    4bea:	be c8 00 00 00       	mov    $0xc8,%esi
    4bef:	48 8d 15 2a 78 00 00 	lea    0x782a(%rip),%rdx        # c420 <_fini+0x6a8>
    4bf6:	48 89 ef             	mov    %rbp,%rdi
    4bf9:	0f b6 c0             	movzbl %al,%eax
    4bfc:	4c 8d 0d a3 7b 00 00 	lea    0x7ba3(%rip),%r9        # c7a6 <_fini+0xa2e>
    4c03:	41 b8 0a 00 00 00    	mov    $0xa,%r8d
    4c09:	50                   	push   %rax
    4c0a:	48 8d 05 5a 7b 00 00 	lea    0x7b5a(%rip),%rax        # c76b <_fini+0x9f3>
    4c11:	51                   	push   %rcx
    4c12:	b9 03 00 00 00       	mov    $0x3,%ecx
    4c17:	50                   	push   %rax
    4c18:	31 c0                	xor    %eax,%eax
    4c1a:	e8 21 ec ff ff       	call   3840 <PyOS_snprintf@plt>
    4c1f:	31 ff                	xor    %edi,%edi
    4c21:	48 89 ec             	mov    %rbp,%rsp
    4c24:	ba 01 00 00 00       	mov    $0x1,%edx
    4c29:	48 89 ee             	mov    %rbp,%rsi
    4c2c:	e8 cf ea ff ff       	call   3700 <PyErr_WarnEx@plt>
    4c31:	85 c0                	test   %eax,%eax
    4c33:	79 8e                	jns    4bc3 <__pyx_pymod_exec_funnybug+0x12e>
    4c35:	bd 56 0f 00 00       	mov    $0xf56,%ebp
    4c3a:	41 bc 01 00 00 00    	mov    $0x1,%r12d
    4c40:	31 c0                	xor    %eax,%eax
    4c42:	e9 f4 05 00 00       	jmp    523b <__pyx_pymod_exec_funnybug+0x7a6>
    4c47:	48 8d 2d de 7a 00 00 	lea    0x7ade(%rip),%rbp        # c72c <_fini+0x9b4>
    4c4e:	31 f6                	xor    %esi,%esi
    4c50:	48 89 ef             	mov    %rbp,%rdi
    4c53:	e8 78 ea ff ff       	call   36d0 <PyBytes_FromStringAndSize@plt>
    4c58:	48 89 05 a1 ad 00 00 	mov    %rax,0xada1(%rip)        # fa00 <__pyx_mstate_global_static+0x20>
    4c5f:	48 85 c0             	test   %rax,%rax
    4c62:	0f 84 4e 05 00 00    	je     51b6 <__pyx_pymod_exec_funnybug+0x721>
    4c68:	31 f6                	xor    %esi,%esi
    4c6a:	48 89 ef             	mov    %rbp,%rdi
    4c6d:	e8 2e ee ff ff       	call   3aa0 <PyUnicode_FromStringAndSize@plt>
    4c72:	48 89 05 8f ad 00 00 	mov    %rax,0xad8f(%rip)        # fa08 <__pyx_mstate_global_static+0x28>
    4c79:	48 85 c0             	test   %rax,%rax
    4c7c:	0f 84 43 05 00 00    	je     51c5 <__pyx_pymod_exec_funnybug+0x730>
    4c82:	48 8d 3d f1 7a 00 00 	lea    0x7af1(%rip),%rdi        # c77a <_fini+0xa02>
    4c89:	e8 b2 ee ff ff       	call   3b40 <__Pyx_PyImport_AddModuleRef>
    4c8e:	49 89 c4             	mov    %rax,%r12
    4c91:	48 85 c0             	test   %rax,%rax
    4c94:	75 1d                	jne    4cb3 <__pyx_pymod_exec_funnybug+0x21e>
    4c96:	bd 5e 0f 00 00       	mov    $0xf5e,%ebp
    4c9b:	41 bc 01 00 00 00    	mov    $0x1,%r12d
    4ca1:	31 c0                	xor    %eax,%eax
    4ca3:	48 c7 05 62 ad 00 00 	movq   $0x0,0xad62(%rip)        # fa10 <__pyx_mstate_global_static+0x30>
    4caa:	00 00 00 00 
    4cae:	e9 88 05 00 00       	jmp    523b <__pyx_pymod_exec_funnybug+0x7a6>
    4cb3:	4c 8b 2d 5e a6 00 00 	mov    0xa65e(%rip),%r13        # f318 <__pyx_CyFunctionType_type+0x18>
    4cba:	be 2e 00 00 00       	mov    $0x2e,%esi
    4cbf:	4c 89 ef             	mov    %r13,%rdi
    4cc2:	e8 19 eb ff ff       	call   37e0 <strrchr@plt>
    4cc7:	48 85 c0             	test   %rax,%rax
    4cca:	74 04                	je     4cd0 <__pyx_pymod_exec_funnybug+0x23b>
    4ccc:	4c 8d 68 01          	lea    0x1(%rax),%r13
    4cd0:	4c 89 ee             	mov    %r13,%rsi
    4cd3:	4c 89 e7             	mov    %r12,%rdi
    4cd6:	e8 d5 e9 ff ff       	call   36b0 <PyObject_GetAttrString@plt>
    4cdb:	48 89 c5             	mov    %rax,%rbp
    4cde:	48 85 c0             	test   %rax,%rax
    4ce1:	74 5d                	je     4d40 <__pyx_pymod_exec_funnybug+0x2ab>
    4ce3:	48 8b 4d 08          	mov    0x8(%rbp),%rcx
    4ce7:	48 8b 15 32 a6 00 00 	mov    0xa632(%rip),%rdx        # f320 <__pyx_CyFunctionType_type+0x20>
    4cee:	48 8b 40 20          	mov    0x20(%rax),%rax
    4cf2:	f6 81 ab 00 00 00 80 	testb  $0x80,0xab(%rcx)
    4cf9:	75 20                	jne    4d1b <__pyx_pymod_exec_funnybug+0x286>
    4cfb:	48 8b 05 56 a2 00 00 	mov    0xa256(%rip),%rax        # ef58 <PyExc_TypeError@Base>
    4d02:	4c 89 ea             	mov    %r13,%rdx
    4d05:	48 8d 35 64 77 00 00 	lea    0x7764(%rip),%rsi        # c470 <_fini+0x6f8>
    4d0c:	48 8b 38             	mov    (%rax),%rdi
    4d0f:	31 c0                	xor    %eax,%eax
    4d11:	e8 7a ed ff ff       	call   3a90 <PyErr_Format@plt>
    4d16:	e9 d1 05 00 00       	jmp    52ec <__pyx_pymod_exec_funnybug+0x857>
    4d1b:	48 39 c2             	cmp    %rax,%rdx
    4d1e:	74 67                	je     4d87 <__pyx_pymod_exec_funnybug+0x2f2>
    4d20:	48 8b 05 31 a2 00 00 	mov    0xa231(%rip),%rax        # ef58 <PyExc_TypeError@Base>
    4d27:	4c 89 ea             	mov    %r13,%rdx
    4d2a:	48 8d 35 6f 77 00 00 	lea    0x776f(%rip),%rsi        # c4a0 <_fini+0x728>
    4d31:	48 8b 38             	mov    (%rax),%rdi
    4d34:	31 c0                	xor    %eax,%eax
    4d36:	e8 55 ed ff ff       	call   3a90 <PyErr_Format@plt>
    4d3b:	e9 ac 05 00 00       	jmp    52ec <__pyx_pymod_exec_funnybug+0x857>
    4d40:	48 8b 05 69 a2 00 00 	mov    0xa269(%rip),%rax        # efb0 <PyExc_AttributeError@Base>
    4d47:	48 8b 38             	mov    (%rax),%rdi
    4d4a:	e8 e1 ea ff ff       	call   3830 <PyErr_ExceptionMatches@plt>
    4d4f:	85 c0                	test   %eax,%eax
    4d51:	74 34                	je     4d87 <__pyx_pymod_exec_funnybug+0x2f2>
    4d53:	e8 88 eb ff ff       	call   38e0 <PyErr_Clear@plt>
    4d58:	48 8d 1d a1 a5 00 00 	lea    0xa5a1(%rip),%rbx        # f300 <__pyx_CyFunctionType_type>
    4d5f:	48 89 df             	mov    %rbx,%rdi
    4d62:	e8 39 eb ff ff       	call   38a0 <PyType_Ready@plt>
    4d67:	85 c0                	test   %eax,%eax
    4d69:	78 1c                	js     4d87 <__pyx_pymod_exec_funnybug+0x2f2>
    4d6b:	48 89 da             	mov    %rbx,%rdx
    4d6e:	4c 89 ee             	mov    %r13,%rsi
    4d71:	4c 89 e7             	mov    %r12,%rdi
    4d74:	e8 77 e9 ff ff       	call   36f0 <PyObject_SetAttrString@plt>
    4d79:	85 c0                	test   %eax,%eax
    4d7b:	78 0a                	js     4d87 <__pyx_pymod_exec_funnybug+0x2f2>
    4d7d:	48 ff 05 7c a5 00 00 	incq   0xa57c(%rip)        # f300 <__pyx_CyFunctionType_type>
    4d84:	48 89 dd             	mov    %rbx,%rbp
    4d87:	4c 89 e7             	mov    %r12,%rdi
    4d8a:	e8 41 0b 00 00       	call   58d0 <_Py_DECREF>
    4d8f:	48 89 2d 7a ac 00 00 	mov    %rbp,0xac7a(%rip)        # fa10 <__pyx_mstate_global_static+0x30>
    4d96:	48 85 ed             	test   %rbp,%rbp
    4d99:	0f 84 35 04 00 00    	je     51d4 <__pyx_pymod_exec_funnybug+0x73f>
    4d9f:	e8 07 f1 ff ff       	call   3eab <__Pyx_CreateStringTabAndInitStrings>
    4da4:	85 c0                	test   %eax,%eax
    4da6:	79 12                	jns    4dba <__pyx_pymod_exec_funnybug+0x325>
    4da8:	bd 75 0f 00 00       	mov    $0xf75,%ebp
    4dad:	41 bc 01 00 00 00    	mov    $0x1,%r12d
    4db3:	31 c0                	xor    %eax,%eax
    4db5:	e9 81 04 00 00       	jmp    523b <__pyx_pymod_exec_funnybug+0x7a6>
    4dba:	31 ff                	xor    %edi,%edi
    4dbc:	e8 ef ea ff ff       	call   38b0 <PyLong_FromLong@plt>
    4dc1:	48 89 05 90 ad 00 00 	mov    %rax,0xad90(%rip)        # fb58 <__pyx_mstate_global_static+0x178>
    4dc8:	48 85 c0             	test   %rax,%rax
    4dcb:	74 db                	je     4da8 <__pyx_pymod_exec_funnybug+0x313>
    4dcd:	bf 01 00 00 00       	mov    $0x1,%edi
    4dd2:	e8 d9 ea ff ff       	call   38b0 <PyLong_FromLong@plt>
    4dd7:	48 89 05 82 ad 00 00 	mov    %rax,0xad82(%rip)        # fb60 <__pyx_mstate_global_static+0x180>
    4dde:	48 85 c0             	test   %rax,%rax
    4de1:	74 c5                	je     4da8 <__pyx_pymod_exec_funnybug+0x313>
    4de3:	bf 02 00 00 00       	mov    $0x2,%edi
    4de8:	e8 c3 ea ff ff       	call   38b0 <PyLong_FromLong@plt>
    4ded:	48 89 05 74 ad 00 00 	mov    %rax,0xad74(%rip)        # fb68 <__pyx_mstate_global_static+0x188>
    4df4:	48 85 c0             	test   %rax,%rax
    4df7:	74 af                	je     4da8 <__pyx_pymod_exec_funnybug+0x313>
    4df9:	48 8b 05 20 a1 00 00 	mov    0xa120(%rip),%rax        # ef20 <__pyx_module_is_main_funnybug@@Base-0xa40>
    4e00:	83 38 00             	cmpl   $0x0,(%rax)
    4e03:	75 13                	jne    4e18 <__pyx_pymod_exec_funnybug+0x383>
    4e05:	e8 56 e9 ff ff       	call   3760 <PyImport_GetModuleDict@plt>
    4e0a:	48 89 c5             	mov    %rax,%rbp
    4e0d:	48 85 c0             	test   %rax,%rax
    4e10:	0f 84 cd 03 00 00    	je     51e3 <__pyx_pymod_exec_funnybug+0x74e>
    4e16:	eb 33                	jmp    4e4b <__pyx_pymod_exec_funnybug+0x3b6>
    4e18:	48 8b 15 c9 ac 00 00 	mov    0xacc9(%rip),%rdx        # fae8 <__pyx_mstate_global_static+0x108>
    4e1f:	48 8b 35 e2 ac 00 00 	mov    0xace2(%rip),%rsi        # fb08 <__pyx_mstate_global_static+0x128>
    4e26:	48 8b 3d 83 ad 00 00 	mov    0xad83(%rip),%rdi        # fbb0 <__pyx_m>
    4e2d:	e8 ee ea ff ff       	call   3920 <PyObject_SetAttr@plt>
    4e32:	85 c0                	test   %eax,%eax
    4e34:	79 cf                	jns    4e05 <__pyx_pymod_exec_funnybug+0x370>
    4e36:	bd 7c 0f 00 00       	mov    $0xf7c,%ebp
    4e3b:	41 bc 01 00 00 00    	mov    $0x1,%r12d
    4e41:	b8 01 00 00 00       	mov    $0x1,%eax
    4e46:	e9 f0 03 00 00       	jmp    523b <__pyx_pymod_exec_funnybug+0x7a6>
    4e4b:	4c 8d 25 54 79 00 00 	lea    0x7954(%rip),%r12        # c7a6 <_fini+0xa2e>
    4e52:	48 89 c7             	mov    %rax,%rdi
    4e55:	4c 89 e6             	mov    %r12,%rsi
    4e58:	e8 23 eb ff ff       	call   3980 <PyDict_GetItemString@plt>
    4e5d:	48 85 c0             	test   %rax,%rax
    4e60:	74 13                	je     4e75 <__pyx_pymod_exec_funnybug+0x3e0>
    4e62:	48 8b 3d 1f ac 00 00 	mov    0xac1f(%rip),%rdi        # fa88 <__pyx_mstate_global_static+0xa8>
    4e69:	e8 e2 2f 00 00       	call   7e50 <__Pyx_GetBuiltinName>
    4e6e:	48 85 c0             	test   %rax,%rax
    4e71:	74 45                	je     4eb8 <__pyx_pymod_exec_funnybug+0x423>
    4e73:	eb 2b                	jmp    4ea0 <__pyx_pymod_exec_funnybug+0x40b>
    4e75:	48 8b 15 34 ad 00 00 	mov    0xad34(%rip),%rdx        # fbb0 <__pyx_m>
    4e7c:	4c 89 e6             	mov    %r12,%rsi
    4e7f:	48 89 ef             	mov    %rbp,%rdi
    4e82:	e8 69 e7 ff ff       	call   35f0 <PyDict_SetItemString@plt>
    4e87:	85 c0                	test   %eax,%eax
    4e89:	79 d7                	jns    4e62 <__pyx_pymod_exec_funnybug+0x3cd>
    4e8b:	bd 82 0f 00 00       	mov    $0xf82,%ebp
    4e90:	41 bc 01 00 00 00    	mov    $0x1,%r12d
    4e96:	b8 01 00 00 00       	mov    $0x1,%eax
    4e9b:	e9 9b 03 00 00       	jmp    523b <__pyx_pymod_exec_funnybug+0x7a6>
    4ea0:	48 8b 3d 51 ac 00 00 	mov    0xac51(%rip),%rdi        # faf8 <__pyx_mstate_global_static+0x118>
    4ea7:	e8 a4 2f 00 00       	call   7e50 <__Pyx_GetBuiltinName>
    4eac:	48 89 05 e5 ac 00 00 	mov    %rax,0xace5(%rip)        # fb98 <__pyx_builtin_max>
    4eb3:	48 85 c0             	test   %rax,%rax
    4eb6:	75 15                	jne    4ecd <__pyx_pymod_exec_funnybug+0x438>
    4eb8:	bd 87 0f 00 00       	mov    $0xf87,%ebp
    4ebd:	41 bc 01 00 00 00    	mov    $0x1,%r12d
    4ec3:	b8 01 00 00 00       	mov    $0x1,%eax
    4ec8:	e9 6e 03 00 00       	jmp    523b <__pyx_pymod_exec_funnybug+0x7a6>
    4ecd:	48 8b 3d 2c ac 00 00 	mov    0xac2c(%rip),%rdi        # fb00 <__pyx_mstate_global_static+0x120>
    4ed4:	e8 77 2f 00 00       	call   7e50 <__Pyx_GetBuiltinName>
    4ed9:	48 89 05 b0 ac 00 00 	mov    %rax,0xacb0(%rip)        # fb90 <__pyx_builtin_min>
    4ee0:	48 85 c0             	test   %rax,%rax
    4ee3:	74 d3                	je     4eb8 <__pyx_pymod_exec_funnybug+0x423>
    4ee5:	48 8b 3d 3c ac 00 00 	mov    0xac3c(%rip),%rdi        # fb28 <__pyx_mstate_global_static+0x148>
    4eec:	e8 5f 2f 00 00       	call   7e50 <__Pyx_GetBuiltinName>
    4ef1:	48 85 c0             	test   %rax,%rax
    4ef4:	74 c2                	je     4eb8 <__pyx_pymod_exec_funnybug+0x423>
    4ef6:	50                   	push   %rax
    4ef7:	bf 0e 00 00 00       	mov    $0xe,%edi
    4efc:	31 c0                	xor    %eax,%eax
    4efe:	ff 35 4c ac 00 00    	push   0xac4c(%rip)        # fb50 <__pyx_mstate_global_static+0x170>
    4f04:	ff 35 36 ac 00 00    	push   0xac36(%rip)        # fb40 <__pyx_mstate_global_static+0x160>
    4f0a:	ff 35 20 ac 00 00    	push   0xac20(%rip)        # fb30 <__pyx_mstate_global_static+0x150>
    4f10:	ff 35 2a ab 00 00    	push   0xab2a(%rip)        # fa40 <__pyx_mstate_global_static+0x60>
    4f16:	ff 35 3c ab 00 00    	push   0xab3c(%rip)        # fa58 <__pyx_mstate_global_static+0x78>
    4f1c:	ff 35 ee ab 00 00    	push   0xabee(%rip)        # fb10 <__pyx_mstate_global_static+0x130>
    4f22:	ff 35 a0 ab 00 00    	push   0xaba0(%rip)        # fac8 <__pyx_mstate_global_static+0xe8>
    4f28:	ff 35 f2 ab 00 00    	push   0xabf2(%rip)        # fb20 <__pyx_mstate_global_static+0x140>
    4f2e:	ff 35 34 ab 00 00    	push   0xab34(%rip)        # fa68 <__pyx_mstate_global_static+0x88>
    4f34:	4c 8b 0d 75 ab 00 00 	mov    0xab75(%rip),%r9        # fab0 <__pyx_mstate_global_static+0xd0>
    4f3b:	4c 8b 05 96 ab 00 00 	mov    0xab96(%rip),%r8        # fad8 <__pyx_mstate_global_static+0xf8>
    4f42:	48 8b 0d 5f ab 00 00 	mov    0xab5f(%rip),%rcx        # faa8 <__pyx_mstate_global_static+0xc8>
    4f49:	48 8b 15 10 ab 00 00 	mov    0xab10(%rip),%rdx        # fa60 <__pyx_mstate_global_static+0x80>
    4f50:	48 8b 35 89 ab 00 00 	mov    0xab89(%rip),%rsi        # fae0 <__pyx_mstate_global_static+0x100>
    4f57:	e8 94 eb ff ff       	call   3af0 <PyTuple_Pack@plt>
    4f5c:	48 83 c4 50          	add    $0x50,%rsp
    4f60:	48 89 05 09 ac 00 00 	mov    %rax,0xac09(%rip)        # fb70 <__pyx_mstate_global_static+0x190>
    4f67:	48 85 c0             	test   %rax,%rax
    4f6a:	75 15                	jne    4f81 <__pyx_pymod_exec_funnybug+0x4ec>
    4f6c:	bd 89 0f 00 00       	mov    $0xf89,%ebp
    4f71:	41 bc 01 00 00 00    	mov    $0x1,%r12d
    4f77:	b8 01 00 00 00       	mov    $0x1,%eax
    4f7c:	e9 ba 02 00 00       	jmp    523b <__pyx_pymod_exec_funnybug+0x7a6>
    4f81:	41 b9 03 00 00 00    	mov    $0x3,%r9d
    4f87:	45 31 c0             	xor    %r8d,%r8d
    4f8a:	31 f6                	xor    %esi,%esi
    4f8c:	bf 02 00 00 00       	mov    $0x2,%edi
    4f91:	48 8b 0d 68 aa 00 00 	mov    0xaa68(%rip),%rcx        # fa00 <__pyx_mstate_global_static+0x20>
    4f98:	48 8b 15 59 aa 00 00 	mov    0xaa59(%rip),%rdx        # f9f8 <__pyx_mstate_global_static+0x18>
    4f9f:	51                   	push   %rcx
    4fa0:	6a 0f                	push   $0xf
    4fa2:	ff 35 90 ab 00 00    	push   0xab90(%rip)        # fb38 <__pyx_mstate_global_static+0x158>
    4fa8:	ff 35 82 aa 00 00    	push   0xaa82(%rip)        # fa30 <__pyx_mstate_global_static+0x50>
    4fae:	52                   	push   %rdx
    4faf:	52                   	push   %rdx
    4fb0:	50                   	push   %rax
    4fb1:	52                   	push   %rdx
    4fb2:	52                   	push   %rdx
    4fb3:	31 d2                	xor    %edx,%edx
    4fb5:	51                   	push   %rcx
    4fb6:	b9 0e 00 00 00       	mov    $0xe,%ecx
    4fbb:	e8 40 eb ff ff       	call   3b00 <PyCode_NewWithPosOnlyArgs@plt>
    4fc0:	48 83 c4 50          	add    $0x50,%rsp
    4fc4:	48 89 05 b5 ab 00 00 	mov    %rax,0xabb5(%rip)        # fb80 <__pyx_mstate_global_static+0x1a0>
    4fcb:	48 85 c0             	test   %rax,%rax
    4fce:	74 9c                	je     4f6c <__pyx_pymod_exec_funnybug+0x4d7>
    4fd0:	48 8b 15 b9 aa 00 00 	mov    0xaab9(%rip),%rdx        # fa90 <__pyx_mstate_global_static+0xb0>
    4fd7:	48 8b 35 c2 aa 00 00 	mov    0xaac2(%rip),%rsi        # faa0 <__pyx_mstate_global_static+0xc0>
    4fde:	bf 02 00 00 00       	mov    $0x2,%edi
    4fe3:	31 c0                	xor    %eax,%eax
    4fe5:	e8 06 eb ff ff       	call   3af0 <PyTuple_Pack@plt>
    4fea:	48 89 05 87 ab 00 00 	mov    %rax,0xab87(%rip)        # fb78 <__pyx_mstate_global_static+0x198>
    4ff1:	48 85 c0             	test   %rax,%rax
    4ff4:	0f 84 72 ff ff ff    	je     4f6c <__pyx_pymod_exec_funnybug+0x4d7>
    4ffa:	48 8b 0d ff a9 00 00 	mov    0xa9ff(%rip),%rcx        # fa00 <__pyx_mstate_global_static+0x20>
    5001:	45 31 c0             	xor    %r8d,%r8d
    5004:	31 f6                	xor    %esi,%esi
    5006:	31 ff                	xor    %edi,%edi
    5008:	48 8b 15 e9 a9 00 00 	mov    0xa9e9(%rip),%rdx        # f9f8 <__pyx_mstate_global_static+0x18>
    500f:	41 b9 03 00 00 00    	mov    $0x3,%r9d
    5015:	51                   	push   %rcx
    5016:	6a 2c                	push   $0x2c
    5018:	ff 35 d2 aa 00 00    	push   0xaad2(%rip)        # faf0 <__pyx_mstate_global_static+0x110>
    501e:	ff 35 0c aa 00 00    	push   0xaa0c(%rip)        # fa30 <__pyx_mstate_global_static+0x50>
    5024:	52                   	push   %rdx
    5025:	52                   	push   %rdx
    5026:	50                   	push   %rax
    5027:	52                   	push   %rdx
    5028:	52                   	push   %rdx
    5029:	31 d2                	xor    %edx,%edx
    502b:	51                   	push   %rcx
    502c:	b9 02 00 00 00       	mov    $0x2,%ecx
    5031:	e8 ca ea ff ff       	call   3b00 <PyCode_NewWithPosOnlyArgs@plt>
    5036:	48 83 c4 50          	add    $0x50,%rsp
    503a:	48 89 05 47 ab 00 00 	mov    %rax,0xab47(%rip)        # fb88 <__pyx_mstate_global_static+0x1a8>
    5041:	48 85 c0             	test   %rax,%rax
    5044:	0f 84 22 ff ff ff    	je     4f6c <__pyx_pymod_exec_funnybug+0x4d7>
    504a:	48 8b 15 cf a9 00 00 	mov    0xa9cf(%rip),%rdx        # fa20 <__pyx_mstate_global_static+0x40>
    5051:	48 8b 35 88 aa 00 00 	mov    0xaa88(%rip),%rsi        # fae0 <__pyx_mstate_global_static+0x100>
    5058:	48 8b 3d 81 a9 00 00 	mov    0xa981(%rip),%rdi        # f9e0 <__pyx_mstate_global_static>
    505f:	e8 fc e9 ff ff       	call   3a60 <PyDict_SetItem@plt>
    5064:	85 c0                	test   %eax,%eax
    5066:	0f 88 89 01 00 00    	js     51f5 <__pyx_pymod_exec_funnybug+0x760>
    506c:	4c 8b 05 0d ab 00 00 	mov    0xab0d(%rip),%r8        # fb80 <__pyx_mstate_global_static+0x1a0>
    5073:	48 8b 0d 66 a9 00 00 	mov    0xa966(%rip),%rcx        # f9e0 <__pyx_mstate_global_static>
    507a:	48 8d 3d 9f a8 00 00 	lea    0xa89f(%rip),%rdi        # f920 <__pyx_mdef_8funnybug_1solve>
    5081:	48 8b 15 10 aa 00 00 	mov    0xaa10(%rip),%rdx        # fa98 <__pyx_mstate_global_static+0xb8>
    5088:	48 8b 35 a9 aa 00 00 	mov    0xaaa9(%rip),%rsi        # fb38 <__pyx_mstate_global_static+0x158>
    508f:	e8 89 ec ff ff       	call   3d1d <__Pyx_CyFunction_New.constprop.0>
    5094:	49 89 c5             	mov    %rax,%r13
    5097:	48 85 c0             	test   %rax,%rax
    509a:	0f 84 67 01 00 00    	je     5207 <__pyx_pymod_exec_funnybug+0x772>
    50a0:	48 8b 35 91 aa 00 00 	mov    0xaa91(%rip),%rsi        # fb38 <__pyx_mstate_global_static+0x158>
    50a7:	48 8b 3d 32 a9 00 00 	mov    0xa932(%rip),%rdi        # f9e0 <__pyx_mstate_global_static>
    50ae:	48 89 c2             	mov    %rax,%rdx
    50b1:	e8 aa e9 ff ff       	call   3a60 <PyDict_SetItem@plt>
    50b6:	85 c0                	test   %eax,%eax
    50b8:	0f 88 f7 01 00 00    	js     52b5 <__pyx_pymod_exec_funnybug+0x820>
    50be:	4c 89 ef             	mov    %r13,%rdi
    50c1:	e8 0a 08 00 00       	call   58d0 <_Py_DECREF>
    50c6:	4c 8b 05 bb aa 00 00 	mov    0xaabb(%rip),%r8        # fb88 <__pyx_mstate_global_static+0x1a8>
    50cd:	48 8b 0d 0c a9 00 00 	mov    0xa90c(%rip),%rcx        # f9e0 <__pyx_mstate_global_static>
    50d4:	48 8d 3d 25 a8 00 00 	lea    0xa825(%rip),%rdi        # f900 <__pyx_mdef_8funnybug_3main>
    50db:	48 8b 15 b6 a9 00 00 	mov    0xa9b6(%rip),%rdx        # fa98 <__pyx_mstate_global_static+0xb8>
    50e2:	48 8b 35 07 aa 00 00 	mov    0xaa07(%rip),%rsi        # faf0 <__pyx_mstate_global_static+0x110>
    50e9:	e8 2f ec ff ff       	call   3d1d <__Pyx_CyFunction_New.constprop.0>
    50ee:	49 89 c5             	mov    %rax,%r13
    50f1:	48 85 c0             	test   %rax,%rax
    50f4:	0f 84 1f 01 00 00    	je     5219 <__pyx_pymod_exec_funnybug+0x784>
    50fa:	48 8b 35 ef a9 00 00 	mov    0xa9ef(%rip),%rsi        # faf0 <__pyx_mstate_global_static+0x110>
    5101:	48 8b 3d d8 a8 00 00 	mov    0xa8d8(%rip),%rdi        # f9e0 <__pyx_mstate_global_static>
    5108:	48 89 c2             	mov    %rax,%rdx
    510b:	e8 50 e9 ff ff       	call   3a60 <PyDict_SetItem@plt>
    5110:	85 c0                	test   %eax,%eax
    5112:	0f 88 aa 01 00 00    	js     52c2 <__pyx_pymod_exec_funnybug+0x82d>
    5118:	4c 89 ef             	mov    %r13,%rdi
    511b:	e8 b0 07 00 00       	call   58d0 <_Py_DECREF>
    5120:	e8 cb e8 ff ff       	call   39f0 <PyDict_New@plt>
    5125:	49 89 c5             	mov    %rax,%r13
    5128:	48 85 c0             	test   %rax,%rax
    512b:	0f 84 fa 00 00 00    	je     522b <__pyx_pymod_exec_funnybug+0x796>
    5131:	48 8b 35 10 aa 00 00 	mov    0xaa10(%rip),%rsi        # fb48 <__pyx_mstate_global_static+0x168>
    5138:	48 8b 3d a1 a8 00 00 	mov    0xa8a1(%rip),%rdi        # f9e0 <__pyx_mstate_global_static>
    513f:	48 89 c2             	mov    %rax,%rdx
    5142:	e8 19 e9 ff ff       	call   3a60 <PyDict_SetItem@plt>
    5147:	85 c0                	test   %eax,%eax
    5149:	0f 88 80 01 00 00    	js     52cf <__pyx_pymod_exec_funnybug+0x83a>
    514f:	4c 89 ef             	mov    %r13,%rdi
    5152:	e8 79 07 00 00       	call   58d0 <_Py_DECREF>
    5157:	e9 4d 01 00 00       	jmp    52a9 <__pyx_pymod_exec_funnybug+0x814>
    515c:	bd 47 0f 00 00       	mov    $0xf47,%ebp
    5161:	41 bc 01 00 00 00    	mov    $0x1,%r12d
    5167:	31 c0                	xor    %eax,%eax
    5169:	e9 cd 00 00 00       	jmp    523b <__pyx_pymod_exec_funnybug+0x7a6>
    516e:	bd 49 0f 00 00       	mov    $0xf49,%ebp
    5173:	41 bc 01 00 00 00    	mov    $0x1,%r12d
    5179:	31 c0                	xor    %eax,%eax
    517b:	e9 bb 00 00 00       	jmp    523b <__pyx_pymod_exec_funnybug+0x7a6>
    5180:	bd 4a 0f 00 00       	mov    $0xf4a,%ebp
    5185:	41 bc 01 00 00 00    	mov    $0x1,%r12d
    518b:	31 c0                	xor    %eax,%eax
    518d:	e9 a9 00 00 00       	jmp    523b <__pyx_pymod_exec_funnybug+0x7a6>
    5192:	bd 4b 0f 00 00       	mov    $0xf4b,%ebp
    5197:	41 bc 01 00 00 00    	mov    $0x1,%r12d
    519d:	31 c0                	xor    %eax,%eax
    519f:	e9 97 00 00 00       	jmp    523b <__pyx_pymod_exec_funnybug+0x7a6>
    51a4:	bd 5a 0f 00 00       	mov    $0xf5a,%ebp
    51a9:	41 bc 01 00 00 00    	mov    $0x1,%r12d
    51af:	31 c0                	xor    %eax,%eax
    51b1:	e9 85 00 00 00       	jmp    523b <__pyx_pymod_exec_funnybug+0x7a6>
    51b6:	bd 5b 0f 00 00       	mov    $0xf5b,%ebp
    51bb:	41 bc 01 00 00 00    	mov    $0x1,%r12d
    51c1:	31 c0                	xor    %eax,%eax
    51c3:	eb 76                	jmp    523b <__pyx_pymod_exec_funnybug+0x7a6>
    51c5:	bd 5c 0f 00 00       	mov    $0xf5c,%ebp
    51ca:	41 bc 01 00 00 00    	mov    $0x1,%r12d
    51d0:	31 c0                	xor    %eax,%eax
    51d2:	eb 67                	jmp    523b <__pyx_pymod_exec_funnybug+0x7a6>
    51d4:	bd 5e 0f 00 00       	mov    $0xf5e,%ebp
    51d9:	41 bc 01 00 00 00    	mov    $0x1,%r12d
    51df:	31 c0                	xor    %eax,%eax
    51e1:	eb 58                	jmp    523b <__pyx_pymod_exec_funnybug+0x7a6>
    51e3:	bd 80 0f 00 00       	mov    $0xf80,%ebp
    51e8:	41 bc 01 00 00 00    	mov    $0x1,%r12d
    51ee:	b8 01 00 00 00       	mov    $0x1,%eax
    51f3:	eb 46                	jmp    523b <__pyx_pymod_exec_funnybug+0x7a6>
    51f5:	bd 9c 0f 00 00       	mov    $0xf9c,%ebp
    51fa:	41 bc 01 00 00 00    	mov    $0x1,%r12d
    5200:	b8 01 00 00 00       	mov    $0x1,%eax
    5205:	eb 34                	jmp    523b <__pyx_pymod_exec_funnybug+0x7a6>
    5207:	bd a5 0f 00 00       	mov    $0xfa5,%ebp
    520c:	41 bc 0f 00 00 00    	mov    $0xf,%r12d
    5212:	b8 01 00 00 00       	mov    $0x1,%eax
    5217:	eb 22                	jmp    523b <__pyx_pymod_exec_funnybug+0x7a6>
    5219:	bd b1 0f 00 00       	mov    $0xfb1,%ebp
    521e:	41 bc 2c 00 00 00    	mov    $0x2c,%r12d
    5224:	b8 01 00 00 00       	mov    $0x1,%eax
    5229:	eb 10                	jmp    523b <__pyx_pymod_exec_funnybug+0x7a6>
    522b:	bd bb 0f 00 00       	mov    $0xfbb,%ebp
    5230:	41 bc 01 00 00 00    	mov    $0x1,%r12d
    5236:	b8 01 00 00 00       	mov    $0x1,%eax
    523b:	48 83 3d 6d a9 00 00 	cmpq   $0x0,0xa96d(%rip)        # fbb0 <__pyx_m>
    5242:	00 
    5243:	74 44                	je     5289 <__pyx_pymod_exec_funnybug+0x7f4>
    5245:	48 83 3d 93 a7 00 00 	cmpq   $0x0,0xa793(%rip)        # f9e0 <__pyx_mstate_global_static>
    524c:	00 
    524d:	74 1c                	je     526b <__pyx_pymod_exec_funnybug+0x7d6>
    524f:	85 c0                	test   %eax,%eax
    5251:	74 18                	je     526b <__pyx_pymod_exec_funnybug+0x7d6>
    5253:	48 8d 0d 2f 75 00 00 	lea    0x752f(%rip),%rcx        # c789 <_fini+0xa11>
    525a:	44 89 e2             	mov    %r12d,%edx
    525d:	89 ee                	mov    %ebp,%esi
    525f:	48 8d 3d 3b 75 00 00 	lea    0x753b(%rip),%rdi        # c7a1 <_fini+0xa29>
    5266:	e8 45 24 00 00       	call   76b0 <__Pyx_AddTraceback>
    526b:	48 8b 3d 3e a9 00 00 	mov    0xa93e(%rip),%rdi        # fbb0 <__pyx_m>
    5272:	48 85 ff             	test   %rdi,%rdi
    5275:	74 32                	je     52a9 <__pyx_pymod_exec_funnybug+0x814>
    5277:	48 c7 05 2e a9 00 00 	movq   $0x0,0xa92e(%rip)        # fbb0 <__pyx_m>
    527e:	00 00 00 00 
    5282:	e8 49 06 00 00       	call   58d0 <_Py_DECREF>
    5287:	eb 20                	jmp    52a9 <__pyx_pymod_exec_funnybug+0x814>
    5289:	e8 a2 e6 ff ff       	call   3930 <PyErr_Occurred@plt>
    528e:	48 85 c0             	test   %rax,%rax
    5291:	75 16                	jne    52a9 <__pyx_pymod_exec_funnybug+0x814>
    5293:	48 8b 05 0e 9d 00 00 	mov    0x9d0e(%rip),%rax        # efa8 <PyExc_ImportError@Base>
    529a:	48 8d 35 00 75 00 00 	lea    0x7500(%rip),%rsi        # c7a1 <_fini+0xa29>
    52a1:	48 8b 38             	mov    (%rax),%rdi
    52a4:	e8 f7 e4 ff ff       	call   37a0 <PyErr_SetString@plt>
    52a9:	48 83 3d ff a8 00 00 	cmpq   $0x1,0xa8ff(%rip)        # fbb0 <__pyx_m>
    52b0:	01 
    52b1:	19 c0                	sbb    %eax,%eax
    52b3:	eb 46                	jmp    52fb <__pyx_pymod_exec_funnybug+0x866>
    52b5:	bd a7 0f 00 00       	mov    $0xfa7,%ebp
    52ba:	41 bc 0f 00 00 00    	mov    $0xf,%r12d
    52c0:	eb 18                	jmp    52da <__pyx_pymod_exec_funnybug+0x845>
    52c2:	bd b3 0f 00 00       	mov    $0xfb3,%ebp
    52c7:	41 bc 2c 00 00 00    	mov    $0x2c,%r12d
    52cd:	eb 0b                	jmp    52da <__pyx_pymod_exec_funnybug+0x845>
    52cf:	bd bd 0f 00 00       	mov    $0xfbd,%ebp
    52d4:	41 bc 01 00 00 00    	mov    $0x1,%r12d
    52da:	4c 89 ef             	mov    %r13,%rdi
    52dd:	e8 ee 05 00 00       	call   58d0 <_Py_DECREF>
    52e2:	b8 01 00 00 00       	mov    $0x1,%eax
    52e7:	e9 4f ff ff ff       	jmp    523b <__pyx_pymod_exec_funnybug+0x7a6>
    52ec:	48 89 ef             	mov    %rbp,%rdi
    52ef:	31 ed                	xor    %ebp,%ebp
    52f1:	e8 da 05 00 00       	call   58d0 <_Py_DECREF>
    52f6:	e9 8c fa ff ff       	jmp    4d87 <__pyx_pymod_exec_funnybug+0x2f2>
    52fb:	48 8b 94 24 c8 00 00 	mov    0xc8(%rsp),%rdx
    5302:	00 
    5303:	64 48 2b 14 25 28 00 	sub    %fs:0x28,%rdx
    530a:	00 00 
    530c:	74 05                	je     5313 <__pyx_pymod_exec_funnybug+0x87e>
    530e:	e8 6d e4 ff ff       	call   3780 <__stack_chk_fail@plt>
    5313:	48 81 c4 d8 00 00 00 	add    $0xd8,%rsp
    531a:	5b                   	pop    %rbx
    531b:	5d                   	pop    %rbp
    531c:	41 5c                	pop    %r12
    531e:	41 5d                	pop    %r13
    5320:	c3                   	ret    

0000000000005321 <PyInit_funnybug>:
    5321:	f3 0f 1e fa          	endbr64 
    5325:	48 8d 3d 14 a5 00 00 	lea    0xa514(%rip),%rdi        # f840 <__pyx_moduledef>
    532c:	e9 1f e3 ff ff       	jmp    3650 <PyModuleDef_Init@plt>
    5331:	66 2e 0f 1f 84 00 00 	cs nopw 0x0(%rax,%rax,1)
    5338:	00 00 00 
    533b:	0f 1f 44 00 00       	nopl   0x0(%rax,%rax,1)

0000000000005340 <deregister_tm_clones>:
    5340:	48 8d 3d f9 a5 00 00 	lea    0xa5f9(%rip),%rdi        # f940 <completed.0>
    5347:	48 8d 05 f2 a5 00 00 	lea    0xa5f2(%rip),%rax        # f940 <completed.0>
    534e:	48 39 f8             	cmp    %rdi,%rax
    5351:	74 15                	je     5368 <deregister_tm_clones+0x28>
    5353:	48 8b 05 de 9b 00 00 	mov    0x9bde(%rip),%rax        # ef38 <_ITM_deregisterTMCloneTable@Base>
    535a:	48 85 c0             	test   %rax,%rax
    535d:	74 09                	je     5368 <deregister_tm_clones+0x28>
    535f:	ff e0                	jmp    *%rax
    5361:	0f 1f 80 00 00 00 00 	nopl   0x0(%rax)
    5368:	c3                   	ret    
    5369:	0f 1f 80 00 00 00 00 	nopl   0x0(%rax)

0000000000005370 <register_tm_clones>:
    5370:	48 8d 3d c9 a5 00 00 	lea    0xa5c9(%rip),%rdi        # f940 <completed.0>
    5377:	48 8d 35 c2 a5 00 00 	lea    0xa5c2(%rip),%rsi        # f940 <completed.0>
    537e:	48 29 fe             	sub    %rdi,%rsi
    5381:	48 89 f0             	mov    %rsi,%rax
    5384:	48 c1 ee 3f          	shr    $0x3f,%rsi
    5388:	48 c1 f8 03          	sar    $0x3,%rax
    538c:	48 01 c6             	add    %rax,%rsi
    538f:	48 d1 fe             	sar    %rsi
    5392:	74 14                	je     53a8 <register_tm_clones+0x38>
    5394:	48 8b 05 3d 9c 00 00 	mov    0x9c3d(%rip),%rax        # efd8 <_ITM_registerTMCloneTable@Base>
    539b:	48 85 c0             	test   %rax,%rax
    539e:	74 08                	je     53a8 <register_tm_clones+0x38>
    53a0:	ff e0                	jmp    *%rax
    53a2:	66 0f 1f 44 00 00    	nopw   0x0(%rax,%rax,1)
    53a8:	c3                   	ret    
    53a9:	0f 1f 80 00 00 00 00 	nopl   0x0(%rax)

00000000000053b0 <__do_global_dtors_aux>:
    53b0:	f3 0f 1e fa          	endbr64 
    53b4:	80 3d 85 a5 00 00 00 	cmpb   $0x0,0xa585(%rip)        # f940 <completed.0>
    53bb:	75 2b                	jne    53e8 <__do_global_dtors_aux+0x38>
    53bd:	55                   	push   %rbp
    53be:	48 83 3d 22 9c 00 00 	cmpq   $0x0,0x9c22(%rip)        # efe8 <__cxa_finalize@GLIBC_2.2.5>
    53c5:	00 
    53c6:	48 89 e5             	mov    %rsp,%rbp
    53c9:	74 0c                	je     53d7 <__do_global_dtors_aux+0x27>
    53cb:	48 8b 3d 0e 9f 00 00 	mov    0x9f0e(%rip),%rdi        # f2e0 <__dso_handle>
    53d2:	e8 d9 e1 ff ff       	call   35b0 <__cxa_finalize@plt>
    53d7:	e8 64 ff ff ff       	call   5340 <deregister_tm_clones>
    53dc:	c6 05 5d a5 00 00 01 	movb   $0x1,0xa55d(%rip)        # f940 <completed.0>
    53e3:	5d                   	pop    %rbp
    53e4:	c3                   	ret    
    53e5:	0f 1f 00             	nopl   (%rax)
    53e8:	c3                   	ret    
    53e9:	0f 1f 80 00 00 00 00 	nopl   0x0(%rax)

00000000000053f0 <frame_dummy>:
    53f0:	f3 0f 1e fa          	endbr64 
    53f4:	e9 77 ff ff ff       	jmp    5370 <register_tm_clones>
    53f9:	0f 1f 80 00 00 00 00 	nopl   0x0(%rax)

0000000000005400 <__Pyx_CyFunction_get_qualname>:
    5400:	f3 0f 1e fa          	endbr64 
    5404:	48 8b 47 50          	mov    0x50(%rdi),%rax
    5408:	48 83 00 01          	addq   $0x1,(%rax)
    540c:	c3                   	ret    
    540d:	0f 1f 00             	nopl   (%rax)

0000000000005410 <__Pyx_CyFunction_get_globals>:
    5410:	f3 0f 1e fa          	endbr64 
    5414:	48 8b 47 60          	mov    0x60(%rdi),%rax
    5418:	48 83 00 01          	addq   $0x1,(%rax)
    541c:	c3                   	ret    
    541d:	0f 1f 00             	nopl   (%rax)

0000000000005420 <__Pyx_CyFunction_get_closure>:
    5420:	f3 0f 1e fa          	endbr64 
    5424:	48 8b 05 55 9b 00 00 	mov    0x9b55(%rip),%rax        # ef80 <_Py_NoneStruct@Base>
    542b:	48 83 00 01          	addq   $0x1,(%rax)
    542f:	c3                   	ret    

0000000000005430 <__Pyx_CyFunction_get_code>:
    5430:	f3 0f 1e fa          	endbr64 
    5434:	48 8b 47 68          	mov    0x68(%rdi),%rax
    5438:	48 85 c0             	test   %rax,%rax
    543b:	74 0b                	je     5448 <__Pyx_CyFunction_get_code+0x18>
    543d:	48 83 00 01          	addq   $0x1,(%rax)
    5441:	c3                   	ret    
    5442:	66 0f 1f 44 00 00    	nopw   0x0(%rax,%rax,1)
    5448:	48 8b 05 31 9b 00 00 	mov    0x9b31(%rip),%rax        # ef80 <_Py_NoneStruct@Base>
    544f:	48 83 00 01          	addq   $0x1,(%rax)
    5453:	c3                   	ret    
    5454:	66 66 2e 0f 1f 84 00 	data16 cs nopw 0x0(%rax,%rax,1)
    545b:	00 00 00 00 
    545f:	90                   	nop

0000000000005460 <__Pyx_CyFunction_traverse>:
    5460:	f3 0f 1e fa          	endbr64 
    5464:	41 56                	push   %r14
    5466:	41 55                	push   %r13
    5468:	41 54                	push   %r12
    546a:	49 89 d4             	mov    %rdx,%r12
    546d:	55                   	push   %rbp
    546e:	48 89 f5             	mov    %rsi,%rbp
    5471:	53                   	push   %rbx
    5472:	48 89 fb             	mov    %rdi,%rbx
    5475:	48 8b 7f 70          	mov    0x70(%rdi),%rdi
    5479:	48 85 ff             	test   %rdi,%rdi
    547c:	74 0d                	je     548b <__Pyx_CyFunction_traverse+0x2b>
    547e:	48 89 d6             	mov    %rdx,%rsi
    5481:	ff d5                	call   *%rbp
    5483:	85 c0                	test   %eax,%eax
    5485:	0f 85 2a 01 00 00    	jne    55b5 <__Pyx_CyFunction_traverse+0x155>
    548b:	48 8b 7b 20          	mov    0x20(%rbx),%rdi
    548f:	48 85 ff             	test   %rdi,%rdi
    5492:	74 0d                	je     54a1 <__Pyx_CyFunction_traverse+0x41>
    5494:	4c 89 e6             	mov    %r12,%rsi
    5497:	ff d5                	call   *%rbp
    5499:	85 c0                	test   %eax,%eax
    549b:	0f 85 14 01 00 00    	jne    55b5 <__Pyx_CyFunction_traverse+0x155>
    54a1:	48 8b 7b 40          	mov    0x40(%rbx),%rdi
    54a5:	48 85 ff             	test   %rdi,%rdi
    54a8:	74 0d                	je     54b7 <__Pyx_CyFunction_traverse+0x57>
    54aa:	4c 89 e6             	mov    %r12,%rsi
    54ad:	ff d5                	call   *%rbp
    54af:	85 c0                	test   %eax,%eax
    54b1:	0f 85 fe 00 00 00    	jne    55b5 <__Pyx_CyFunction_traverse+0x155>
    54b7:	48 8b 7b 48          	mov    0x48(%rbx),%rdi
    54bb:	48 85 ff             	test   %rdi,%rdi
    54be:	74 0d                	je     54cd <__Pyx_CyFunction_traverse+0x6d>
    54c0:	4c 89 e6             	mov    %r12,%rsi
    54c3:	ff d5                	call   *%rbp
    54c5:	85 c0                	test   %eax,%eax
    54c7:	0f 85 e8 00 00 00    	jne    55b5 <__Pyx_CyFunction_traverse+0x155>
    54cd:	48 8b 7b 50          	mov    0x50(%rbx),%rdi
    54d1:	48 85 ff             	test   %rdi,%rdi
    54d4:	74 0d                	je     54e3 <__Pyx_CyFunction_traverse+0x83>
    54d6:	4c 89 e6             	mov    %r12,%rsi
    54d9:	ff d5                	call   *%rbp
    54db:	85 c0                	test   %eax,%eax
    54dd:	0f 85 d2 00 00 00    	jne    55b5 <__Pyx_CyFunction_traverse+0x155>
    54e3:	48 8b 7b 58          	mov    0x58(%rbx),%rdi
    54e7:	48 85 ff             	test   %rdi,%rdi
    54ea:	74 0d                	je     54f9 <__Pyx_CyFunction_traverse+0x99>
    54ec:	4c 89 e6             	mov    %r12,%rsi
    54ef:	ff d5                	call   *%rbp
    54f1:	85 c0                	test   %eax,%eax
    54f3:	0f 85 bc 00 00 00    	jne    55b5 <__Pyx_CyFunction_traverse+0x155>
    54f9:	48 8b 7b 60          	mov    0x60(%rbx),%rdi
    54fd:	48 85 ff             	test   %rdi,%rdi
    5500:	74 0d                	je     550f <__Pyx_CyFunction_traverse+0xaf>
    5502:	4c 89 e6             	mov    %r12,%rsi
    5505:	ff d5                	call   *%rbp
    5507:	85 c0                	test   %eax,%eax
    5509:	0f 85 a6 00 00 00    	jne    55b5 <__Pyx_CyFunction_traverse+0x155>
    550f:	48 8b 7b 68          	mov    0x68(%rbx),%rdi
    5513:	48 85 ff             	test   %rdi,%rdi
    5516:	74 0d                	je     5525 <__Pyx_CyFunction_traverse+0xc5>
    5518:	4c 89 e6             	mov    %r12,%rsi
    551b:	ff d5                	call   *%rbp
    551d:	85 c0                	test   %eax,%eax
    551f:	0f 85 90 00 00 00    	jne    55b5 <__Pyx_CyFunction_traverse+0x155>
    5525:	48 8b 7b 38          	mov    0x38(%rbx),%rdi
    5529:	48 85 ff             	test   %rdi,%rdi
    552c:	74 09                	je     5537 <__Pyx_CyFunction_traverse+0xd7>
    552e:	4c 89 e6             	mov    %r12,%rsi
    5531:	ff d5                	call   *%rbp
    5533:	85 c0                	test   %eax,%eax
    5535:	75 7e                	jne    55b5 <__Pyx_CyFunction_traverse+0x155>
    5537:	48 8b bb 98 00 00 00 	mov    0x98(%rbx),%rdi
    553e:	48 85 ff             	test   %rdi,%rdi
    5541:	74 09                	je     554c <__Pyx_CyFunction_traverse+0xec>
    5543:	4c 89 e6             	mov    %r12,%rsi
    5546:	ff d5                	call   *%rbp
    5548:	85 c0                	test   %eax,%eax
    554a:	75 69                	jne    55b5 <__Pyx_CyFunction_traverse+0x155>
    554c:	48 8b bb a0 00 00 00 	mov    0xa0(%rbx),%rdi
    5553:	48 85 ff             	test   %rdi,%rdi
    5556:	74 09                	je     5561 <__Pyx_CyFunction_traverse+0x101>
    5558:	4c 89 e6             	mov    %r12,%rsi
    555b:	ff d5                	call   *%rbp
    555d:	85 c0                	test   %eax,%eax
    555f:	75 54                	jne    55b5 <__Pyx_CyFunction_traverse+0x155>
    5561:	48 8b bb b8 00 00 00 	mov    0xb8(%rbx),%rdi
    5568:	48 85 ff             	test   %rdi,%rdi
    556b:	74 09                	je     5576 <__Pyx_CyFunction_traverse+0x116>
    556d:	4c 89 e6             	mov    %r12,%rsi
    5570:	ff d5                	call   *%rbp
    5572:	85 c0                	test   %eax,%eax
    5574:	75 3f                	jne    55b5 <__Pyx_CyFunction_traverse+0x155>
    5576:	4c 8b 6b 78          	mov    0x78(%rbx),%r13
    557a:	4d 85 ed             	test   %r13,%r13
    557d:	74 34                	je     55b3 <__Pyx_CyFunction_traverse+0x153>
    557f:	8b 83 80 00 00 00    	mov    0x80(%rbx),%eax
    5585:	85 c0                	test   %eax,%eax
    5587:	7e 2a                	jle    55b3 <__Pyx_CyFunction_traverse+0x153>
    5589:	45 31 f6             	xor    %r14d,%r14d
    558c:	0f 1f 40 00          	nopl   0x0(%rax)
    5590:	49 63 c6             	movslq %r14d,%rax
    5593:	49 8b 7c c5 00       	mov    0x0(%r13,%rax,8),%rdi
    5598:	48 85 ff             	test   %rdi,%rdi
    559b:	74 09                	je     55a6 <__Pyx_CyFunction_traverse+0x146>
    559d:	4c 89 e6             	mov    %r12,%rsi
    55a0:	ff d5                	call   *%rbp
    55a2:	85 c0                	test   %eax,%eax
    55a4:	75 0f                	jne    55b5 <__Pyx_CyFunction_traverse+0x155>
    55a6:	41 83 c6 01          	add    $0x1,%r14d
    55aa:	44 39 b3 80 00 00 00 	cmp    %r14d,0x80(%rbx)
    55b1:	7f dd                	jg     5590 <__Pyx_CyFunction_traverse+0x130>
    55b3:	31 c0                	xor    %eax,%eax
    55b5:	5b                   	pop    %rbx
    55b6:	5d                   	pop    %rbp
    55b7:	41 5c                	pop    %r12
    55b9:	41 5d                	pop    %r13
    55bb:	41 5e                	pop    %r14
    55bd:	c3                   	ret    
    55be:	66 90                	xchg   %ax,%ax

00000000000055c0 <__pyx_bisect_code_objects>:
    55c0:	49 89 f8             	mov    %rdi,%r8
    55c3:	89 f7                	mov    %esi,%edi
    55c5:	89 f0                	mov    %esi,%eax
    55c7:	83 ef 01             	sub    $0x1,%edi
    55ca:	78 5c                	js     5628 <__pyx_bisect_code_objects+0x68>
    55cc:	48 63 cf             	movslq %edi,%rcx
    55cf:	48 c1 e1 04          	shl    $0x4,%rcx
    55d3:	41 39 54 08 08       	cmp    %edx,0x8(%r8,%rcx,1)
    55d8:	7c 46                	jl     5620 <__pyx_bisect_code_objects+0x60>
    55da:	85 ff                	test   %edi,%edi
    55dc:	7e 4a                	jle    5628 <__pyx_bisect_code_objects+0x68>
    55de:	31 f6                	xor    %esi,%esi
    55e0:	eb 0f                	jmp    55f1 <__pyx_bisect_code_objects+0x31>
    55e2:	66 0f 1f 44 00 00    	nopw   0x0(%rax,%rax,1)
    55e8:	7d 36                	jge    5620 <__pyx_bisect_code_objects+0x60>
    55ea:	8d 70 01             	lea    0x1(%rax),%esi
    55ed:	39 fe                	cmp    %edi,%esi
    55ef:	7d 25                	jge    5616 <__pyx_bisect_code_objects+0x56>
    55f1:	89 f9                	mov    %edi,%ecx
    55f3:	29 f1                	sub    %esi,%ecx
    55f5:	89 c8                	mov    %ecx,%eax
    55f7:	c1 e8 1f             	shr    $0x1f,%eax
    55fa:	01 c8                	add    %ecx,%eax
    55fc:	d1 f8                	sar    %eax
    55fe:	01 f0                	add    %esi,%eax
    5600:	48 63 c8             	movslq %eax,%rcx
    5603:	48 c1 e1 04          	shl    $0x4,%rcx
    5607:	41 8b 4c 08 08       	mov    0x8(%r8,%rcx,1),%ecx
    560c:	39 d1                	cmp    %edx,%ecx
    560e:	7e d8                	jle    55e8 <__pyx_bisect_code_objects+0x28>
    5610:	89 c7                	mov    %eax,%edi
    5612:	39 fe                	cmp    %edi,%esi
    5614:	7c db                	jl     55f1 <__pyx_bisect_code_objects+0x31>
    5616:	39 ca                	cmp    %ecx,%edx
    5618:	0f 9f c2             	setg   %dl
    561b:	0f b6 d2             	movzbl %dl,%edx
    561e:	01 d0                	add    %edx,%eax
    5620:	c3                   	ret    
    5621:	0f 1f 80 00 00 00 00 	nopl   0x0(%rax)
    5628:	41 8b 48 08          	mov    0x8(%r8),%ecx
    562c:	31 c0                	xor    %eax,%eax
    562e:	eb e6                	jmp    5616 <__pyx_bisect_code_objects+0x56>

0000000000005630 <__Pyx_CyFunction_get_annotations>:
    5630:	f3 0f 1e fa          	endbr64 
    5634:	48 8b 87 b0 00 00 00 	mov    0xb0(%rdi),%rax
    563b:	48 85 c0             	test   %rax,%rax
    563e:	74 08                	je     5648 <__Pyx_CyFunction_get_annotations+0x18>
    5640:	48 83 00 01          	addq   $0x1,(%rax)
    5644:	c3                   	ret    
    5645:	0f 1f 00             	nopl   (%rax)
    5648:	48 83 ec 18          	sub    $0x18,%rsp
    564c:	48 89 7c 24 08       	mov    %rdi,0x8(%rsp)
    5651:	e8 9a e3 ff ff       	call   39f0 <PyDict_New@plt>
    5656:	48 85 c0             	test   %rax,%rax
    5659:	74 10                	je     566b <__Pyx_CyFunction_get_annotations+0x3b>
    565b:	48 8b 7c 24 08       	mov    0x8(%rsp),%rdi
    5660:	48 89 87 b0 00 00 00 	mov    %rax,0xb0(%rdi)
    5667:	48 83 00 01          	addq   $0x1,(%rax)
    566b:	48 83 c4 18          	add    $0x18,%rsp
    566f:	c3                   	ret    

0000000000005670 <__Pyx_CyFunction_get_dict>:
    5670:	f3 0f 1e fa          	endbr64 
    5674:	48 8b 47 40          	mov    0x40(%rdi),%rax
    5678:	48 85 c0             	test   %rax,%rax
    567b:	74 0b                	je     5688 <__Pyx_CyFunction_get_dict+0x18>
    567d:	48 83 00 01          	addq   $0x1,(%rax)
    5681:	c3                   	ret    
    5682:	66 0f 1f 44 00 00    	nopw   0x0(%rax,%rax,1)
    5688:	48 83 ec 18          	sub    $0x18,%rsp
    568c:	48 89 7c 24 08       	mov    %rdi,0x8(%rsp)
    5691:	e8 5a e3 ff ff       	call   39f0 <PyDict_New@plt>
    5696:	48 8b 7c 24 08       	mov    0x8(%rsp),%rdi
    569b:	48 89 47 40          	mov    %rax,0x40(%rdi)
    569f:	48 85 c0             	test   %rax,%rax
    56a2:	74 04                	je     56a8 <__Pyx_CyFunction_get_dict+0x38>
    56a4:	48 83 00 01          	addq   $0x1,(%rax)
    56a8:	48 83 c4 18          	add    $0x18,%rsp
    56ac:	c3                   	ret    
    56ad:	0f 1f 00             	nopl   (%rax)

00000000000056b0 <__Pyx_PyMethod_New>:
    56b0:	f3 0f 1e fa          	endbr64 
    56b4:	48 85 f6             	test   %rsi,%rsi
    56b7:	74 07                	je     56c0 <__Pyx_PyMethod_New+0x10>
    56b9:	e9 f2 e0 ff ff       	jmp    37b0 <PyMethod_New@plt>
    56be:	66 90                	xchg   %ax,%ax
    56c0:	48 83 07 01          	addq   $0x1,(%rdi)
    56c4:	48 89 f8             	mov    %rdi,%rax
    56c7:	c3                   	ret    
    56c8:	0f 1f 84 00 00 00 00 	nopl   0x0(%rax,%rax,1)
    56cf:	00 

00000000000056d0 <__Pyx_CyFunction_get_name>:
    56d0:	f3 0f 1e fa          	endbr64 
    56d4:	48 8b 47 48          	mov    0x48(%rdi),%rax
    56d8:	48 85 c0             	test   %rax,%rax
    56db:	74 0b                	je     56e8 <__Pyx_CyFunction_get_name+0x18>
    56dd:	48 83 00 01          	addq   $0x1,(%rax)
    56e1:	c3                   	ret    
    56e2:	66 0f 1f 44 00 00    	nopw   0x0(%rax,%rax,1)
    56e8:	53                   	push   %rbx
    56e9:	48 8b 47 10          	mov    0x10(%rdi),%rax
    56ed:	48 89 fb             	mov    %rdi,%rbx
    56f0:	48 8b 38             	mov    (%rax),%rdi
    56f3:	e8 58 e3 ff ff       	call   3a50 <PyUnicode_InternFromString@plt>
    56f8:	48 89 43 48          	mov    %rax,0x48(%rbx)
    56fc:	48 85 c0             	test   %rax,%rax
    56ff:	74 04                	je     5705 <__Pyx_CyFunction_get_name+0x35>
    5701:	48 83 00 01          	addq   $0x1,(%rax)
    5705:	5b                   	pop    %rbx
    5706:	c3                   	ret    
    5707:	66 0f 1f 84 00 00 00 	nopw   0x0(%rax,%rax,1)
    570e:	00 00 

0000000000005710 <__Pyx_CyFunction_CallMethod>:
    5710:	55                   	push   %rbp
    5711:	48 89 f5             	mov    %rsi,%rbp
    5714:	48 89 d6             	mov    %rdx,%rsi
    5717:	53                   	push   %rbx
    5718:	48 89 fb             	mov    %rdi,%rbx
    571b:	48 83 ec 18          	sub    $0x18,%rsp
    571f:	48 8b 47 10          	mov    0x10(%rdi),%rax
    5723:	4c 8b 40 08          	mov    0x8(%rax),%r8
    5727:	8b 40 10             	mov    0x10(%rax),%eax
    572a:	83 e0 0f             	and    $0xf,%eax
    572d:	83 f8 04             	cmp    $0x4,%eax
    5730:	74 56                	je     5788 <__Pyx_CyFunction_CallMethod+0x78>
    5732:	7f 24                	jg     5758 <__Pyx_CyFunction_CallMethod+0x48>
    5734:	83 f8 01             	cmp    $0x1,%eax
    5737:	0f 84 a3 00 00 00    	je     57e0 <__Pyx_CyFunction_CallMethod+0xd0>
    573d:	83 f8 03             	cmp    $0x3,%eax
    5740:	75 7e                	jne    57c0 <__Pyx_CyFunction_CallMethod+0xb0>
    5742:	48 83 c4 18          	add    $0x18,%rsp
    5746:	48 89 ef             	mov    %rbp,%rdi
    5749:	48 89 ca             	mov    %rcx,%rdx
    574c:	5b                   	pop    %rbx
    574d:	5d                   	pop    %rbp
    574e:	41 ff e0             	jmp    *%r8
    5751:	0f 1f 80 00 00 00 00 	nopl   0x0(%rax)
    5758:	83 f8 08             	cmp    $0x8,%eax
    575b:	75 63                	jne    57c0 <__Pyx_CyFunction_CallMethod+0xb0>
    575d:	48 85 c9             	test   %rcx,%rcx
    5760:	0f 85 aa 00 00 00    	jne    5810 <__Pyx_CyFunction_CallMethod+0x100>
    5766:	48 8b 4e 10          	mov    0x10(%rsi),%rcx
    576a:	48 83 f9 01          	cmp    $0x1,%rcx
    576e:	0f 85 14 01 00 00    	jne    5888 <__Pyx_CyFunction_CallMethod+0x178>
    5774:	48 8b 76 18          	mov    0x18(%rsi),%rsi
    5778:	48 83 c4 18          	add    $0x18,%rsp
    577c:	48 89 ef             	mov    %rbp,%rdi
    577f:	5b                   	pop    %rbx
    5780:	5d                   	pop    %rbp
    5781:	41 ff e0             	jmp    *%r8
    5784:	0f 1f 40 00          	nopl   0x0(%rax)
    5788:	48 85 c9             	test   %rcx,%rcx
    578b:	0f 85 cf 00 00 00    	jne    5860 <__Pyx_CyFunction_CallMethod+0x150>
    5791:	48 8b 4e 10          	mov    0x10(%rsi),%rcx
    5795:	31 f6                	xor    %esi,%esi
    5797:	48 85 c9             	test   %rcx,%rcx
    579a:	74 dc                	je     5778 <__Pyx_CyFunction_CallMethod+0x68>
    579c:	48 8b 43 10          	mov    0x10(%rbx),%rax
    57a0:	48 8d 35 59 68 00 00 	lea    0x6859(%rip),%rsi        # c000 <_fini+0x288>
    57a7:	48 8b 10             	mov    (%rax),%rdx
    57aa:	48 8b 05 a7 97 00 00 	mov    0x97a7(%rip),%rax        # ef58 <PyExc_TypeError@Base>
    57b1:	48 8b 38             	mov    (%rax),%rdi
    57b4:	31 c0                	xor    %eax,%eax
    57b6:	e8 d5 e2 ff ff       	call   3a90 <PyErr_Format@plt>
    57bb:	eb 19                	jmp    57d6 <__Pyx_CyFunction_CallMethod+0xc6>
    57bd:	0f 1f 00             	nopl   (%rax)
    57c0:	48 8b 05 61 97 00 00 	mov    0x9761(%rip),%rax        # ef28 <PyExc_SystemError@Base>
    57c7:	48 8d 35 93 6e 00 00 	lea    0x6e93(%rip),%rsi        # c661 <_fini+0x8e9>
    57ce:	48 8b 38             	mov    (%rax),%rdi
    57d1:	e8 ca df ff ff       	call   37a0 <PyErr_SetString@plt>
    57d6:	48 83 c4 18          	add    $0x18,%rsp
    57da:	31 c0                	xor    %eax,%eax
    57dc:	5b                   	pop    %rbx
    57dd:	5d                   	pop    %rbp
    57de:	c3                   	ret    
    57df:	90                   	nop
    57e0:	48 85 c9             	test   %rcx,%rcx
    57e3:	74 93                	je     5778 <__Pyx_CyFunction_CallMethod+0x68>
    57e5:	48 89 cf             	mov    %rcx,%rdi
    57e8:	4c 89 04 24          	mov    %r8,(%rsp)
    57ec:	48 89 54 24 08       	mov    %rdx,0x8(%rsp)
    57f1:	e8 0a de ff ff       	call   3600 <PyDict_Size@plt>
    57f6:	4c 8b 04 24          	mov    (%rsp),%r8
    57fa:	48 8b 74 24 08       	mov    0x8(%rsp),%rsi
    57ff:	48 85 c0             	test   %rax,%rax
    5802:	0f 84 70 ff ff ff    	je     5778 <__Pyx_CyFunction_CallMethod+0x68>
    5808:	eb 29                	jmp    5833 <__Pyx_CyFunction_CallMethod+0x123>
    580a:	66 0f 1f 44 00 00    	nopw   0x0(%rax,%rax,1)
    5810:	48 89 cf             	mov    %rcx,%rdi
    5813:	4c 89 04 24          	mov    %r8,(%rsp)
    5817:	48 89 54 24 08       	mov    %rdx,0x8(%rsp)
    581c:	e8 df dd ff ff       	call   3600 <PyDict_Size@plt>
    5821:	4c 8b 04 24          	mov    (%rsp),%r8
    5825:	48 8b 74 24 08       	mov    0x8(%rsp),%rsi
    582a:	48 85 c0             	test   %rax,%rax
    582d:	0f 84 33 ff ff ff    	je     5766 <__Pyx_CyFunction_CallMethod+0x56>
    5833:	48 8b 43 10          	mov    0x10(%rbx),%rax
    5837:	48 8d 35 1a 68 00 00 	lea    0x681a(%rip),%rsi        # c058 <_fini+0x2e0>
    583e:	48 8b 10             	mov    (%rax),%rdx
    5841:	48 8b 05 10 97 00 00 	mov    0x9710(%rip),%rax        # ef58 <PyExc_TypeError@Base>
    5848:	48 8b 38             	mov    (%rax),%rdi
    584b:	31 c0                	xor    %eax,%eax
    584d:	e8 3e e2 ff ff       	call   3a90 <PyErr_Format@plt>
    5852:	e9 7f ff ff ff       	jmp    57d6 <__Pyx_CyFunction_CallMethod+0xc6>
    5857:	66 0f 1f 84 00 00 00 	nopw   0x0(%rax,%rax,1)
    585e:	00 00 
    5860:	48 89 cf             	mov    %rcx,%rdi
    5863:	4c 89 04 24          	mov    %r8,(%rsp)
    5867:	48 89 54 24 08       	mov    %rdx,0x8(%rsp)
    586c:	e8 8f dd ff ff       	call   3600 <PyDict_Size@plt>
    5871:	4c 8b 04 24          	mov    (%rsp),%r8
    5875:	48 8b 74 24 08       	mov    0x8(%rsp),%rsi
    587a:	48 85 c0             	test   %rax,%rax
    587d:	0f 84 0e ff ff ff    	je     5791 <__Pyx_CyFunction_CallMethod+0x81>
    5883:	eb ae                	jmp    5833 <__Pyx_CyFunction_CallMethod+0x123>
    5885:	0f 1f 00             	nopl   (%rax)
    5888:	48 8b 43 10          	mov    0x10(%rbx),%rax
    588c:	48 8d 35 95 67 00 00 	lea    0x6795(%rip),%rsi        # c028 <_fini+0x2b0>
    5893:	48 8b 10             	mov    (%rax),%rdx
    5896:	48 8b 05 bb 96 00 00 	mov    0x96bb(%rip),%rax        # ef58 <PyExc_TypeError@Base>
    589d:	48 8b 38             	mov    (%rax),%rdi
    58a0:	31 c0                	xor    %eax,%eax
    58a2:	e8 e9 e1 ff ff       	call   3a90 <PyErr_Format@plt>
    58a7:	e9 2a ff ff ff       	jmp    57d6 <__Pyx_CyFunction_CallMethod+0xc6>
    58ac:	0f 1f 40 00          	nopl   0x0(%rax)

00000000000058b0 <__Pyx_CyFunction_repr>:
    58b0:	f3 0f 1e fa          	endbr64 
    58b4:	48 8b 77 50          	mov    0x50(%rdi),%rsi
    58b8:	48 89 fa             	mov    %rdi,%rdx
    58bb:	31 c0                	xor    %eax,%eax
    58bd:	48 8d 3d bb 6d 00 00 	lea    0x6dbb(%rip),%rdi        # c67f <_fini+0x907>
    58c4:	e9 f7 dc ff ff       	jmp    35c0 <PyUnicode_FromFormat@plt>
    58c9:	0f 1f 80 00 00 00 00 	nopl   0x0(%rax)

00000000000058d0 <_Py_DECREF>:
    58d0:	48 83 2f 01          	subq   $0x1,(%rdi)
    58d4:	74 0a                	je     58e0 <_Py_DECREF+0x10>
    58d6:	c3                   	ret    
    58d7:	66 0f 1f 84 00 00 00 	nopw   0x0(%rax,%rax,1)
    58de:	00 00 
    58e0:	e9 2b de ff ff       	jmp    3710 <_Py_Dealloc@plt>
    58e5:	66 66 2e 0f 1f 84 00 	data16 cs nopw 0x0(%rax,%rax,1)
    58ec:	00 00 00 00 

00000000000058f0 <__Pyx_CyFunction_Vectorcall_O>:
    58f0:	f3 0f 1e fa          	endbr64 
    58f4:	48 83 ec 08          	sub    $0x8,%rsp
    58f8:	8b 87 90 00 00 00    	mov    0x90(%rdi),%eax
    58fe:	4c 8b 47 10          	mov    0x10(%rdi),%r8
    5902:	48 0f ba f2 3f       	btr    $0x3f,%rdx
    5907:	83 e0 05             	and    $0x5,%eax
    590a:	83 f8 04             	cmp    $0x4,%eax
    590d:	74 21                	je     5930 <__Pyx_CyFunction_Vectorcall_O+0x40>
    590f:	48 85 c9             	test   %rcx,%rcx
    5912:	75 64                	jne    5978 <__Pyx_CyFunction_Vectorcall_O+0x88>
    5914:	48 8b 7f 18          	mov    0x18(%rdi),%rdi
    5918:	48 83 fa 01          	cmp    $0x1,%rdx
    591c:	75 32                	jne    5950 <__Pyx_CyFunction_Vectorcall_O+0x60>
    591e:	49 8b 40 08          	mov    0x8(%r8),%rax
    5922:	48 8b 36             	mov    (%rsi),%rsi
    5925:	48 83 c4 08          	add    $0x8,%rsp
    5929:	ff e0                	jmp    *%rax
    592b:	0f 1f 44 00 00       	nopl   0x0(%rax,%rax,1)
    5930:	48 85 d2             	test   %rdx,%rdx
    5933:	74 6b                	je     59a0 <__Pyx_CyFunction_Vectorcall_O+0xb0>
    5935:	48 85 c9             	test   %rcx,%rcx
    5938:	0f 85 82 00 00 00    	jne    59c0 <__Pyx_CyFunction_Vectorcall_O+0xd0>
    593e:	48 8b 3e             	mov    (%rsi),%rdi
    5941:	48 83 ea 01          	sub    $0x1,%rdx
    5945:	48 83 c6 08          	add    $0x8,%rsi
    5949:	eb cd                	jmp    5918 <__Pyx_CyFunction_Vectorcall_O+0x28>
    594b:	0f 1f 44 00 00       	nopl   0x0(%rax,%rax,1)
    5950:	48 8b 05 01 96 00 00 	mov    0x9601(%rip),%rax        # ef58 <PyExc_TypeError@Base>
    5957:	48 89 d1             	mov    %rdx,%rcx
    595a:	49 8b 10             	mov    (%r8),%rdx
    595d:	48 8d 35 c4 66 00 00 	lea    0x66c4(%rip),%rsi        # c028 <_fini+0x2b0>
    5964:	48 8b 38             	mov    (%rax),%rdi
    5967:	31 c0                	xor    %eax,%eax
    5969:	e8 22 e1 ff ff       	call   3a90 <PyErr_Format@plt>
    596e:	31 c0                	xor    %eax,%eax
    5970:	48 83 c4 08          	add    $0x8,%rsp
    5974:	c3                   	ret    
    5975:	0f 1f 00             	nopl   (%rax)
    5978:	48 83 79 10 00       	cmpq   $0x0,0x10(%rcx)
    597d:	74 95                	je     5914 <__Pyx_CyFunction_Vectorcall_O+0x24>
    597f:	48 8b 05 d2 95 00 00 	mov    0x95d2(%rip),%rax        # ef58 <PyExc_TypeError@Base>
    5986:	49 8b 10             	mov    (%r8),%rdx
    5989:	48 8d 35 c8 66 00 00 	lea    0x66c8(%rip),%rsi        # c058 <_fini+0x2e0>
    5990:	48 8b 38             	mov    (%rax),%rdi
    5993:	31 c0                	xor    %eax,%eax
    5995:	e8 f6 e0 ff ff       	call   3a90 <PyErr_Format@plt>
    599a:	eb d2                	jmp    596e <__Pyx_CyFunction_Vectorcall_O+0x7e>
    599c:	0f 1f 40 00          	nopl   0x0(%rax)
    59a0:	48 8b 05 b1 95 00 00 	mov    0x95b1(%rip),%rax        # ef58 <PyExc_TypeError@Base>
    59a7:	49 8b 10             	mov    (%r8),%rdx
    59aa:	48 8d 35 3d 6d 00 00 	lea    0x6d3d(%rip),%rsi        # c6ee <_fini+0x976>
    59b1:	48 8b 38             	mov    (%rax),%rdi
    59b4:	31 c0                	xor    %eax,%eax
    59b6:	e8 d5 e0 ff ff       	call   3a90 <PyErr_Format@plt>
    59bb:	eb b1                	jmp    596e <__Pyx_CyFunction_Vectorcall_O+0x7e>
    59bd:	0f 1f 00             	nopl   (%rax)
    59c0:	48 83 79 10 00       	cmpq   $0x0,0x10(%rcx)
    59c5:	0f 84 73 ff ff ff    	je     593e <__Pyx_CyFunction_Vectorcall_O+0x4e>
    59cb:	eb b2                	jmp    597f <__Pyx_CyFunction_Vectorcall_O+0x8f>
    59cd:	0f 1f 00             	nopl   (%rax)

00000000000059d0 <__Pyx_CyFunction_get_doc>:
    59d0:	f3 0f 1e fa          	endbr64 
    59d4:	48 8b 47 58          	mov    0x58(%rdi),%rax
    59d8:	48 85 c0             	test   %rax,%rax
    59db:	74 0b                	je     59e8 <__Pyx_CyFunction_get_doc+0x18>
    59dd:	48 83 00 01          	addq   $0x1,(%rax)
    59e1:	c3                   	ret    
    59e2:	66 0f 1f 44 00 00    	nopw   0x0(%rax,%rax,1)
    59e8:	53                   	push   %rbx
    59e9:	48 8b 47 10          	mov    0x10(%rdi),%rax
    59ed:	48 89 fb             	mov    %rdi,%rbx
    59f0:	48 8b 78 18          	mov    0x18(%rax),%rdi
    59f4:	48 85 ff             	test   %rdi,%rdi
    59f7:	74 17                	je     5a10 <__Pyx_CyFunction_get_doc+0x40>
    59f9:	e8 32 e0 ff ff       	call   3a30 <PyUnicode_FromString@plt>
    59fe:	48 89 43 58          	mov    %rax,0x58(%rbx)
    5a02:	48 85 c0             	test   %rax,%rax
    5a05:	74 04                	je     5a0b <__Pyx_CyFunction_get_doc+0x3b>
    5a07:	48 83 00 01          	addq   $0x1,(%rax)
    5a0b:	5b                   	pop    %rbx
    5a0c:	c3                   	ret    
    5a0d:	0f 1f 00             	nopl   (%rax)
    5a10:	48 8b 05 69 95 00 00 	mov    0x9569(%rip),%rax        # ef80 <_Py_NoneStruct@Base>
    5a17:	48 83 00 01          	addq   $0x1,(%rax)
    5a1b:	5b                   	pop    %rbx
    5a1c:	c3                   	ret    
    5a1d:	0f 1f 00             	nopl   (%rax)

0000000000005a20 <__Pyx_PyInt_AddObjC.constprop.0>:
    5a20:	48 8b 57 08          	mov    0x8(%rdi),%rdx
    5a24:	48 3b 15 75 95 00 00 	cmp    0x9575(%rip),%rdx        # efa0 <PyLong_Type@Base>
    5a2b:	75 33                	jne    5a60 <__Pyx_PyInt_AddObjC.constprop.0+0x40>
    5a2d:	48 8b 47 10          	mov    0x10(%rdi),%rax
    5a31:	48 85 c0             	test   %rax,%rax
    5a34:	74 3a                	je     5a70 <__Pyx_PyInt_AddObjC.constprop.0+0x50>
    5a36:	48 8d 48 01          	lea    0x1(%rax),%rcx
    5a3a:	48 83 f9 02          	cmp    $0x2,%rcx
    5a3e:	77 40                	ja     5a80 <__Pyx_PyInt_AddObjC.constprop.0+0x60>
    5a40:	48 63 7f 18          	movslq 0x18(%rdi),%rdi
    5a44:	89 fa                	mov    %edi,%edx
    5a46:	f7 da                	neg    %edx
    5a48:	48 83 f8 ff          	cmp    $0xffffffffffffffff,%rax
    5a4c:	48 63 d2             	movslq %edx,%rdx
    5a4f:	48 0f 44 fa          	cmove  %rdx,%rdi
    5a53:	48 83 c7 01          	add    $0x1,%rdi
    5a57:	e9 54 de ff ff       	jmp    38b0 <PyLong_FromLong@plt>
    5a5c:	0f 1f 40 00          	nopl   0x0(%rax)
    5a60:	48 3b 15 d9 94 00 00 	cmp    0x94d9(%rip),%rdx        # ef40 <PyFloat_Type@Base>
    5a67:	74 5c                	je     5ac5 <__Pyx_PyInt_AddObjC.constprop.0+0xa5>
    5a69:	e9 32 dc ff ff       	jmp    36a0 <PyNumber_Add@plt>
    5a6e:	66 90                	xchg   %ax,%ax
    5a70:	48 83 06 01          	addq   $0x1,(%rsi)
    5a74:	48 89 f0             	mov    %rsi,%rax
    5a77:	c3                   	ret    
    5a78:	0f 1f 84 00 00 00 00 	nopl   0x0(%rax,%rax,1)
    5a7f:	00 
    5a80:	48 83 f8 fe          	cmp    $0xfffffffffffffffe,%rax
    5a84:	74 2a                	je     5ab0 <__Pyx_PyInt_AddObjC.constprop.0+0x90>
    5a86:	48 83 f8 02          	cmp    $0x2,%rax
    5a8a:	74 0c                	je     5a98 <__Pyx_PyInt_AddObjC.constprop.0+0x78>
    5a8c:	48 8b 42 60          	mov    0x60(%rdx),%rax
    5a90:	ff 20                	jmp    *(%rax)
    5a92:	66 0f 1f 44 00 00    	nopw   0x0(%rax,%rax,1)
    5a98:	8b 47 1c             	mov    0x1c(%rdi),%eax
    5a9b:	8b 57 18             	mov    0x18(%rdi),%edx
    5a9e:	48 c1 e0 1e          	shl    $0x1e,%rax
    5aa2:	48 09 d0             	or     %rdx,%rax
    5aa5:	48 89 c7             	mov    %rax,%rdi
    5aa8:	eb a9                	jmp    5a53 <__Pyx_PyInt_AddObjC.constprop.0+0x33>
    5aaa:	66 0f 1f 44 00 00    	nopw   0x0(%rax,%rax,1)
    5ab0:	8b 47 1c             	mov    0x1c(%rdi),%eax
    5ab3:	8b 57 18             	mov    0x18(%rdi),%edx
    5ab6:	48 c1 e0 1e          	shl    $0x1e,%rax
    5aba:	48 09 d0             	or     %rdx,%rax
    5abd:	48 89 c7             	mov    %rax,%rdi
    5ac0:	48 f7 df             	neg    %rdi
    5ac3:	eb 8e                	jmp    5a53 <__Pyx_PyInt_AddObjC.constprop.0+0x33>
    5ac5:	f2 0f 10 05 93 6f 00 	movsd  0x6f93(%rip),%xmm0        # ca60 <__pyx_k_+0x1>
    5acc:	00 
    5acd:	f2 0f 58 47 10       	addsd  0x10(%rdi),%xmm0
    5ad2:	e9 b9 dd ff ff       	jmp    3890 <PyFloat_FromDouble@plt>
    5ad7:	66 0f 1f 84 00 00 00 	nopw   0x0(%rax,%rax,1)
    5ade:	00 00 

0000000000005ae0 <__Pyx_CyFunction_reduce>:
    5ae0:	f3 0f 1e fa          	endbr64 
    5ae4:	48 8b 47 50          	mov    0x50(%rdi),%rax
    5ae8:	48 83 00 01          	addq   $0x1,(%rax)
    5aec:	c3                   	ret    
    5aed:	0f 1f 00             	nopl   (%rax)

0000000000005af0 <__Pyx_PyErr_GivenExceptionMatchesTuple>:
    5af0:	4c 8b 56 10          	mov    0x10(%rsi),%r10
    5af4:	4d 85 d2             	test   %r10,%r10
    5af7:	0f 8e c0 00 00 00    	jle    5bbd <__Pyx_PyErr_GivenExceptionMatchesTuple+0xcd>
    5afd:	31 c0                	xor    %eax,%eax
    5aff:	eb 10                	jmp    5b11 <__Pyx_PyErr_GivenExceptionMatchesTuple+0x21>
    5b01:	0f 1f 80 00 00 00 00 	nopl   0x0(%rax)
    5b08:	48 83 c0 01          	add    $0x1,%rax
    5b0c:	49 39 c2             	cmp    %rax,%r10
    5b0f:	74 0f                	je     5b20 <__Pyx_PyErr_GivenExceptionMatchesTuple+0x30>
    5b11:	48 39 7c c6 18       	cmp    %rdi,0x18(%rsi,%rax,8)
    5b16:	75 f0                	jne    5b08 <__Pyx_PyErr_GivenExceptionMatchesTuple+0x18>
    5b18:	b8 01 00 00 00       	mov    $0x1,%eax
    5b1d:	c3                   	ret    
    5b1e:	66 90                	xchg   %ax,%ax
    5b20:	45 31 c9             	xor    %r9d,%r9d
    5b23:	0f 1f 44 00 00       	nopl   0x0(%rax,%rax,1)
    5b28:	4a 8b 54 ce 18       	mov    0x18(%rsi,%r9,8),%rdx
    5b2d:	48 8b 42 08          	mov    0x8(%rdx),%rax
    5b31:	f6 80 ab 00 00 00 80 	testb  $0x80,0xab(%rax)
    5b38:	74 76                	je     5bb0 <__Pyx_PyErr_GivenExceptionMatchesTuple+0xc0>
    5b3a:	f6 82 ab 00 00 00 40 	testb  $0x40,0xab(%rdx)
    5b41:	74 6d                	je     5bb0 <__Pyx_PyErr_GivenExceptionMatchesTuple+0xc0>
    5b43:	48 39 fa             	cmp    %rdi,%rdx
    5b46:	74 d0                	je     5b18 <__Pyx_PyErr_GivenExceptionMatchesTuple+0x28>
    5b48:	48 8b 8f 58 01 00 00 	mov    0x158(%rdi),%rcx
    5b4f:	48 85 c9             	test   %rcx,%rcx
    5b52:	74 2c                	je     5b80 <__Pyx_PyErr_GivenExceptionMatchesTuple+0x90>
    5b54:	4c 8b 41 10          	mov    0x10(%rcx),%r8
    5b58:	4d 85 c0             	test   %r8,%r8
    5b5b:	7e 53                	jle    5bb0 <__Pyx_PyErr_GivenExceptionMatchesTuple+0xc0>
    5b5d:	31 c0                	xor    %eax,%eax
    5b5f:	eb 10                	jmp    5b71 <__Pyx_PyErr_GivenExceptionMatchesTuple+0x81>
    5b61:	0f 1f 80 00 00 00 00 	nopl   0x0(%rax)
    5b68:	48 83 c0 01          	add    $0x1,%rax
    5b6c:	49 39 c0             	cmp    %rax,%r8
    5b6f:	74 3f                	je     5bb0 <__Pyx_PyErr_GivenExceptionMatchesTuple+0xc0>
    5b71:	48 3b 54 c1 18       	cmp    0x18(%rcx,%rax,8),%rdx
    5b76:	75 f0                	jne    5b68 <__Pyx_PyErr_GivenExceptionMatchesTuple+0x78>
    5b78:	eb 9e                	jmp    5b18 <__Pyx_PyErr_GivenExceptionMatchesTuple+0x28>
    5b7a:	66 0f 1f 44 00 00    	nopw   0x0(%rax,%rax,1)
    5b80:	48 89 f8             	mov    %rdi,%rax
    5b83:	0f 1f 44 00 00       	nopl   0x0(%rax,%rax,1)
    5b88:	48 8b 80 00 01 00 00 	mov    0x100(%rax),%rax
    5b8f:	48 39 c2             	cmp    %rax,%rdx
    5b92:	0f 84 80 ff ff ff    	je     5b18 <__Pyx_PyErr_GivenExceptionMatchesTuple+0x28>
    5b98:	48 85 c0             	test   %rax,%rax
    5b9b:	75 eb                	jne    5b88 <__Pyx_PyErr_GivenExceptionMatchesTuple+0x98>
    5b9d:	48 3b 15 f4 93 00 00 	cmp    0x93f4(%rip),%rdx        # ef98 <PyBaseObject_Type@Base>
    5ba4:	0f 84 6e ff ff ff    	je     5b18 <__Pyx_PyErr_GivenExceptionMatchesTuple+0x28>
    5baa:	66 0f 1f 44 00 00    	nopw   0x0(%rax,%rax,1)
    5bb0:	49 83 c1 01          	add    $0x1,%r9
    5bb4:	4d 39 ca             	cmp    %r9,%r10
    5bb7:	0f 85 6b ff ff ff    	jne    5b28 <__Pyx_PyErr_GivenExceptionMatchesTuple+0x38>
    5bbd:	31 c0                	xor    %eax,%eax
    5bbf:	c3                   	ret    

0000000000005bc0 <__Pyx_PyErr_GivenExceptionMatches.part.0>:
    5bc0:	48 8b 47 08          	mov    0x8(%rdi),%rax
    5bc4:	f6 80 ab 00 00 00 80 	testb  $0x80,0xab(%rax)
    5bcb:	0f 84 87 00 00 00    	je     5c58 <__Pyx_PyErr_GivenExceptionMatches.part.0+0x98>
    5bd1:	f6 87 ab 00 00 00 40 	testb  $0x40,0xab(%rdi)
    5bd8:	74 7e                	je     5c58 <__Pyx_PyErr_GivenExceptionMatches.part.0+0x98>
    5bda:	48 8b 46 08          	mov    0x8(%rsi),%rax
    5bde:	48 8b 80 a8 00 00 00 	mov    0xa8(%rax),%rax
    5be5:	a9 00 00 00 80       	test   $0x80000000,%eax
    5bea:	74 74                	je     5c60 <__Pyx_PyErr_GivenExceptionMatches.part.0+0xa0>
    5bec:	f6 86 ab 00 00 00 40 	testb  $0x40,0xab(%rsi)
    5bf3:	74 6b                	je     5c60 <__Pyx_PyErr_GivenExceptionMatches.part.0+0xa0>
    5bf5:	48 39 f7             	cmp    %rsi,%rdi
    5bf8:	74 2e                	je     5c28 <__Pyx_PyErr_GivenExceptionMatches.part.0+0x68>
    5bfa:	48 8b 97 58 01 00 00 	mov    0x158(%rdi),%rdx
    5c01:	48 85 d2             	test   %rdx,%rdx
    5c04:	74 2a                	je     5c30 <__Pyx_PyErr_GivenExceptionMatches.part.0+0x70>
    5c06:	48 8b 4a 10          	mov    0x10(%rdx),%rcx
    5c0a:	48 85 c9             	test   %rcx,%rcx
    5c0d:	7e 41                	jle    5c50 <__Pyx_PyErr_GivenExceptionMatches.part.0+0x90>
    5c0f:	31 c0                	xor    %eax,%eax
    5c11:	eb 0e                	jmp    5c21 <__Pyx_PyErr_GivenExceptionMatches.part.0+0x61>
    5c13:	0f 1f 44 00 00       	nopl   0x0(%rax,%rax,1)
    5c18:	48 83 c0 01          	add    $0x1,%rax
    5c1c:	48 39 c1             	cmp    %rax,%rcx
    5c1f:	74 2f                	je     5c50 <__Pyx_PyErr_GivenExceptionMatches.part.0+0x90>
    5c21:	48 3b 74 c2 18       	cmp    0x18(%rdx,%rax,8),%rsi
    5c26:	75 f0                	jne    5c18 <__Pyx_PyErr_GivenExceptionMatches.part.0+0x58>
    5c28:	b8 01 00 00 00       	mov    $0x1,%eax
    5c2d:	c3                   	ret    
    5c2e:	66 90                	xchg   %ax,%ax
    5c30:	48 8b bf 00 01 00 00 	mov    0x100(%rdi),%rdi
    5c37:	48 39 fe             	cmp    %rdi,%rsi
    5c3a:	74 ec                	je     5c28 <__Pyx_PyErr_GivenExceptionMatches.part.0+0x68>
    5c3c:	48 85 ff             	test   %rdi,%rdi
    5c3f:	75 ef                	jne    5c30 <__Pyx_PyErr_GivenExceptionMatches.part.0+0x70>
    5c41:	31 c0                	xor    %eax,%eax
    5c43:	48 3b 35 4e 93 00 00 	cmp    0x934e(%rip),%rsi        # ef98 <PyBaseObject_Type@Base>
    5c4a:	0f 94 c0             	sete   %al
    5c4d:	c3                   	ret    
    5c4e:	66 90                	xchg   %ax,%ax
    5c50:	31 c0                	xor    %eax,%eax
    5c52:	c3                   	ret    
    5c53:	0f 1f 44 00 00       	nopl   0x0(%rax,%rax,1)
    5c58:	e9 33 db ff ff       	jmp    3790 <PyErr_GivenExceptionMatches@plt>
    5c5d:	0f 1f 00             	nopl   (%rax)
    5c60:	a9 00 00 00 04       	test   $0x4000000,%eax
    5c65:	74 f1                	je     5c58 <__Pyx_PyErr_GivenExceptionMatches.part.0+0x98>
    5c67:	e9 84 fe ff ff       	jmp    5af0 <__Pyx_PyErr_GivenExceptionMatchesTuple>
    5c6c:	0f 1f 40 00          	nopl   0x0(%rax)

0000000000005c70 <__Pyx_CyFunction_Vectorcall_FASTCALL_KEYWORDS>:
    5c70:	f3 0f 1e fa          	endbr64 
    5c74:	8b 87 90 00 00 00    	mov    0x90(%rdi),%eax
    5c7a:	4c 8b 47 10          	mov    0x10(%rdi),%r8
    5c7e:	48 0f ba f2 3f       	btr    $0x3f,%rdx
    5c83:	83 e0 05             	and    $0x5,%eax
    5c86:	83 f8 04             	cmp    $0x4,%eax
    5c89:	74 0d                	je     5c98 <__Pyx_CyFunction_Vectorcall_FASTCALL_KEYWORDS+0x28>
    5c8b:	48 8b 7f 18          	mov    0x18(%rdi),%rdi
    5c8f:	41 ff 60 08          	jmp    *0x8(%r8)
    5c93:	0f 1f 44 00 00       	nopl   0x0(%rax,%rax,1)
    5c98:	48 85 d2             	test   %rdx,%rdx
    5c9b:	74 13                	je     5cb0 <__Pyx_CyFunction_Vectorcall_FASTCALL_KEYWORDS+0x40>
    5c9d:	48 8b 3e             	mov    (%rsi),%rdi
    5ca0:	48 83 ea 01          	sub    $0x1,%rdx
    5ca4:	48 83 c6 08          	add    $0x8,%rsi
    5ca8:	41 ff 60 08          	jmp    *0x8(%r8)
    5cac:	0f 1f 40 00          	nopl   0x0(%rax)
    5cb0:	48 83 ec 08          	sub    $0x8,%rsp
    5cb4:	48 8b 05 9d 92 00 00 	mov    0x929d(%rip),%rax        # ef58 <PyExc_TypeError@Base>
    5cbb:	49 8b 10             	mov    (%r8),%rdx
    5cbe:	48 8d 35 29 6a 00 00 	lea    0x6a29(%rip),%rsi        # c6ee <_fini+0x976>
    5cc5:	48 8b 38             	mov    (%rax),%rdi
    5cc8:	31 c0                	xor    %eax,%eax
    5cca:	e8 c1 dd ff ff       	call   3a90 <PyErr_Format@plt>
    5ccf:	31 c0                	xor    %eax,%eax
    5cd1:	48 83 c4 08          	add    $0x8,%rsp
    5cd5:	c3                   	ret    
    5cd6:	66 2e 0f 1f 84 00 00 	cs nopw 0x0(%rax,%rax,1)
    5cdd:	00 00 00 

0000000000005ce0 <__Pyx_CyFunction_Vectorcall_FASTCALL_KEYWORDS_METHOD>:
    5ce0:	f3 0f 1e fa          	endbr64 
    5ce4:	8b 87 90 00 00 00    	mov    0x90(%rdi),%eax
    5cea:	49 89 f1             	mov    %rsi,%r9
    5ced:	49 89 c8             	mov    %rcx,%r8
    5cf0:	48 8b 77 10          	mov    0x10(%rdi),%rsi
    5cf4:	48 0f ba f2 3f       	btr    $0x3f,%rdx
    5cf9:	4c 8b 57 38          	mov    0x38(%rdi),%r10
    5cfd:	83 e0 05             	and    $0x5,%eax
    5d00:	48 89 d1             	mov    %rdx,%rcx
    5d03:	83 f8 04             	cmp    $0x4,%eax
    5d06:	74 18                	je     5d20 <__Pyx_CyFunction_Vectorcall_FASTCALL_KEYWORDS_METHOD+0x40>
    5d08:	48 8b 46 08          	mov    0x8(%rsi),%rax
    5d0c:	48 8b 7f 18          	mov    0x18(%rdi),%rdi
    5d10:	4c 89 ca             	mov    %r9,%rdx
    5d13:	4c 89 d6             	mov    %r10,%rsi
    5d16:	ff e0                	jmp    *%rax
    5d18:	0f 1f 84 00 00 00 00 	nopl   0x0(%rax,%rax,1)
    5d1f:	00 
    5d20:	48 85 d2             	test   %rdx,%rdx
    5d23:	74 1b                	je     5d40 <__Pyx_CyFunction_Vectorcall_FASTCALL_KEYWORDS_METHOD+0x60>
    5d25:	49 8b 39             	mov    (%r9),%rdi
    5d28:	49 83 c1 08          	add    $0x8,%r9
    5d2c:	48 8b 46 08          	mov    0x8(%rsi),%rax
    5d30:	48 83 e9 01          	sub    $0x1,%rcx
    5d34:	4c 89 ca             	mov    %r9,%rdx
    5d37:	4c 89 d6             	mov    %r10,%rsi
    5d3a:	ff e0                	jmp    *%rax
    5d3c:	0f 1f 40 00          	nopl   0x0(%rax)
    5d40:	48 83 ec 08          	sub    $0x8,%rsp
    5d44:	48 8b 05 0d 92 00 00 	mov    0x920d(%rip),%rax        # ef58 <PyExc_TypeError@Base>
    5d4b:	48 8b 16             	mov    (%rsi),%rdx
    5d4e:	48 8d 35 99 69 00 00 	lea    0x6999(%rip),%rsi        # c6ee <_fini+0x976>
    5d55:	48 8b 38             	mov    (%rax),%rdi
    5d58:	31 c0                	xor    %eax,%eax
    5d5a:	e8 31 dd ff ff       	call   3a90 <PyErr_Format@plt>
    5d5f:	31 c0                	xor    %eax,%eax
    5d61:	48 83 c4 08          	add    $0x8,%rsp
    5d65:	c3                   	ret    
    5d66:	66 2e 0f 1f 84 00 00 	cs nopw 0x0(%rax,%rax,1)
    5d6d:	00 00 00 

0000000000005d70 <__Pyx_CyFunction_Vectorcall_NOARGS>:
    5d70:	f3 0f 1e fa          	endbr64 
    5d74:	48 83 ec 08          	sub    $0x8,%rsp
    5d78:	8b 87 90 00 00 00    	mov    0x90(%rdi),%eax
    5d7e:	4c 8b 47 10          	mov    0x10(%rdi),%r8
    5d82:	48 0f ba f2 3f       	btr    $0x3f,%rdx
    5d87:	83 e0 05             	and    $0x5,%eax
    5d8a:	83 f8 04             	cmp    $0x4,%eax
    5d8d:	74 21                	je     5db0 <__Pyx_CyFunction_Vectorcall_NOARGS+0x40>
    5d8f:	48 85 c9             	test   %rcx,%rcx
    5d92:	75 5c                	jne    5df0 <__Pyx_CyFunction_Vectorcall_NOARGS+0x80>
    5d94:	48 8b 7f 18          	mov    0x18(%rdi),%rdi
    5d98:	48 85 d2             	test   %rdx,%rdx
    5d9b:	75 2b                	jne    5dc8 <__Pyx_CyFunction_Vectorcall_NOARGS+0x58>
    5d9d:	49 8b 40 08          	mov    0x8(%r8),%rax
    5da1:	31 f6                	xor    %esi,%esi
    5da3:	48 83 c4 08          	add    $0x8,%rsp
    5da7:	ff e0                	jmp    *%rax
    5da9:	0f 1f 80 00 00 00 00 	nopl   0x0(%rax)
    5db0:	48 85 d2             	test   %rdx,%rdx
    5db3:	74 63                	je     5e18 <__Pyx_CyFunction_Vectorcall_NOARGS+0xa8>
    5db5:	48 85 c9             	test   %rcx,%rcx
    5db8:	75 7e                	jne    5e38 <__Pyx_CyFunction_Vectorcall_NOARGS+0xc8>
    5dba:	48 8b 3e             	mov    (%rsi),%rdi
    5dbd:	48 83 ea 01          	sub    $0x1,%rdx
    5dc1:	eb d5                	jmp    5d98 <__Pyx_CyFunction_Vectorcall_NOARGS+0x28>
    5dc3:	0f 1f 44 00 00       	nopl   0x0(%rax,%rax,1)
    5dc8:	48 8b 05 89 91 00 00 	mov    0x9189(%rip),%rax        # ef58 <PyExc_TypeError@Base>
    5dcf:	48 89 d1             	mov    %rdx,%rcx
    5dd2:	49 8b 10             	mov    (%r8),%rdx
    5dd5:	48 8d 35 24 62 00 00 	lea    0x6224(%rip),%rsi        # c000 <_fini+0x288>
    5ddc:	48 8b 38             	mov    (%rax),%rdi
    5ddf:	31 c0                	xor    %eax,%eax
    5de1:	e8 aa dc ff ff       	call   3a90 <PyErr_Format@plt>
    5de6:	31 c0                	xor    %eax,%eax
    5de8:	48 83 c4 08          	add    $0x8,%rsp
    5dec:	c3                   	ret    
    5ded:	0f 1f 00             	nopl   (%rax)
    5df0:	48 83 79 10 00       	cmpq   $0x0,0x10(%rcx)
    5df5:	74 9d                	je     5d94 <__Pyx_CyFunction_Vectorcall_NOARGS+0x24>
    5df7:	48 8b 05 5a 91 00 00 	mov    0x915a(%rip),%rax        # ef58 <PyExc_TypeError@Base>
    5dfe:	49 8b 10             	mov    (%r8),%rdx
    5e01:	48 8d 35 50 62 00 00 	lea    0x6250(%rip),%rsi        # c058 <_fini+0x2e0>
    5e08:	48 8b 38             	mov    (%rax),%rdi
    5e0b:	31 c0                	xor    %eax,%eax
    5e0d:	e8 7e dc ff ff       	call   3a90 <PyErr_Format@plt>
    5e12:	eb d2                	jmp    5de6 <__Pyx_CyFunction_Vectorcall_NOARGS+0x76>
    5e14:	0f 1f 40 00          	nopl   0x0(%rax)
    5e18:	48 8b 05 39 91 00 00 	mov    0x9139(%rip),%rax        # ef58 <PyExc_TypeError@Base>
    5e1f:	49 8b 10             	mov    (%r8),%rdx
    5e22:	48 8d 35 c5 68 00 00 	lea    0x68c5(%rip),%rsi        # c6ee <_fini+0x976>
    5e29:	48 8b 38             	mov    (%rax),%rdi
    5e2c:	31 c0                	xor    %eax,%eax
    5e2e:	e8 5d dc ff ff       	call   3a90 <PyErr_Format@plt>
    5e33:	eb b1                	jmp    5de6 <__Pyx_CyFunction_Vectorcall_NOARGS+0x76>
    5e35:	0f 1f 00             	nopl   (%rax)
    5e38:	48 83 79 10 00       	cmpq   $0x0,0x10(%rcx)
    5e3d:	0f 84 77 ff ff ff    	je     5dba <__Pyx_CyFunction_Vectorcall_NOARGS+0x4a>
    5e43:	eb b2                	jmp    5df7 <__Pyx_CyFunction_Vectorcall_NOARGS+0x87>
    5e45:	66 66 2e 0f 1f 84 00 	data16 cs nopw 0x0(%rax,%rax,1)
    5e4c:	00 00 00 00 

0000000000005e50 <__Pyx_CyFunction_init_defaults>:
    5e50:	41 54                	push   %r12
    5e52:	53                   	push   %rbx
    5e53:	48 89 fb             	mov    %rdi,%rbx
    5e56:	48 83 ec 08          	sub    $0x8,%rsp
    5e5a:	ff 97 a8 00 00 00    	call   *0xa8(%rdi)
    5e60:	48 85 c0             	test   %rax,%rax
    5e63:	74 4b                	je     5eb0 <__Pyx_CyFunction_init_defaults+0x60>
    5e65:	48 89 c7             	mov    %rax,%rdi
    5e68:	48 8b 40 18          	mov    0x18(%rax),%rax
    5e6c:	41 bc 00 00 00 00    	mov    $0x0,%r12d
    5e72:	48 89 83 98 00 00 00 	mov    %rax,0x98(%rbx)
    5e79:	48 83 00 01          	addq   $0x1,(%rax)
    5e7d:	48 8b 47 20          	mov    0x20(%rdi),%rax
    5e81:	48 89 83 a0 00 00 00 	mov    %rax,0xa0(%rbx)
    5e88:	48 83 00 01          	addq   $0x1,(%rax)
    5e8c:	48 83 2f 01          	subq   $0x1,(%rdi)
    5e90:	74 0e                	je     5ea0 <__Pyx_CyFunction_init_defaults+0x50>
    5e92:	48 83 c4 08          	add    $0x8,%rsp
    5e96:	44 89 e0             	mov    %r12d,%eax
    5e99:	5b                   	pop    %rbx
    5e9a:	41 5c                	pop    %r12
    5e9c:	c3                   	ret    
    5e9d:	0f 1f 00             	nopl   (%rax)
    5ea0:	e8 6b d8 ff ff       	call   3710 <_Py_Dealloc@plt>
    5ea5:	48 83 c4 08          	add    $0x8,%rsp
    5ea9:	44 89 e0             	mov    %r12d,%eax
    5eac:	5b                   	pop    %rbx
    5ead:	41 5c                	pop    %r12
    5eaf:	c3                   	ret    
    5eb0:	41 bc ff ff ff ff    	mov    $0xffffffff,%r12d
    5eb6:	48 83 c4 08          	add    $0x8,%rsp
    5eba:	44 89 e0             	mov    %r12d,%eax
    5ebd:	5b                   	pop    %rbx
    5ebe:	41 5c                	pop    %r12
    5ec0:	c3                   	ret    
    5ec1:	66 66 2e 0f 1f 84 00 	data16 cs nopw 0x0(%rax,%rax,1)
    5ec8:	00 00 00 00 
    5ecc:	0f 1f 40 00          	nopl   0x0(%rax)

0000000000005ed0 <__Pyx_CyFunction_get_kwdefaults>:
    5ed0:	f3 0f 1e fa          	endbr64 
    5ed4:	41 54                	push   %r12
    5ed6:	48 83 ec 10          	sub    $0x10,%rsp
    5eda:	4c 8b a7 a0 00 00 00 	mov    0xa0(%rdi),%r12
    5ee1:	4d 85 e4             	test   %r12,%r12
    5ee4:	74 12                	je     5ef8 <__Pyx_CyFunction_get_kwdefaults+0x28>
    5ee6:	49 83 04 24 01       	addq   $0x1,(%r12)
    5eeb:	48 83 c4 10          	add    $0x10,%rsp
    5eef:	4c 89 e0             	mov    %r12,%rax
    5ef2:	41 5c                	pop    %r12
    5ef4:	c3                   	ret    
    5ef5:	0f 1f 00             	nopl   (%rax)
    5ef8:	48 83 bf a8 00 00 00 	cmpq   $0x0,0xa8(%rdi)
    5eff:	00 
    5f00:	74 1e                	je     5f20 <__Pyx_CyFunction_get_kwdefaults+0x50>
    5f02:	48 89 7c 24 08       	mov    %rdi,0x8(%rsp)
    5f07:	e8 44 ff ff ff       	call   5e50 <__Pyx_CyFunction_init_defaults>
    5f0c:	85 c0                	test   %eax,%eax
    5f0e:	78 db                	js     5eeb <__Pyx_CyFunction_get_kwdefaults+0x1b>
    5f10:	48 8b 7c 24 08       	mov    0x8(%rsp),%rdi
    5f15:	4c 8b a7 a0 00 00 00 	mov    0xa0(%rdi),%r12
    5f1c:	eb c8                	jmp    5ee6 <__Pyx_CyFunction_get_kwdefaults+0x16>
    5f1e:	66 90                	xchg   %ax,%ax
    5f20:	4c 8b 25 59 90 00 00 	mov    0x9059(%rip),%r12        # ef80 <_Py_NoneStruct@Base>
    5f27:	eb bd                	jmp    5ee6 <__Pyx_CyFunction_get_kwdefaults+0x16>
    5f29:	0f 1f 80 00 00 00 00 	nopl   0x0(%rax)

0000000000005f30 <__Pyx_CyFunction_get_defaults>:
    5f30:	f3 0f 1e fa          	endbr64 
    5f34:	41 54                	push   %r12
    5f36:	48 83 ec 10          	sub    $0x10,%rsp
    5f3a:	4c 8b a7 98 00 00 00 	mov    0x98(%rdi),%r12
    5f41:	4d 85 e4             	test   %r12,%r12
    5f44:	74 12                	je     5f58 <__Pyx_CyFunction_get_defaults+0x28>
    5f46:	49 83 04 24 01       	addq   $0x1,(%r12)
    5f4b:	48 83 c4 10          	add    $0x10,%rsp
    5f4f:	4c 89 e0             	mov    %r12,%rax
    5f52:	41 5c                	pop    %r12
    5f54:	c3                   	ret    
    5f55:	0f 1f 00             	nopl   (%rax)
    5f58:	48 83 bf a8 00 00 00 	cmpq   $0x0,0xa8(%rdi)
    5f5f:	00 
    5f60:	74 1e                	je     5f80 <__Pyx_CyFunction_get_defaults+0x50>
    5f62:	48 89 7c 24 08       	mov    %rdi,0x8(%rsp)
    5f67:	e8 e4 fe ff ff       	call   5e50 <__Pyx_CyFunction_init_defaults>
    5f6c:	85 c0                	test   %eax,%eax
    5f6e:	78 db                	js     5f4b <__Pyx_CyFunction_get_defaults+0x1b>
    5f70:	48 8b 7c 24 08       	mov    0x8(%rsp),%rdi
    5f75:	4c 8b a7 98 00 00 00 	mov    0x98(%rdi),%r12
    5f7c:	eb c8                	jmp    5f46 <__Pyx_CyFunction_get_defaults+0x16>
    5f7e:	66 90                	xchg   %ax,%ax
    5f80:	4c 8b 25 f9 8f 00 00 	mov    0x8ff9(%rip),%r12        # ef80 <_Py_NoneStruct@Base>
    5f87:	eb bd                	jmp    5f46 <__Pyx_CyFunction_get_defaults+0x16>
    5f89:	0f 1f 80 00 00 00 00 	nopl   0x0(%rax)

0000000000005f90 <__Pyx_CyFunction_set_doc>:
    5f90:	f3 0f 1e fa          	endbr64 
    5f94:	48 85 f6             	test   %rsi,%rsi
    5f97:	74 1f                	je     5fb8 <__Pyx_CyFunction_set_doc+0x28>
    5f99:	4c 8b 47 58          	mov    0x58(%rdi),%r8
    5f9d:	48 83 06 01          	addq   $0x1,(%rsi)
    5fa1:	48 89 77 58          	mov    %rsi,0x58(%rdi)
    5fa5:	4d 85 c0             	test   %r8,%r8
    5fa8:	74 06                	je     5fb0 <__Pyx_CyFunction_set_doc+0x20>
    5faa:	49 83 28 01          	subq   $0x1,(%r8)
    5fae:	74 18                	je     5fc8 <__Pyx_CyFunction_set_doc+0x38>
    5fb0:	31 c0                	xor    %eax,%eax
    5fb2:	c3                   	ret    
    5fb3:	0f 1f 44 00 00       	nopl   0x0(%rax,%rax,1)
    5fb8:	48 8b 35 c1 8f 00 00 	mov    0x8fc1(%rip),%rsi        # ef80 <_Py_NoneStruct@Base>
    5fbf:	eb d8                	jmp    5f99 <__Pyx_CyFunction_set_doc+0x9>
    5fc1:	0f 1f 80 00 00 00 00 	nopl   0x0(%rax)
    5fc8:	48 83 ec 08          	sub    $0x8,%rsp
    5fcc:	4c 89 c7             	mov    %r8,%rdi
    5fcf:	e8 3c d7 ff ff       	call   3710 <_Py_Dealloc@plt>
    5fd4:	31 c0                	xor    %eax,%eax
    5fd6:	48 83 c4 08          	add    $0x8,%rsp
    5fda:	c3                   	ret    
    5fdb:	0f 1f 44 00 00       	nopl   0x0(%rax,%rax,1)

0000000000005fe0 <__Pyx_CyFunction_set_annotations>:
    5fe0:	f3 0f 1e fa          	endbr64 
    5fe4:	48 83 ec 08          	sub    $0x8,%rsp
    5fe8:	48 3b 35 91 8f 00 00 	cmp    0x8f91(%rip),%rsi        # ef80 <_Py_NoneStruct@Base>
    5fef:	74 1f                	je     6010 <__Pyx_CyFunction_set_annotations+0x30>
    5ff1:	48 85 f6             	test   %rsi,%rsi
    5ff4:	74 1a                	je     6010 <__Pyx_CyFunction_set_annotations+0x30>
    5ff6:	48 8b 46 08          	mov    0x8(%rsi),%rax
    5ffa:	f6 80 ab 00 00 00 20 	testb  $0x20,0xab(%rax)
    6001:	74 45                	je     6048 <__Pyx_CyFunction_set_annotations+0x68>
    6003:	48 83 06 01          	addq   $0x1,(%rsi)
    6007:	eb 09                	jmp    6012 <__Pyx_CyFunction_set_annotations+0x32>
    6009:	0f 1f 80 00 00 00 00 	nopl   0x0(%rax)
    6010:	31 f6                	xor    %esi,%esi
    6012:	4c 8b 87 b0 00 00 00 	mov    0xb0(%rdi),%r8
    6019:	48 89 b7 b0 00 00 00 	mov    %rsi,0xb0(%rdi)
    6020:	4d 85 c0             	test   %r8,%r8
    6023:	74 06                	je     602b <__Pyx_CyFunction_set_annotations+0x4b>
    6025:	49 83 28 01          	subq   $0x1,(%r8)
    6029:	74 0d                	je     6038 <__Pyx_CyFunction_set_annotations+0x58>
    602b:	31 c0                	xor    %eax,%eax
    602d:	48 83 c4 08          	add    $0x8,%rsp
    6031:	c3                   	ret    
    6032:	66 0f 1f 44 00 00    	nopw   0x0(%rax,%rax,1)
    6038:	4c 89 c7             	mov    %r8,%rdi
    603b:	e8 d0 d6 ff ff       	call   3710 <_Py_Dealloc@plt>
    6040:	eb e9                	jmp    602b <__Pyx_CyFunction_set_annotations+0x4b>
    6042:	66 0f 1f 44 00 00    	nopw   0x0(%rax,%rax,1)
    6048:	48 8b 05 09 8f 00 00 	mov    0x8f09(%rip),%rax        # ef58 <PyExc_TypeError@Base>
    604f:	48 8d 35 8a 60 00 00 	lea    0x608a(%rip),%rsi        # c0e0 <_fini+0x368>
    6056:	48 8b 38             	mov    (%rax),%rdi
    6059:	e8 42 d7 ff ff       	call   37a0 <PyErr_SetString@plt>
    605e:	b8 ff ff ff ff       	mov    $0xffffffff,%eax
    6063:	eb c8                	jmp    602d <__Pyx_CyFunction_set_annotations+0x4d>
    6065:	66 66 2e 0f 1f 84 00 	data16 cs nopw 0x0(%rax,%rax,1)
    606c:	00 00 00 00 

0000000000006070 <__Pyx_CyFunction_set_qualname>:
    6070:	f3 0f 1e fa          	endbr64 
    6074:	48 83 ec 08          	sub    $0x8,%rsp
    6078:	48 85 f6             	test   %rsi,%rsi
    607b:	74 43                	je     60c0 <__Pyx_CyFunction_set_qualname+0x50>
    607d:	48 8b 46 08          	mov    0x8(%rsi),%rax
    6081:	f6 80 ab 00 00 00 10 	testb  $0x10,0xab(%rax)
    6088:	74 36                	je     60c0 <__Pyx_CyFunction_set_qualname+0x50>
    608a:	4c 8b 47 50          	mov    0x50(%rdi),%r8
    608e:	48 83 06 01          	addq   $0x1,(%rsi)
    6092:	48 89 77 50          	mov    %rsi,0x50(%rdi)
    6096:	4d 85 c0             	test   %r8,%r8
    6099:	74 06                	je     60a1 <__Pyx_CyFunction_set_qualname+0x31>
    609b:	49 83 28 01          	subq   $0x1,(%r8)
    609f:	74 0f                	je     60b0 <__Pyx_CyFunction_set_qualname+0x40>
    60a1:	31 c0                	xor    %eax,%eax
    60a3:	48 83 c4 08          	add    $0x8,%rsp
    60a7:	c3                   	ret    
    60a8:	0f 1f 84 00 00 00 00 	nopl   0x0(%rax,%rax,1)
    60af:	00 
    60b0:	4c 89 c7             	mov    %r8,%rdi
    60b3:	e8 58 d6 ff ff       	call   3710 <_Py_Dealloc@plt>
    60b8:	eb e7                	jmp    60a1 <__Pyx_CyFunction_set_qualname+0x31>
    60ba:	66 0f 1f 44 00 00    	nopw   0x0(%rax,%rax,1)
    60c0:	48 8b 05 91 8e 00 00 	mov    0x8e91(%rip),%rax        # ef58 <PyExc_TypeError@Base>
    60c7:	48 8d 35 42 60 00 00 	lea    0x6042(%rip),%rsi        # c110 <_fini+0x398>
    60ce:	48 8b 38             	mov    (%rax),%rdi
    60d1:	e8 ca d6 ff ff       	call   37a0 <PyErr_SetString@plt>
    60d6:	b8 ff ff ff ff       	mov    $0xffffffff,%eax
    60db:	48 83 c4 08          	add    $0x8,%rsp
    60df:	c3                   	ret    

00000000000060e0 <__Pyx_CyFunction_set_name>:
    60e0:	f3 0f 1e fa          	endbr64 
    60e4:	48 83 ec 08          	sub    $0x8,%rsp
    60e8:	48 85 f6             	test   %rsi,%rsi
    60eb:	74 43                	je     6130 <__Pyx_CyFunction_set_name+0x50>
    60ed:	48 8b 46 08          	mov    0x8(%rsi),%rax
    60f1:	f6 80 ab 00 00 00 10 	testb  $0x10,0xab(%rax)
    60f8:	74 36                	je     6130 <__Pyx_CyFunction_set_name+0x50>
    60fa:	4c 8b 47 48          	mov    0x48(%rdi),%r8
    60fe:	48 83 06 01          	addq   $0x1,(%rsi)
    6102:	48 89 77 48          	mov    %rsi,0x48(%rdi)
    6106:	4d 85 c0             	test   %r8,%r8
    6109:	74 06                	je     6111 <__Pyx_CyFunction_set_name+0x31>
    610b:	49 83 28 01          	subq   $0x1,(%r8)
    610f:	74 0f                	je     6120 <__Pyx_CyFunction_set_name+0x40>
    6111:	31 c0                	xor    %eax,%eax
    6113:	48 83 c4 08          	add    $0x8,%rsp
    6117:	c3                   	ret    
    6118:	0f 1f 84 00 00 00 00 	nopl   0x0(%rax,%rax,1)
    611f:	00 
    6120:	4c 89 c7             	mov    %r8,%rdi
    6123:	e8 e8 d5 ff ff       	call   3710 <_Py_Dealloc@plt>
    6128:	eb e7                	jmp    6111 <__Pyx_CyFunction_set_name+0x31>
    612a:	66 0f 1f 44 00 00    	nopw   0x0(%rax,%rax,1)
    6130:	48 8b 05 21 8e 00 00 	mov    0x8e21(%rip),%rax        # ef58 <PyExc_TypeError@Base>
    6137:	48 8d 35 02 60 00 00 	lea    0x6002(%rip),%rsi        # c140 <_fini+0x3c8>
    613e:	48 8b 38             	mov    (%rax),%rdi
    6141:	e8 5a d6 ff ff       	call   37a0 <PyErr_SetString@plt>
    6146:	b8 ff ff ff ff       	mov    $0xffffffff,%eax
    614b:	48 83 c4 08          	add    $0x8,%rsp
    614f:	c3                   	ret    

0000000000006150 <__Pyx_CyFunction_set_defaults>:
    6150:	f3 0f 1e fa          	endbr64 
    6154:	55                   	push   %rbp
    6155:	48 89 fd             	mov    %rdi,%rbp
    6158:	53                   	push   %rbx
    6159:	48 83 ec 08          	sub    $0x8,%rsp
    615d:	48 8b 05 1c 8e 00 00 	mov    0x8e1c(%rip),%rax        # ef80 <_Py_NoneStruct@Base>
    6164:	48 39 c6             	cmp    %rax,%rsi
    6167:	74 08                	je     6171 <__Pyx_CyFunction_set_defaults+0x21>
    6169:	48 89 f3             	mov    %rsi,%rbx
    616c:	48 85 f6             	test   %rsi,%rsi
    616f:	75 4f                	jne    61c0 <__Pyx_CyFunction_set_defaults+0x70>
    6171:	48 89 c3             	mov    %rax,%rbx
    6174:	48 8b 05 45 8e 00 00 	mov    0x8e45(%rip),%rax        # efc0 <PyExc_RuntimeWarning@Base>
    617b:	ba 01 00 00 00       	mov    $0x1,%edx
    6180:	48 8d 35 11 60 00 00 	lea    0x6011(%rip),%rsi        # c198 <_fini+0x420>
    6187:	48 8b 38             	mov    (%rax),%rdi
    618a:	e8 71 d5 ff ff       	call   3700 <PyErr_WarnEx@plt>
    618f:	48 8b bd 98 00 00 00 	mov    0x98(%rbp),%rdi
    6196:	48 83 03 01          	addq   $0x1,(%rbx)
    619a:	48 89 9d 98 00 00 00 	mov    %rbx,0x98(%rbp)
    61a1:	48 85 ff             	test   %rdi,%rdi
    61a4:	74 06                	je     61ac <__Pyx_CyFunction_set_defaults+0x5c>
    61a6:	48 83 2f 01          	subq   $0x1,(%rdi)
    61aa:	74 0c                	je     61b8 <__Pyx_CyFunction_set_defaults+0x68>
    61ac:	31 c0                	xor    %eax,%eax
    61ae:	48 83 c4 08          	add    $0x8,%rsp
    61b2:	5b                   	pop    %rbx
    61b3:	5d                   	pop    %rbp
    61b4:	c3                   	ret    
    61b5:	0f 1f 00             	nopl   (%rax)
    61b8:	e8 53 d5 ff ff       	call   3710 <_Py_Dealloc@plt>
    61bd:	eb ed                	jmp    61ac <__Pyx_CyFunction_set_defaults+0x5c>
    61bf:	90                   	nop
    61c0:	48 8b 46 08          	mov    0x8(%rsi),%rax
    61c4:	f6 80 ab 00 00 00 04 	testb  $0x4,0xab(%rax)
    61cb:	75 a7                	jne    6174 <__Pyx_CyFunction_set_defaults+0x24>
    61cd:	48 8b 05 84 8d 00 00 	mov    0x8d84(%rip),%rax        # ef58 <PyExc_TypeError@Base>
    61d4:	48 8d 35 8d 5f 00 00 	lea    0x5f8d(%rip),%rsi        # c168 <_fini+0x3f0>
    61db:	48 8b 38             	mov    (%rax),%rdi
    61de:	e8 bd d5 ff ff       	call   37a0 <PyErr_SetString@plt>
    61e3:	b8 ff ff ff ff       	mov    $0xffffffff,%eax
    61e8:	eb c4                	jmp    61ae <__Pyx_CyFunction_set_defaults+0x5e>
    61ea:	66 0f 1f 44 00 00    	nopw   0x0(%rax,%rax,1)

00000000000061f0 <__Pyx_CyFunction_set_kwdefaults>:
    61f0:	f3 0f 1e fa          	endbr64 
    61f4:	55                   	push   %rbp
    61f5:	48 89 fd             	mov    %rdi,%rbp
    61f8:	53                   	push   %rbx
    61f9:	48 83 ec 08          	sub    $0x8,%rsp
    61fd:	48 8b 05 7c 8d 00 00 	mov    0x8d7c(%rip),%rax        # ef80 <_Py_NoneStruct@Base>
    6204:	48 39 c6             	cmp    %rax,%rsi
    6207:	74 08                	je     6211 <__Pyx_CyFunction_set_kwdefaults+0x21>
    6209:	48 89 f3             	mov    %rsi,%rbx
    620c:	48 85 f6             	test   %rsi,%rsi
    620f:	75 4f                	jne    6260 <__Pyx_CyFunction_set_kwdefaults+0x70>
    6211:	48 89 c3             	mov    %rax,%rbx
    6214:	48 8b 05 a5 8d 00 00 	mov    0x8da5(%rip),%rax        # efc0 <PyExc_RuntimeWarning@Base>
    621b:	ba 01 00 00 00       	mov    $0x1,%edx
    6220:	48 8d 35 01 60 00 00 	lea    0x6001(%rip),%rsi        # c228 <_fini+0x4b0>
    6227:	48 8b 38             	mov    (%rax),%rdi
    622a:	e8 d1 d4 ff ff       	call   3700 <PyErr_WarnEx@plt>
    622f:	48 8b bd a0 00 00 00 	mov    0xa0(%rbp),%rdi
    6236:	48 83 03 01          	addq   $0x1,(%rbx)
    623a:	48 89 9d a0 00 00 00 	mov    %rbx,0xa0(%rbp)
    6241:	48 85 ff             	test   %rdi,%rdi
    6244:	74 06                	je     624c <__Pyx_CyFunction_set_kwdefaults+0x5c>
    6246:	48 83 2f 01          	subq   $0x1,(%rdi)
    624a:	74 0c                	je     6258 <__Pyx_CyFunction_set_kwdefaults+0x68>
    624c:	31 c0                	xor    %eax,%eax
    624e:	48 83 c4 08          	add    $0x8,%rsp
    6252:	5b                   	pop    %rbx
    6253:	5d                   	pop    %rbp
    6254:	c3                   	ret    
    6255:	0f 1f 00             	nopl   (%rax)
    6258:	e8 b3 d4 ff ff       	call   3710 <_Py_Dealloc@plt>
    625d:	eb ed                	jmp    624c <__Pyx_CyFunction_set_kwdefaults+0x5c>
    625f:	90                   	nop
    6260:	48 8b 46 08          	mov    0x8(%rsi),%rax
    6264:	f6 80 ab 00 00 00 20 	testb  $0x20,0xab(%rax)
    626b:	75 a7                	jne    6214 <__Pyx_CyFunction_set_kwdefaults+0x24>
    626d:	48 8b 05 e4 8c 00 00 	mov    0x8ce4(%rip),%rax        # ef58 <PyExc_TypeError@Base>
    6274:	48 8d 35 7d 5f 00 00 	lea    0x5f7d(%rip),%rsi        # c1f8 <_fini+0x480>
    627b:	48 8b 38             	mov    (%rax),%rdi
    627e:	e8 1d d5 ff ff       	call   37a0 <PyErr_SetString@plt>
    6283:	b8 ff ff ff ff       	mov    $0xffffffff,%eax
    6288:	eb c4                	jmp    624e <__Pyx_CyFunction_set_kwdefaults+0x5e>
    628a:	66 0f 1f 44 00 00    	nopw   0x0(%rax,%rax,1)

0000000000006290 <__Pyx_CyFunction_set_dict>:
    6290:	f3 0f 1e fa          	endbr64 
    6294:	48 83 ec 08          	sub    $0x8,%rsp
    6298:	48 85 f6             	test   %rsi,%rsi
    629b:	74 43                	je     62e0 <__Pyx_CyFunction_set_dict+0x50>
    629d:	48 8b 46 08          	mov    0x8(%rsi),%rax
    62a1:	f6 80 ab 00 00 00 20 	testb  $0x20,0xab(%rax)
    62a8:	74 56                	je     6300 <__Pyx_CyFunction_set_dict+0x70>
    62aa:	4c 8b 47 40          	mov    0x40(%rdi),%r8
    62ae:	48 83 06 01          	addq   $0x1,(%rsi)
    62b2:	48 89 77 40          	mov    %rsi,0x40(%rdi)
    62b6:	4d 85 c0             	test   %r8,%r8
    62b9:	74 06                	je     62c1 <__Pyx_CyFunction_set_dict+0x31>
    62bb:	49 83 28 01          	subq   $0x1,(%r8)
    62bf:	74 0f                	je     62d0 <__Pyx_CyFunction_set_dict+0x40>
    62c1:	31 c0                	xor    %eax,%eax
    62c3:	48 83 c4 08          	add    $0x8,%rsp
    62c7:	c3                   	ret    
    62c8:	0f 1f 84 00 00 00 00 	nopl   0x0(%rax,%rax,1)
    62cf:	00 
    62d0:	4c 89 c7             	mov    %r8,%rdi
    62d3:	e8 38 d4 ff ff       	call   3710 <_Py_Dealloc@plt>
    62d8:	eb e7                	jmp    62c1 <__Pyx_CyFunction_set_dict+0x31>
    62da:	66 0f 1f 44 00 00    	nopw   0x0(%rax,%rax,1)
    62e0:	48 8b 05 71 8c 00 00 	mov    0x8c71(%rip),%rax        # ef58 <PyExc_TypeError@Base>
    62e7:	48 8d 35 a2 5f 00 00 	lea    0x5fa2(%rip),%rsi        # c290 <_fini+0x518>
    62ee:	48 8b 38             	mov    (%rax),%rdi
    62f1:	e8 aa d4 ff ff       	call   37a0 <PyErr_SetString@plt>
    62f6:	b8 ff ff ff ff       	mov    $0xffffffff,%eax
    62fb:	48 83 c4 08          	add    $0x8,%rsp
    62ff:	c3                   	ret    
    6300:	48 8b 05 51 8c 00 00 	mov    0x8c51(%rip),%rax        # ef58 <PyExc_TypeError@Base>
    6307:	48 8d 35 b2 5f 00 00 	lea    0x5fb2(%rip),%rsi        # c2c0 <_fini+0x548>
    630e:	48 8b 38             	mov    (%rax),%rdi
    6311:	e8 8a d4 ff ff       	call   37a0 <PyErr_SetString@plt>
    6316:	b8 ff ff ff ff       	mov    $0xffffffff,%eax
    631b:	eb a6                	jmp    62c3 <__Pyx_CyFunction_set_dict+0x33>
    631d:	0f 1f 00             	nopl   (%rax)

0000000000006320 <__Pyx_CyFunction_clear>:
    6320:	f3 0f 1e fa          	endbr64 
    6324:	41 54                	push   %r12
    6326:	55                   	push   %rbp
    6327:	53                   	push   %rbx
    6328:	48 89 fb             	mov    %rdi,%rbx
    632b:	48 8b 7f 70          	mov    0x70(%rdi),%rdi
    632f:	48 85 ff             	test   %rdi,%rdi
    6332:	74 12                	je     6346 <__Pyx_CyFunction_clear+0x26>
    6334:	48 c7 43 70 00 00 00 	movq   $0x0,0x70(%rbx)
    633b:	00 
    633c:	48 83 2f 01          	subq   $0x1,(%rdi)
    6340:	0f 84 ca 01 00 00    	je     6510 <__Pyx_CyFunction_clear+0x1f0>
    6346:	48 8b 7b 20          	mov    0x20(%rbx),%rdi
    634a:	48 85 ff             	test   %rdi,%rdi
    634d:	74 12                	je     6361 <__Pyx_CyFunction_clear+0x41>
    634f:	48 c7 43 20 00 00 00 	movq   $0x0,0x20(%rbx)
    6356:	00 
    6357:	48 83 2f 01          	subq   $0x1,(%rdi)
    635b:	0f 84 bf 01 00 00    	je     6520 <__Pyx_CyFunction_clear+0x200>
    6361:	48 8b 7b 40          	mov    0x40(%rbx),%rdi
    6365:	48 85 ff             	test   %rdi,%rdi
    6368:	74 12                	je     637c <__Pyx_CyFunction_clear+0x5c>
    636a:	48 c7 43 40 00 00 00 	movq   $0x0,0x40(%rbx)
    6371:	00 
    6372:	48 83 2f 01          	subq   $0x1,(%rdi)
    6376:	0f 84 b4 01 00 00    	je     6530 <__Pyx_CyFunction_clear+0x210>
    637c:	48 8b 7b 48          	mov    0x48(%rbx),%rdi
    6380:	48 85 ff             	test   %rdi,%rdi
    6383:	74 12                	je     6397 <__Pyx_CyFunction_clear+0x77>
    6385:	48 c7 43 48 00 00 00 	movq   $0x0,0x48(%rbx)
    638c:	00 
    638d:	48 83 2f 01          	subq   $0x1,(%rdi)
    6391:	0f 84 a9 01 00 00    	je     6540 <__Pyx_CyFunction_clear+0x220>
    6397:	48 8b 7b 50          	mov    0x50(%rbx),%rdi
    639b:	48 85 ff             	test   %rdi,%rdi
    639e:	74 12                	je     63b2 <__Pyx_CyFunction_clear+0x92>
    63a0:	48 c7 43 50 00 00 00 	movq   $0x0,0x50(%rbx)
    63a7:	00 
    63a8:	48 83 2f 01          	subq   $0x1,(%rdi)
    63ac:	0f 84 9e 01 00 00    	je     6550 <__Pyx_CyFunction_clear+0x230>
    63b2:	48 8b 7b 58          	mov    0x58(%rbx),%rdi
    63b6:	48 85 ff             	test   %rdi,%rdi
    63b9:	74 12                	je     63cd <__Pyx_CyFunction_clear+0xad>
    63bb:	48 c7 43 58 00 00 00 	movq   $0x0,0x58(%rbx)
    63c2:	00 
    63c3:	48 83 2f 01          	subq   $0x1,(%rdi)
    63c7:	0f 84 93 01 00 00    	je     6560 <__Pyx_CyFunction_clear+0x240>
    63cd:	48 8b 7b 60          	mov    0x60(%rbx),%rdi
    63d1:	48 85 ff             	test   %rdi,%rdi
    63d4:	74 12                	je     63e8 <__Pyx_CyFunction_clear+0xc8>
    63d6:	48 c7 43 60 00 00 00 	movq   $0x0,0x60(%rbx)
    63dd:	00 
    63de:	48 83 2f 01          	subq   $0x1,(%rdi)
    63e2:	0f 84 88 01 00 00    	je     6570 <__Pyx_CyFunction_clear+0x250>
    63e8:	48 8b 7b 68          	mov    0x68(%rbx),%rdi
    63ec:	48 85 ff             	test   %rdi,%rdi
    63ef:	74 12                	je     6403 <__Pyx_CyFunction_clear+0xe3>
    63f1:	48 c7 43 68 00 00 00 	movq   $0x0,0x68(%rbx)
    63f8:	00 
    63f9:	48 83 2f 01          	subq   $0x1,(%rdi)
    63fd:	0f 84 7d 01 00 00    	je     6580 <__Pyx_CyFunction_clear+0x260>
    6403:	48 8b 7b 38          	mov    0x38(%rbx),%rdi
    6407:	48 c7 43 38 00 00 00 	movq   $0x0,0x38(%rbx)
    640e:	00 
    640f:	48 85 ff             	test   %rdi,%rdi
    6412:	74 0a                	je     641e <__Pyx_CyFunction_clear+0xfe>
    6414:	48 83 2f 01          	subq   $0x1,(%rdi)
    6418:	0f 84 72 01 00 00    	je     6590 <__Pyx_CyFunction_clear+0x270>
    641e:	48 8b bb 98 00 00 00 	mov    0x98(%rbx),%rdi
    6425:	48 85 ff             	test   %rdi,%rdi
    6428:	74 15                	je     643f <__Pyx_CyFunction_clear+0x11f>
    642a:	48 c7 83 98 00 00 00 	movq   $0x0,0x98(%rbx)
    6431:	00 00 00 00 
    6435:	48 83 2f 01          	subq   $0x1,(%rdi)
    6439:	0f 84 61 01 00 00    	je     65a0 <__Pyx_CyFunction_clear+0x280>
    643f:	48 8b bb a0 00 00 00 	mov    0xa0(%rbx),%rdi
    6446:	48 85 ff             	test   %rdi,%rdi
    6449:	74 15                	je     6460 <__Pyx_CyFunction_clear+0x140>
    644b:	48 c7 83 a0 00 00 00 	movq   $0x0,0xa0(%rbx)
    6452:	00 00 00 00 
    6456:	48 83 2f 01          	subq   $0x1,(%rdi)
    645a:	0f 84 50 01 00 00    	je     65b0 <__Pyx_CyFunction_clear+0x290>
    6460:	48 8b bb b0 00 00 00 	mov    0xb0(%rbx),%rdi
    6467:	48 85 ff             	test   %rdi,%rdi
    646a:	74 15                	je     6481 <__Pyx_CyFunction_clear+0x161>
    646c:	48 c7 83 b0 00 00 00 	movq   $0x0,0xb0(%rbx)
    6473:	00 00 00 00 
    6477:	48 83 2f 01          	subq   $0x1,(%rdi)
    647b:	0f 84 3f 01 00 00    	je     65c0 <__Pyx_CyFunction_clear+0x2a0>
    6481:	48 8b bb b8 00 00 00 	mov    0xb8(%rbx),%rdi
    6488:	48 85 ff             	test   %rdi,%rdi
    648b:	74 11                	je     649e <__Pyx_CyFunction_clear+0x17e>
    648d:	48 c7 83 b8 00 00 00 	movq   $0x0,0xb8(%rbx)
    6494:	00 00 00 00 
    6498:	48 83 2f 01          	subq   $0x1,(%rdi)
    649c:	74 6a                	je     6508 <__Pyx_CyFunction_clear+0x1e8>
    649e:	4c 8b 63 78          	mov    0x78(%rbx),%r12
    64a2:	4d 85 e4             	test   %r12,%r12
    64a5:	74 55                	je     64fc <__Pyx_CyFunction_clear+0x1dc>
    64a7:	8b 83 80 00 00 00    	mov    0x80(%rbx),%eax
    64ad:	85 c0                	test   %eax,%eax
    64af:	7e 3b                	jle    64ec <__Pyx_CyFunction_clear+0x1cc>
    64b1:	31 ed                	xor    %ebp,%ebp
    64b3:	eb 0e                	jmp    64c3 <__Pyx_CyFunction_clear+0x1a3>
    64b5:	0f 1f 00             	nopl   (%rax)
    64b8:	83 c5 01             	add    $0x1,%ebp
    64bb:	39 ab 80 00 00 00    	cmp    %ebp,0x80(%rbx)
    64c1:	7e 25                	jle    64e8 <__Pyx_CyFunction_clear+0x1c8>
    64c3:	48 63 c5             	movslq %ebp,%rax
    64c6:	49 8b 3c c4          	mov    (%r12,%rax,8),%rdi
    64ca:	48 85 ff             	test   %rdi,%rdi
    64cd:	74 e9                	je     64b8 <__Pyx_CyFunction_clear+0x198>
    64cf:	48 83 2f 01          	subq   $0x1,(%rdi)
    64d3:	75 e3                	jne    64b8 <__Pyx_CyFunction_clear+0x198>
    64d5:	e8 36 d2 ff ff       	call   3710 <_Py_Dealloc@plt>
    64da:	83 c5 01             	add    $0x1,%ebp
    64dd:	39 ab 80 00 00 00    	cmp    %ebp,0x80(%rbx)
    64e3:	7f de                	jg     64c3 <__Pyx_CyFunction_clear+0x1a3>
    64e5:	0f 1f 00             	nopl   (%rax)
    64e8:	4c 8b 63 78          	mov    0x78(%rbx),%r12
    64ec:	4c 89 e7             	mov    %r12,%rdi
    64ef:	e8 7c d3 ff ff       	call   3870 <PyObject_Free@plt>
    64f4:	48 c7 43 78 00 00 00 	movq   $0x0,0x78(%rbx)
    64fb:	00 
    64fc:	5b                   	pop    %rbx
    64fd:	31 c0                	xor    %eax,%eax
    64ff:	5d                   	pop    %rbp
    6500:	41 5c                	pop    %r12
    6502:	c3                   	ret    
    6503:	0f 1f 44 00 00       	nopl   0x0(%rax,%rax,1)
    6508:	e8 03 d2 ff ff       	call   3710 <_Py_Dealloc@plt>
    650d:	eb 8f                	jmp    649e <__Pyx_CyFunction_clear+0x17e>
    650f:	90                   	nop
    6510:	e8 fb d1 ff ff       	call   3710 <_Py_Dealloc@plt>
    6515:	e9 2c fe ff ff       	jmp    6346 <__Pyx_CyFunction_clear+0x26>
    651a:	66 0f 1f 44 00 00    	nopw   0x0(%rax,%rax,1)
    6520:	e8 eb d1 ff ff       	call   3710 <_Py_Dealloc@plt>
    6525:	e9 37 fe ff ff       	jmp    6361 <__Pyx_CyFunction_clear+0x41>
    652a:	66 0f 1f 44 00 00    	nopw   0x0(%rax,%rax,1)
    6530:	e8 db d1 ff ff       	call   3710 <_Py_Dealloc@plt>
    6535:	e9 42 fe ff ff       	jmp    637c <__Pyx_CyFunction_clear+0x5c>
    653a:	66 0f 1f 44 00 00    	nopw   0x0(%rax,%rax,1)
    6540:	e8 cb d1 ff ff       	call   3710 <_Py_Dealloc@plt>
    6545:	e9 4d fe ff ff       	jmp    6397 <__Pyx_CyFunction_clear+0x77>
    654a:	66 0f 1f 44 00 00    	nopw   0x0(%rax,%rax,1)
    6550:	e8 bb d1 ff ff       	call   3710 <_Py_Dealloc@plt>
    6555:	e9 58 fe ff ff       	jmp    63b2 <__Pyx_CyFunction_clear+0x92>
    655a:	66 0f 1f 44 00 00    	nopw   0x0(%rax,%rax,1)
    6560:	e8 ab d1 ff ff       	call   3710 <_Py_Dealloc@plt>
    6565:	e9 63 fe ff ff       	jmp    63cd <__Pyx_CyFunction_clear+0xad>
    656a:	66 0f 1f 44 00 00    	nopw   0x0(%rax,%rax,1)
    6570:	e8 9b d1 ff ff       	call   3710 <_Py_Dealloc@plt>
    6575:	e9 6e fe ff ff       	jmp    63e8 <__Pyx_CyFunction_clear+0xc8>
    657a:	66 0f 1f 44 00 00    	nopw   0x0(%rax,%rax,1)
    6580:	e8 8b d1 ff ff       	call   3710 <_Py_Dealloc@plt>
    6585:	e9 79 fe ff ff       	jmp    6403 <__Pyx_CyFunction_clear+0xe3>
    658a:	66 0f 1f 44 00 00    	nopw   0x0(%rax,%rax,1)
    6590:	e8 7b d1 ff ff       	call   3710 <_Py_Dealloc@plt>
    6595:	e9 84 fe ff ff       	jmp    641e <__Pyx_CyFunction_clear+0xfe>
    659a:	66 0f 1f 44 00 00    	nopw   0x0(%rax,%rax,1)
    65a0:	e8 6b d1 ff ff       	call   3710 <_Py_Dealloc@plt>
    65a5:	e9 95 fe ff ff       	jmp    643f <__Pyx_CyFunction_clear+0x11f>
    65aa:	66 0f 1f 44 00 00    	nopw   0x0(%rax,%rax,1)
    65b0:	e8 5b d1 ff ff       	call   3710 <_Py_Dealloc@plt>
    65b5:	e9 a6 fe ff ff       	jmp    6460 <__Pyx_CyFunction_clear+0x140>
    65ba:	66 0f 1f 44 00 00    	nopw   0x0(%rax,%rax,1)
    65c0:	e8 4b d1 ff ff       	call   3710 <_Py_Dealloc@plt>
    65c5:	e9 b7 fe ff ff       	jmp    6481 <__Pyx_CyFunction_clear+0x161>
    65ca:	66 0f 1f 44 00 00    	nopw   0x0(%rax,%rax,1)

00000000000065d0 <__Pyx_CyFunction_dealloc>:
    65d0:	f3 0f 1e fa          	endbr64 
    65d4:	55                   	push   %rbp
    65d5:	48 89 fd             	mov    %rdi,%rbp
    65d8:	e8 53 d5 ff ff       	call   3b30 <PyObject_GC_UnTrack@plt>
    65dd:	48 83 7d 28 00       	cmpq   $0x0,0x28(%rbp)
    65e2:	74 08                	je     65ec <__Pyx_CyFunction_dealloc+0x1c>
    65e4:	48 89 ef             	mov    %rbp,%rdi
    65e7:	e8 34 d0 ff ff       	call   3620 <PyObject_ClearWeakRefs@plt>
    65ec:	48 89 ef             	mov    %rbp,%rdi
    65ef:	e8 2c fd ff ff       	call   6320 <__Pyx_CyFunction_clear>
    65f4:	48 89 ef             	mov    %rbp,%rdi
    65f7:	5d                   	pop    %rbp
    65f8:	e9 43 d1 ff ff       	jmp    3740 <PyObject_GC_Del@plt>
    65fd:	0f 1f 00             	nopl   (%rax)

0000000000006600 <__Pyx_CyFunction_get_is_coroutine>:
    6600:	f3 0f 1e fa          	endbr64 
    6604:	41 55                	push   %r13
    6606:	41 54                	push   %r12
    6608:	55                   	push   %rbp
    6609:	53                   	push   %rbx
    660a:	48 83 ec 08          	sub    $0x8,%rsp
    660e:	4c 8b a7 b8 00 00 00 	mov    0xb8(%rdi),%r12
    6615:	4d 85 e4             	test   %r12,%r12
    6618:	74 16                	je     6630 <__Pyx_CyFunction_get_is_coroutine+0x30>
    661a:	49 83 04 24 01       	addq   $0x1,(%r12)
    661f:	48 83 c4 08          	add    $0x8,%rsp
    6623:	4c 89 e0             	mov    %r12,%rax
    6626:	5b                   	pop    %rbx
    6627:	5d                   	pop    %rbp
    6628:	41 5c                	pop    %r12
    662a:	41 5d                	pop    %r13
    662c:	c3                   	ret    
    662d:	0f 1f 00             	nopl   (%rax)
    6630:	48 89 fb             	mov    %rdi,%rbx
    6633:	f6 87 90 00 00 00 08 	testb  $0x8,0x90(%rdi)
    663a:	75 34                	jne    6670 <__Pyx_CyFunction_get_is_coroutine+0x70>
    663c:	4c 8b 25 1d 89 00 00 	mov    0x891d(%rip),%r12        # ef60 <_Py_FalseStruct@Base>
    6643:	49 8b 04 24          	mov    (%r12),%rax
    6647:	48 83 c0 01          	add    $0x1,%rax
    664b:	49 89 04 24          	mov    %rax,(%r12)
    664f:	48 83 c0 01          	add    $0x1,%rax
    6653:	4c 89 a3 b8 00 00 00 	mov    %r12,0xb8(%rbx)
    665a:	49 89 04 24          	mov    %rax,(%r12)
    665e:	48 83 c4 08          	add    $0x8,%rsp
    6662:	4c 89 e0             	mov    %r12,%rax
    6665:	5b                   	pop    %rbx
    6666:	5d                   	pop    %rbp
    6667:	41 5c                	pop    %r12
    6669:	41 5d                	pop    %r13
    666b:	c3                   	ret    
    666c:	0f 1f 40 00          	nopl   0x0(%rax)
    6670:	bf 01 00 00 00       	mov    $0x1,%edi
    6675:	4c 8b 2d 44 94 00 00 	mov    0x9444(%rip),%r13        # fac0 <__pyx_mstate_global_static+0xe0>
    667c:	e8 4f cf ff ff       	call   35d0 <PyList_New@plt>
    6681:	49 89 c4             	mov    %rax,%r12
    6684:	48 85 c0             	test   %rax,%rax
    6687:	74 96                	je     661f <__Pyx_CyFunction_get_is_coroutine+0x1f>
    6689:	48 8b 40 18          	mov    0x18(%rax),%rax
    668d:	49 83 45 00 01       	addq   $0x1,0x0(%r13)
    6692:	45 31 c0             	xor    %r8d,%r8d
    6695:	31 d2                	xor    %edx,%edx
    6697:	31 f6                	xor    %esi,%esi
    6699:	4c 89 e1             	mov    %r12,%rcx
    669c:	4c 89 28             	mov    %r13,(%rax)
    669f:	48 8b 3d aa 93 00 00 	mov    0x93aa(%rip),%rdi        # fa50 <__pyx_mstate_global_static+0x70>
    66a6:	e8 15 d3 ff ff       	call   39c0 <PyImport_ImportModuleLevelObject@plt>
    66ab:	49 83 2c 24 01       	subq   $0x1,(%r12)
    66b0:	48 89 c5             	mov    %rax,%rbp
    66b3:	74 6b                	je     6720 <__Pyx_CyFunction_get_is_coroutine+0x120>
    66b5:	48 85 ed             	test   %rbp,%rbp
    66b8:	74 32                	je     66ec <__Pyx_CyFunction_get_is_coroutine+0xec>
    66ba:	48 8b 45 08          	mov    0x8(%rbp),%rax
    66be:	4c 89 ee             	mov    %r13,%rsi
    66c1:	48 89 ef             	mov    %rbp,%rdi
    66c4:	48 8b 80 90 00 00 00 	mov    0x90(%rax),%rax
    66cb:	48 85 c0             	test   %rax,%rax
    66ce:	74 78                	je     6748 <__Pyx_CyFunction_get_is_coroutine+0x148>
    66d0:	ff d0                	call   *%rax
    66d2:	49 89 c4             	mov    %rax,%r12
    66d5:	4c 89 a3 b8 00 00 00 	mov    %r12,0xb8(%rbx)
    66dc:	48 83 6d 00 01       	subq   $0x1,0x0(%rbp)
    66e1:	74 4d                	je     6730 <__Pyx_CyFunction_get_is_coroutine+0x130>
    66e3:	4d 85 e4             	test   %r12,%r12
    66e6:	0f 85 2e ff ff ff    	jne    661a <__Pyx_CyFunction_get_is_coroutine+0x1a>
    66ec:	e8 ef d1 ff ff       	call   38e0 <PyErr_Clear@plt>
    66f1:	4c 8b 25 90 88 00 00 	mov    0x8890(%rip),%r12        # ef88 <_Py_TrueStruct@Base>
    66f8:	49 8b 04 24          	mov    (%r12),%rax
    66fc:	48 83 c0 01          	add    $0x1,%rax
    6700:	49 89 04 24          	mov    %rax,(%r12)
    6704:	48 83 c0 01          	add    $0x1,%rax
    6708:	4c 89 a3 b8 00 00 00 	mov    %r12,0xb8(%rbx)
    670f:	49 89 04 24          	mov    %rax,(%r12)
    6713:	e9 46 ff ff ff       	jmp    665e <__Pyx_CyFunction_get_is_coroutine+0x5e>
    6718:	0f 1f 84 00 00 00 00 	nopl   0x0(%rax,%rax,1)
    671f:	00 
    6720:	4c 89 e7             	mov    %r12,%rdi
    6723:	e8 e8 cf ff ff       	call   3710 <_Py_Dealloc@plt>
    6728:	eb 8b                	jmp    66b5 <__Pyx_CyFunction_get_is_coroutine+0xb5>
    672a:	66 0f 1f 44 00 00    	nopw   0x0(%rax,%rax,1)
    6730:	48 89 ef             	mov    %rbp,%rdi
    6733:	e8 d8 cf ff ff       	call   3710 <_Py_Dealloc@plt>
    6738:	4c 8b a3 b8 00 00 00 	mov    0xb8(%rbx),%r12
    673f:	eb a2                	jmp    66e3 <__Pyx_CyFunction_get_is_coroutine+0xe3>
    6741:	0f 1f 80 00 00 00 00 	nopl   0x0(%rax)
    6748:	e8 83 d3 ff ff       	call   3ad0 <PyObject_GetAttr@plt>
    674d:	49 89 c4             	mov    %rax,%r12
    6750:	eb 83                	jmp    66d5 <__Pyx_CyFunction_get_is_coroutine+0xd5>
    6752:	66 66 2e 0f 1f 84 00 	data16 cs nopw 0x0(%rax,%rax,1)
    6759:	00 00 00 00 
    675d:	0f 1f 00             	nopl   (%rax)

0000000000006760 <__Pyx_PyObject_FastCallDict.constprop.0>:
    6760:	41 55                	push   %r13
    6762:	48 0f ba f2 3f       	btr    $0x3f,%rdx
    6767:	49 89 f3             	mov    %rsi,%r11
    676a:	41 54                	push   %r12
    676c:	55                   	push   %rbp
    676d:	48 89 fd             	mov    %rdi,%rbp
    6770:	53                   	push   %rbx
    6771:	48 83 ec 08          	sub    $0x8,%rsp
    6775:	48 8b 77 08          	mov    0x8(%rdi),%rsi
    6779:	48 85 d2             	test   %rdx,%rdx
    677c:	0f 84 be 00 00 00    	je     6840 <__Pyx_PyObject_FastCallDict.constprop.0+0xe0>
    6782:	48 83 fa 01          	cmp    $0x1,%rdx
    6786:	74 38                	je     67c0 <__Pyx_PyObject_FastCallDict.constprop.0+0x60>
    6788:	f6 86 a9 00 00 00 08 	testb  $0x8,0xa9(%rsi)
    678f:	0f 84 93 00 00 00    	je     6828 <__Pyx_PyObject_FastCallDict.constprop.0+0xc8>
    6795:	48 8b 46 38          	mov    0x38(%rsi),%rax
    6799:	48 8b 44 05 00       	mov    0x0(%rbp,%rax,1),%rax
    679e:	48 85 c0             	test   %rax,%rax
    67a1:	0f 84 81 00 00 00    	je     6828 <__Pyx_PyObject_FastCallDict.constprop.0+0xc8>
    67a7:	48 83 c4 08          	add    $0x8,%rsp
    67ab:	48 89 ef             	mov    %rbp,%rdi
    67ae:	31 c9                	xor    %ecx,%ecx
    67b0:	4c 89 de             	mov    %r11,%rsi
    67b3:	5b                   	pop    %rbx
    67b4:	5d                   	pop    %rbp
    67b5:	41 5c                	pop    %r12
    67b7:	41 5d                	pop    %r13
    67b9:	ff e0                	jmp    *%rax
    67bb:	0f 1f 44 00 00       	nopl   0x0(%rax,%rax,1)
    67c0:	4c 8b 05 49 92 00 00 	mov    0x9249(%rip),%r8        # fa10 <__pyx_mstate_global_static+0x30>
    67c7:	49 39 f0             	cmp    %rsi,%r8
    67ca:	0f 84 90 01 00 00    	je     6960 <__Pyx_PyObject_FastCallDict.constprop.0+0x200>
    67d0:	48 8b 3d 09 88 00 00 	mov    0x8809(%rip),%rdi        # efe0 <PyCFunction_Type@Base>
    67d7:	48 39 fe             	cmp    %rdi,%rsi
    67da:	0f 84 80 01 00 00    	je     6960 <__Pyx_PyObject_FastCallDict.constprop.0+0x200>
    67e0:	4c 8b 8e 58 01 00 00 	mov    0x158(%rsi),%r9
    67e7:	4d 85 c9             	test   %r9,%r9
    67ea:	0f 84 20 01 00 00    	je     6910 <__Pyx_PyObject_FastCallDict.constprop.0+0x1b0>
    67f0:	4d 8b 51 10          	mov    0x10(%r9),%r10
    67f4:	4d 85 d2             	test   %r10,%r10
    67f7:	7e 8f                	jle    6788 <__Pyx_PyObject_FastCallDict.constprop.0+0x28>
    67f9:	31 c0                	xor    %eax,%eax
    67fb:	0f 1f 44 00 00       	nopl   0x0(%rax,%rax,1)
    6800:	49 8b 4c c1 18       	mov    0x18(%r9,%rax,8),%rcx
    6805:	49 39 c8             	cmp    %rcx,%r8
    6808:	0f 84 52 01 00 00    	je     6960 <__Pyx_PyObject_FastCallDict.constprop.0+0x200>
    680e:	48 39 f9             	cmp    %rdi,%rcx
    6811:	0f 84 49 01 00 00    	je     6960 <__Pyx_PyObject_FastCallDict.constprop.0+0x200>
    6817:	48 83 c0 01          	add    $0x1,%rax
    681b:	49 39 c2             	cmp    %rax,%r10
    681e:	75 e0                	jne    6800 <__Pyx_PyObject_FastCallDict.constprop.0+0xa0>
    6820:	e9 63 ff ff ff       	jmp    6788 <__Pyx_PyObject_FastCallDict.constprop.0+0x28>
    6825:	0f 1f 00             	nopl   (%rax)
    6828:	48 83 c4 08          	add    $0x8,%rsp
    682c:	48 89 ef             	mov    %rbp,%rdi
    682f:	31 c9                	xor    %ecx,%ecx
    6831:	4c 89 de             	mov    %r11,%rsi
    6834:	5b                   	pop    %rbx
    6835:	5d                   	pop    %rbp
    6836:	41 5c                	pop    %r12
    6838:	41 5d                	pop    %r13
    683a:	e9 21 d1 ff ff       	jmp    3960 <PyObject_VectorcallDict@plt>
    683f:	90                   	nop
    6840:	4c 8b 05 c9 91 00 00 	mov    0x91c9(%rip),%r8        # fa10 <__pyx_mstate_global_static+0x30>
    6847:	49 39 f0             	cmp    %rsi,%r8
    684a:	0f 84 e0 01 00 00    	je     6a30 <__Pyx_PyObject_FastCallDict.constprop.0+0x2d0>
    6850:	48 8b 3d 89 87 00 00 	mov    0x8789(%rip),%rdi        # efe0 <PyCFunction_Type@Base>
    6857:	48 39 fe             	cmp    %rdi,%rsi
    685a:	0f 84 d0 01 00 00    	je     6a30 <__Pyx_PyObject_FastCallDict.constprop.0+0x2d0>
    6860:	4c 8b 8e 58 01 00 00 	mov    0x158(%rsi),%r9
    6867:	4d 85 c9             	test   %r9,%r9
    686a:	0f 84 70 01 00 00    	je     69e0 <__Pyx_PyObject_FastCallDict.constprop.0+0x280>
    6870:	4d 8b 51 10          	mov    0x10(%r9),%r10
    6874:	4d 85 d2             	test   %r10,%r10
    6877:	7e 27                	jle    68a0 <__Pyx_PyObject_FastCallDict.constprop.0+0x140>
    6879:	31 c0                	xor    %eax,%eax
    687b:	0f 1f 44 00 00       	nopl   0x0(%rax,%rax,1)
    6880:	49 8b 4c c1 18       	mov    0x18(%r9,%rax,8),%rcx
    6885:	49 39 c8             	cmp    %rcx,%r8
    6888:	0f 84 a2 01 00 00    	je     6a30 <__Pyx_PyObject_FastCallDict.constprop.0+0x2d0>
    688e:	48 39 f9             	cmp    %rdi,%rcx
    6891:	0f 84 99 01 00 00    	je     6a30 <__Pyx_PyObject_FastCallDict.constprop.0+0x2d0>
    6897:	48 83 c0 01          	add    $0x1,%rax
    689b:	49 39 c2             	cmp    %rax,%r10
    689e:	75 e0                	jne    6880 <__Pyx_PyObject_FastCallDict.constprop.0+0x120>
    68a0:	f6 86 a9 00 00 00 08 	testb  $0x8,0xa9(%rsi)
    68a7:	74 12                	je     68bb <__Pyx_PyObject_FastCallDict.constprop.0+0x15b>
    68a9:	48 8b 46 38          	mov    0x38(%rsi),%rax
    68ad:	48 8b 44 05 00       	mov    0x0(%rbp,%rax,1),%rax
    68b2:	48 85 c0             	test   %rax,%rax
    68b5:	0f 85 ec fe ff ff    	jne    67a7 <__Pyx_PyObject_FastCallDict.constprop.0+0x47>
    68bb:	4c 8b a6 80 00 00 00 	mov    0x80(%rsi),%r12
    68c2:	4c 8b 2d 2f 91 00 00 	mov    0x912f(%rip),%r13        # f9f8 <__pyx_mstate_global_static+0x18>
    68c9:	4d 85 e4             	test   %r12,%r12
    68cc:	0f 84 9a 01 00 00    	je     6a6c <__Pyx_PyObject_FastCallDict.constprop.0+0x30c>
    68d2:	48 8d 3d 17 5a 00 00 	lea    0x5a17(%rip),%rdi        # c2f0 <_fini+0x578>
    68d9:	e8 82 cd ff ff       	call   3660 <Py_EnterRecursiveCall@plt>
    68de:	85 c0                	test   %eax,%eax
    68e0:	0f 85 7e 01 00 00    	jne    6a64 <__Pyx_PyObject_FastCallDict.constprop.0+0x304>
    68e6:	31 d2                	xor    %edx,%edx
    68e8:	4c 89 ee             	mov    %r13,%rsi
    68eb:	48 89 ef             	mov    %rbp,%rdi
    68ee:	41 ff d4             	call   *%r12
    68f1:	49 89 c4             	mov    %rax,%r12
    68f4:	e8 57 d0 ff ff       	call   3950 <Py_LeaveRecursiveCall@plt>
    68f9:	4d 85 e4             	test   %r12,%r12
    68fc:	0f 84 ac 00 00 00    	je     69ae <__Pyx_PyObject_FastCallDict.constprop.0+0x24e>
    6902:	48 83 c4 08          	add    $0x8,%rsp
    6906:	4c 89 e0             	mov    %r12,%rax
    6909:	5b                   	pop    %rbx
    690a:	5d                   	pop    %rbp
    690b:	41 5c                	pop    %r12
    690d:	41 5d                	pop    %r13
    690f:	c3                   	ret    
    6910:	48 89 f0             	mov    %rsi,%rax
    6913:	0f 1f 44 00 00       	nopl   0x0(%rax,%rax,1)
    6918:	48 8b 80 00 01 00 00 	mov    0x100(%rax),%rax
    691f:	49 39 c0             	cmp    %rax,%r8
    6922:	74 3c                	je     6960 <__Pyx_PyObject_FastCallDict.constprop.0+0x200>
    6924:	48 85 c0             	test   %rax,%rax
    6927:	75 ef                	jne    6918 <__Pyx_PyObject_FastCallDict.constprop.0+0x1b8>
    6929:	48 8b 0d 68 86 00 00 	mov    0x8668(%rip),%rcx        # ef98 <PyBaseObject_Type@Base>
    6930:	49 39 c8             	cmp    %rcx,%r8
    6933:	74 2b                	je     6960 <__Pyx_PyObject_FastCallDict.constprop.0+0x200>
    6935:	48 89 f0             	mov    %rsi,%rax
    6938:	0f 1f 84 00 00 00 00 	nopl   0x0(%rax,%rax,1)
    693f:	00 
    6940:	48 8b 80 00 01 00 00 	mov    0x100(%rax),%rax
    6947:	48 39 f8             	cmp    %rdi,%rax
    694a:	74 14                	je     6960 <__Pyx_PyObject_FastCallDict.constprop.0+0x200>
    694c:	48 85 c0             	test   %rax,%rax
    694f:	75 ef                	jne    6940 <__Pyx_PyObject_FastCallDict.constprop.0+0x1e0>
    6951:	48 39 cf             	cmp    %rcx,%rdi
    6954:	0f 85 2e fe ff ff    	jne    6788 <__Pyx_PyObject_FastCallDict.constprop.0+0x28>
    695a:	66 0f 1f 44 00 00    	nopw   0x0(%rax,%rax,1)
    6960:	48 8b 4d 10          	mov    0x10(%rbp),%rcx
    6964:	8b 41 10             	mov    0x10(%rcx),%eax
    6967:	a8 08                	test   $0x8,%al
    6969:	0f 84 19 fe ff ff    	je     6788 <__Pyx_PyObject_FastCallDict.constprop.0+0x28>
    696f:	4d 8b 2b             	mov    (%r11),%r13
    6972:	48 8b 59 08          	mov    0x8(%rcx),%rbx
    6976:	45 31 e4             	xor    %r12d,%r12d
    6979:	a8 20                	test   $0x20,%al
    697b:	75 04                	jne    6981 <__Pyx_PyObject_FastCallDict.constprop.0+0x221>
    697d:	4c 8b 65 18          	mov    0x18(%rbp),%r12
    6981:	48 8d 3d 68 59 00 00 	lea    0x5968(%rip),%rdi        # c2f0 <_fini+0x578>
    6988:	e8 d3 cc ff ff       	call   3660 <Py_EnterRecursiveCall@plt>
    698d:	85 c0                	test   %eax,%eax
    698f:	0f 85 cf 00 00 00    	jne    6a64 <__Pyx_PyObject_FastCallDict.constprop.0+0x304>
    6995:	4c 89 ee             	mov    %r13,%rsi
    6998:	4c 89 e7             	mov    %r12,%rdi
    699b:	ff d3                	call   *%rbx
    699d:	49 89 c4             	mov    %rax,%r12
    69a0:	e8 ab cf ff ff       	call   3950 <Py_LeaveRecursiveCall@plt>
    69a5:	4d 85 e4             	test   %r12,%r12
    69a8:	0f 85 54 ff ff ff    	jne    6902 <__Pyx_PyObject_FastCallDict.constprop.0+0x1a2>
    69ae:	e8 7d cf ff ff       	call   3930 <PyErr_Occurred@plt>
    69b3:	49 89 c4             	mov    %rax,%r12
    69b6:	48 85 c0             	test   %rax,%rax
    69b9:	0f 85 a5 00 00 00    	jne    6a64 <__Pyx_PyObject_FastCallDict.constprop.0+0x304>
    69bf:	48 8b 05 62 85 00 00 	mov    0x8562(%rip),%rax        # ef28 <PyExc_SystemError@Base>
    69c6:	48 8d 35 43 59 00 00 	lea    0x5943(%rip),%rsi        # c310 <_fini+0x598>
    69cd:	48 8b 38             	mov    (%rax),%rdi
    69d0:	e8 cb cd ff ff       	call   37a0 <PyErr_SetString@plt>
    69d5:	e9 28 ff ff ff       	jmp    6902 <__Pyx_PyObject_FastCallDict.constprop.0+0x1a2>
    69da:	66 0f 1f 44 00 00    	nopw   0x0(%rax,%rax,1)
    69e0:	48 89 f0             	mov    %rsi,%rax
    69e3:	0f 1f 44 00 00       	nopl   0x0(%rax,%rax,1)
    69e8:	48 8b 80 00 01 00 00 	mov    0x100(%rax),%rax
    69ef:	49 39 c0             	cmp    %rax,%r8
    69f2:	74 3c                	je     6a30 <__Pyx_PyObject_FastCallDict.constprop.0+0x2d0>
    69f4:	48 85 c0             	test   %rax,%rax
    69f7:	75 ef                	jne    69e8 <__Pyx_PyObject_FastCallDict.constprop.0+0x288>
    69f9:	48 8b 0d 98 85 00 00 	mov    0x8598(%rip),%rcx        # ef98 <PyBaseObject_Type@Base>
    6a00:	49 39 c8             	cmp    %rcx,%r8
    6a03:	74 2b                	je     6a30 <__Pyx_PyObject_FastCallDict.constprop.0+0x2d0>
    6a05:	48 89 f0             	mov    %rsi,%rax
    6a08:	0f 1f 84 00 00 00 00 	nopl   0x0(%rax,%rax,1)
    6a0f:	00 
    6a10:	48 8b 80 00 01 00 00 	mov    0x100(%rax),%rax
    6a17:	48 39 f8             	cmp    %rdi,%rax
    6a1a:	74 14                	je     6a30 <__Pyx_PyObject_FastCallDict.constprop.0+0x2d0>
    6a1c:	48 85 c0             	test   %rax,%rax
    6a1f:	75 ef                	jne    6a10 <__Pyx_PyObject_FastCallDict.constprop.0+0x2b0>
    6a21:	48 39 cf             	cmp    %rcx,%rdi
    6a24:	0f 85 76 fe ff ff    	jne    68a0 <__Pyx_PyObject_FastCallDict.constprop.0+0x140>
    6a2a:	66 0f 1f 44 00 00    	nopw   0x0(%rax,%rax,1)
    6a30:	48 8b 4d 10          	mov    0x10(%rbp),%rcx
    6a34:	8b 41 10             	mov    0x10(%rcx),%eax
    6a37:	a8 04                	test   $0x4,%al
    6a39:	0f 84 61 fe ff ff    	je     68a0 <__Pyx_PyObject_FastCallDict.constprop.0+0x140>
    6a3f:	48 8b 59 08          	mov    0x8(%rcx),%rbx
    6a43:	45 31 e4             	xor    %r12d,%r12d
    6a46:	a8 20                	test   $0x20,%al
    6a48:	75 04                	jne    6a4e <__Pyx_PyObject_FastCallDict.constprop.0+0x2ee>
    6a4a:	4c 8b 65 18          	mov    0x18(%rbp),%r12
    6a4e:	48 8d 3d 9b 58 00 00 	lea    0x589b(%rip),%rdi        # c2f0 <_fini+0x578>
    6a55:	e8 06 cc ff ff       	call   3660 <Py_EnterRecursiveCall@plt>
    6a5a:	31 f6                	xor    %esi,%esi
    6a5c:	85 c0                	test   %eax,%eax
    6a5e:	0f 84 34 ff ff ff    	je     6998 <__Pyx_PyObject_FastCallDict.constprop.0+0x238>
    6a64:	45 31 e4             	xor    %r12d,%r12d
    6a67:	e9 96 fe ff ff       	jmp    6902 <__Pyx_PyObject_FastCallDict.constprop.0+0x1a2>
    6a6c:	48 83 c4 08          	add    $0x8,%rsp
    6a70:	4c 89 ee             	mov    %r13,%rsi
    6a73:	48 89 ef             	mov    %rbp,%rdi
    6a76:	31 d2                	xor    %edx,%edx
    6a78:	5b                   	pop    %rbx
    6a79:	5d                   	pop    %rbp
    6a7a:	41 5c                	pop    %r12
    6a7c:	41 5d                	pop    %r13
    6a7e:	e9 ed cf ff ff       	jmp    3a70 <PyObject_Call@plt>
    6a83:	66 66 2e 0f 1f 84 00 	data16 cs nopw 0x0(%rax,%rax,1)
    6a8a:	00 00 00 00 
    6a8e:	66 90                	xchg   %ax,%ax

0000000000006a90 <__Pyx_PyUnicode_Equals.constprop.0>:
    6a90:	48 39 f7             	cmp    %rsi,%rdi
    6a93:	0f 84 0f 02 00 00    	je     6ca8 <__Pyx_PyUnicode_Equals.constprop.0+0x218>
    6a99:	41 54                	push   %r12
    6a9b:	49 89 f4             	mov    %rsi,%r12
    6a9e:	55                   	push   %rbp
    6a9f:	48 89 fd             	mov    %rdi,%rbp
    6aa2:	53                   	push   %rbx
    6aa3:	48 83 ec 10          	sub    $0x10,%rsp
    6aa7:	48 8b 05 1a 85 00 00 	mov    0x851a(%rip),%rax        # efc8 <PyUnicode_Type@Base>
    6aae:	48 39 47 08          	cmp    %rax,0x8(%rdi)
    6ab2:	0f 94 c2             	sete   %dl
    6ab5:	48 39 46 08          	cmp    %rax,0x8(%rsi)
    6ab9:	0f 94 c0             	sete   %al
    6abc:	84 d2                	test   %dl,%dl
    6abe:	0f 84 dc 00 00 00    	je     6ba0 <__Pyx_PyUnicode_Equals.constprop.0+0x110>
    6ac4:	84 c0                	test   %al,%al
    6ac6:	0f 84 d4 00 00 00    	je     6ba0 <__Pyx_PyUnicode_Equals.constprop.0+0x110>
    6acc:	80 7f 20 00          	cmpb   $0x0,0x20(%rdi)
    6ad0:	0f 89 8a 01 00 00    	jns    6c60 <__Pyx_PyUnicode_Equals.constprop.0+0x1d0>
    6ad6:	41 80 7c 24 20 00    	cmpb   $0x0,0x20(%r12)
    6adc:	0f 89 9e 01 00 00    	jns    6c80 <__Pyx_PyUnicode_Equals.constprop.0+0x1f0>
    6ae2:	48 8b 45 10          	mov    0x10(%rbp),%rax
    6ae6:	49 3b 44 24 10       	cmp    0x10(%r12),%rax
    6aeb:	0f 85 bf 00 00 00    	jne    6bb0 <__Pyx_PyUnicode_Equals.constprop.0+0x120>
    6af1:	48 8b 55 18          	mov    0x18(%rbp),%rdx
    6af5:	49 8b 4c 24 18       	mov    0x18(%r12),%rcx
    6afa:	48 39 ca             	cmp    %rcx,%rdx
    6afd:	40 0f 95 c6          	setne  %sil
    6b01:	48 83 fa ff          	cmp    $0xffffffffffffffff,%rdx
    6b05:	0f 95 c2             	setne  %dl
    6b08:	40 84 d6             	test   %dl,%sil
    6b0b:	74 0a                	je     6b17 <__Pyx_PyUnicode_Equals.constprop.0+0x87>
    6b0d:	48 83 f9 ff          	cmp    $0xffffffffffffffff,%rcx
    6b11:	0f 85 99 00 00 00    	jne    6bb0 <__Pyx_PyUnicode_Equals.constprop.0+0x120>
    6b17:	0f b6 75 20          	movzbl 0x20(%rbp),%esi
    6b1b:	45 0f b6 44 24 20    	movzbl 0x20(%r12),%r8d
    6b21:	89 f2                	mov    %esi,%edx
    6b23:	44 89 c1             	mov    %r8d,%ecx
    6b26:	c0 ea 02             	shr    $0x2,%dl
    6b29:	c0 e9 02             	shr    $0x2,%cl
    6b2c:	83 e2 07             	and    $0x7,%edx
    6b2f:	83 e1 07             	and    $0x7,%ecx
    6b32:	38 ca                	cmp    %cl,%dl
    6b34:	75 7a                	jne    6bb0 <__Pyx_PyUnicode_Equals.constprop.0+0x120>
    6b36:	40 f6 c6 20          	test   $0x20,%sil
    6b3a:	0f 85 f0 00 00 00    	jne    6c30 <__Pyx_PyUnicode_Equals.constprop.0+0x1a0>
    6b40:	48 8b 7d 48          	mov    0x48(%rbp),%rdi
    6b44:	41 f6 c0 20          	test   $0x20,%r8b
    6b48:	0f 84 4a 01 00 00    	je     6c98 <__Pyx_PyUnicode_Equals.constprop.0+0x208>
    6b4e:	49 8d 4c 24 30       	lea    0x30(%r12),%rcx
    6b53:	49 8d 74 24 48       	lea    0x48(%r12),%rsi
    6b58:	41 83 e0 40          	and    $0x40,%r8d
    6b5c:	48 0f 45 f1          	cmovne %rcx,%rsi
    6b60:	0f b6 ca             	movzbl %dl,%ecx
    6b63:	83 f9 01             	cmp    $0x1,%ecx
    6b66:	0f 84 44 01 00 00    	je     6cb0 <__Pyx_PyUnicode_Equals.constprop.0+0x220>
    6b6c:	83 f9 02             	cmp    $0x2,%ecx
    6b6f:	0f 84 4b 01 00 00    	je     6cc0 <__Pyx_PyUnicode_Equals.constprop.0+0x230>
    6b75:	8b 0f                	mov    (%rdi),%ecx
    6b77:	44 8b 06             	mov    (%rsi),%r8d
    6b7a:	41 39 c8             	cmp    %ecx,%r8d
    6b7d:	75 31                	jne    6bb0 <__Pyx_PyUnicode_Equals.constprop.0+0x120>
    6b7f:	48 83 f8 01          	cmp    $0x1,%rax
    6b83:	0f 84 bf 00 00 00    	je     6c48 <__Pyx_PyUnicode_Equals.constprop.0+0x1b8>
    6b89:	0f b6 d2             	movzbl %dl,%edx
    6b8c:	48 0f af d0          	imul   %rax,%rdx
    6b90:	e8 2b cd ff ff       	call   38c0 <memcmp@plt>
    6b95:	85 c0                	test   %eax,%eax
    6b97:	0f 94 c0             	sete   %al
    6b9a:	0f b6 c0             	movzbl %al,%eax
    6b9d:	eb 13                	jmp    6bb2 <__Pyx_PyUnicode_Equals.constprop.0+0x122>
    6b9f:	90                   	nop
    6ba0:	48 8b 1d d9 83 00 00 	mov    0x83d9(%rip),%rbx        # ef80 <_Py_NoneStruct@Base>
    6ba7:	48 39 dd             	cmp    %rbx,%rbp
    6baa:	75 14                	jne    6bc0 <__Pyx_PyUnicode_Equals.constprop.0+0x130>
    6bac:	84 c0                	test   %al,%al
    6bae:	74 10                	je     6bc0 <__Pyx_PyUnicode_Equals.constprop.0+0x130>
    6bb0:	31 c0                	xor    %eax,%eax
    6bb2:	48 83 c4 10          	add    $0x10,%rsp
    6bb6:	5b                   	pop    %rbx
    6bb7:	5d                   	pop    %rbp
    6bb8:	41 5c                	pop    %r12
    6bba:	c3                   	ret    
    6bbb:	0f 1f 44 00 00       	nopl   0x0(%rax,%rax,1)
    6bc0:	49 39 dc             	cmp    %rbx,%r12
    6bc3:	75 04                	jne    6bc9 <__Pyx_PyUnicode_Equals.constprop.0+0x139>
    6bc5:	84 d2                	test   %dl,%dl
    6bc7:	75 e7                	jne    6bb0 <__Pyx_PyUnicode_Equals.constprop.0+0x120>
    6bc9:	48 89 ef             	mov    %rbp,%rdi
    6bcc:	ba 02 00 00 00       	mov    $0x2,%edx
    6bd1:	4c 89 e6             	mov    %r12,%rsi
    6bd4:	e8 77 cb ff ff       	call   3750 <PyObject_RichCompare@plt>
    6bd9:	48 89 c5             	mov    %rax,%rbp
    6bdc:	48 85 c0             	test   %rax,%rax
    6bdf:	0f 84 88 00 00 00    	je     6c6d <__Pyx_PyUnicode_Equals.constprop.0+0x1dd>
    6be5:	48 3b 05 9c 83 00 00 	cmp    0x839c(%rip),%rax        # ef88 <_Py_TrueStruct@Base>
    6bec:	0f 94 c0             	sete   %al
    6bef:	48 3b 2d 6a 83 00 00 	cmp    0x836a(%rip),%rbp        # ef60 <_Py_FalseStruct@Base>
    6bf6:	0f 94 c2             	sete   %dl
    6bf9:	08 c2                	or     %al,%dl
    6bfb:	75 05                	jne    6c02 <__Pyx_PyUnicode_Equals.constprop.0+0x172>
    6bfd:	48 39 dd             	cmp    %rbx,%rbp
    6c00:	75 1e                	jne    6c20 <__Pyx_PyUnicode_Equals.constprop.0+0x190>
    6c02:	0f b6 c0             	movzbl %al,%eax
    6c05:	48 83 6d 00 01       	subq   $0x1,0x0(%rbp)
    6c0a:	75 a6                	jne    6bb2 <__Pyx_PyUnicode_Equals.constprop.0+0x122>
    6c0c:	48 89 ef             	mov    %rbp,%rdi
    6c0f:	89 44 24 0c          	mov    %eax,0xc(%rsp)
    6c13:	e8 f8 ca ff ff       	call   3710 <_Py_Dealloc@plt>
    6c18:	8b 44 24 0c          	mov    0xc(%rsp),%eax
    6c1c:	eb 94                	jmp    6bb2 <__Pyx_PyUnicode_Equals.constprop.0+0x122>
    6c1e:	66 90                	xchg   %ax,%ax
    6c20:	48 89 ef             	mov    %rbp,%rdi
    6c23:	e8 78 cd ff ff       	call   39a0 <PyObject_IsTrue@plt>
    6c28:	eb db                	jmp    6c05 <__Pyx_PyUnicode_Equals.constprop.0+0x175>
    6c2a:	66 0f 1f 44 00 00    	nopw   0x0(%rax,%rax,1)
    6c30:	48 8d 4d 30          	lea    0x30(%rbp),%rcx
    6c34:	48 8d 7d 48          	lea    0x48(%rbp),%rdi
    6c38:	83 e6 40             	and    $0x40,%esi
    6c3b:	48 0f 45 f9          	cmovne %rcx,%rdi
    6c3f:	e9 00 ff ff ff       	jmp    6b44 <__Pyx_PyUnicode_Equals.constprop.0+0xb4>
    6c44:	0f 1f 40 00          	nopl   0x0(%rax)
    6c48:	48 83 c4 10          	add    $0x10,%rsp
    6c4c:	b8 01 00 00 00       	mov    $0x1,%eax
    6c51:	5b                   	pop    %rbx
    6c52:	5d                   	pop    %rbp
    6c53:	41 5c                	pop    %r12
    6c55:	c3                   	ret    
    6c56:	66 2e 0f 1f 84 00 00 	cs nopw 0x0(%rax,%rax,1)
    6c5d:	00 00 00 
    6c60:	e8 7b c9 ff ff       	call   35e0 <_PyUnicode_Ready@plt>
    6c65:	85 c0                	test   %eax,%eax
    6c67:	0f 89 69 fe ff ff    	jns    6ad6 <__Pyx_PyUnicode_Equals.constprop.0+0x46>
    6c6d:	b8 ff ff ff ff       	mov    $0xffffffff,%eax
    6c72:	e9 3b ff ff ff       	jmp    6bb2 <__Pyx_PyUnicode_Equals.constprop.0+0x122>
    6c77:	66 0f 1f 84 00 00 00 	nopw   0x0(%rax,%rax,1)
    6c7e:	00 00 
    6c80:	4c 89 e7             	mov    %r12,%rdi
    6c83:	e8 58 c9 ff ff       	call   35e0 <_PyUnicode_Ready@plt>
    6c88:	85 c0                	test   %eax,%eax
    6c8a:	0f 89 52 fe ff ff    	jns    6ae2 <__Pyx_PyUnicode_Equals.constprop.0+0x52>
    6c90:	eb db                	jmp    6c6d <__Pyx_PyUnicode_Equals.constprop.0+0x1dd>
    6c92:	66 0f 1f 44 00 00    	nopw   0x0(%rax,%rax,1)
    6c98:	49 8b 74 24 48       	mov    0x48(%r12),%rsi
    6c9d:	e9 be fe ff ff       	jmp    6b60 <__Pyx_PyUnicode_Equals.constprop.0+0xd0>
    6ca2:	66 0f 1f 44 00 00    	nopw   0x0(%rax,%rax,1)
    6ca8:	b8 01 00 00 00       	mov    $0x1,%eax
    6cad:	c3                   	ret    
    6cae:	66 90                	xchg   %ax,%ax
    6cb0:	0f b6 0f             	movzbl (%rdi),%ecx
    6cb3:	44 0f b6 06          	movzbl (%rsi),%r8d
    6cb7:	e9 be fe ff ff       	jmp    6b7a <__Pyx_PyUnicode_Equals.constprop.0+0xea>
    6cbc:	0f 1f 40 00          	nopl   0x0(%rax)
    6cc0:	0f b7 0f             	movzwl (%rdi),%ecx
    6cc3:	44 0f b7 06          	movzwl (%rsi),%r8d
    6cc7:	e9 ae fe ff ff       	jmp    6b7a <__Pyx_PyUnicode_Equals.constprop.0+0xea>
    6ccc:	0f 1f 40 00          	nopl   0x0(%rax)

0000000000006cd0 <__Pyx_PyObject_GetIndex>:
    6cd0:	41 55                	push   %r13
    6cd2:	41 54                	push   %r12
    6cd4:	49 89 fc             	mov    %rdi,%r12
    6cd7:	55                   	push   %rbp
    6cd8:	53                   	push   %rbx
    6cd9:	48 89 f3             	mov    %rsi,%rbx
    6cdc:	48 83 ec 18          	sub    $0x18,%rsp
    6ce0:	48 8b 05 b9 82 00 00 	mov    0x82b9(%rip),%rax        # efa0 <PyLong_Type@Base>
    6ce7:	48 39 46 08          	cmp    %rax,0x8(%rsi)
    6ceb:	0f 85 ef 01 00 00    	jne    6ee0 <__Pyx_PyObject_GetIndex+0x210>
    6cf1:	48 8b 6e 10          	mov    0x10(%rsi),%rbp
    6cf5:	48 8d 45 01          	lea    0x1(%rbp),%rax
    6cf9:	48 83 f8 02          	cmp    $0x2,%rax
    6cfd:	0f 87 15 02 00 00    	ja     6f18 <__Pyx_PyObject_GetIndex+0x248>
    6d03:	48 85 ed             	test   %rbp,%rbp
    6d06:	0f 84 94 00 00 00    	je     6da0 <__Pyx_PyObject_GetIndex+0xd0>
    6d0c:	48 63 46 18          	movslq 0x18(%rsi),%rax
    6d10:	89 c2                	mov    %eax,%edx
    6d12:	f7 da                	neg    %edx
    6d14:	48 83 fd ff          	cmp    $0xffffffffffffffff,%rbp
    6d18:	48 63 d2             	movslq %edx,%rdx
    6d1b:	48 0f 45 d0          	cmovne %rax,%rdx
    6d1f:	48 89 d5             	mov    %rdx,%rbp
    6d22:	48 83 fd ff          	cmp    $0xffffffffffffffff,%rbp
    6d26:	0f 84 74 01 00 00    	je     6ea0 <__Pyx_PyObject_GetIndex+0x1d0>
    6d2c:	49 8b 44 24 08       	mov    0x8(%r12),%rax
    6d31:	48 3b 05 c0 82 00 00 	cmp    0x82c0(%rip),%rax        # eff8 <PyList_Type@Base>
    6d38:	0f 84 d2 00 00 00    	je     6e10 <__Pyx_PyObject_GetIndex+0x140>
    6d3e:	48 3b 05 03 82 00 00 	cmp    0x8203(%rip),%rax        # ef48 <PyTuple_Type@Base>
    6d45:	0f 84 2d 01 00 00    	je     6e78 <__Pyx_PyObject_GetIndex+0x1a8>
    6d4b:	48 8b 58 70          	mov    0x70(%rax),%rbx
    6d4f:	4c 8b 68 68          	mov    0x68(%rax),%r13
    6d53:	48 85 db             	test   %rbx,%rbx
    6d56:	0f 84 84 00 00 00    	je     6de0 <__Pyx_PyObject_GetIndex+0x110>
    6d5c:	48 83 7b 08 00       	cmpq   $0x0,0x8(%rbx)
    6d61:	74 7d                	je     6de0 <__Pyx_PyObject_GetIndex+0x110>
    6d63:	48 89 ef             	mov    %rbp,%rdi
    6d66:	e8 15 cb ff ff       	call   3880 <PyLong_FromSsize_t@plt>
    6d6b:	48 89 c5             	mov    %rax,%rbp
    6d6e:	48 85 c0             	test   %rax,%rax
    6d71:	0f 84 69 02 00 00    	je     6fe0 <__Pyx_PyObject_GetIndex+0x310>
    6d77:	48 89 c6             	mov    %rax,%rsi
    6d7a:	4c 89 e7             	mov    %r12,%rdi
    6d7d:	ff 53 08             	call   *0x8(%rbx)
    6d80:	48 83 6d 00 01       	subq   $0x1,0x0(%rbp)
    6d85:	0f 84 e5 01 00 00    	je     6f70 <__Pyx_PyObject_GetIndex+0x2a0>
    6d8b:	48 83 c4 18          	add    $0x18,%rsp
    6d8f:	5b                   	pop    %rbx
    6d90:	5d                   	pop    %rbp
    6d91:	41 5c                	pop    %r12
    6d93:	41 5d                	pop    %r13
    6d95:	c3                   	ret    
    6d96:	66 2e 0f 1f 84 00 00 	cs nopw 0x0(%rax,%rax,1)
    6d9d:	00 00 00 
    6da0:	48 8b 47 08          	mov    0x8(%rdi),%rax
    6da4:	48 3b 05 4d 82 00 00 	cmp    0x824d(%rip),%rax        # eff8 <PyList_Type@Base>
    6dab:	0f 84 97 00 00 00    	je     6e48 <__Pyx_PyObject_GetIndex+0x178>
    6db1:	48 3b 05 90 81 00 00 	cmp    0x8190(%rip),%rax        # ef48 <PyTuple_Type@Base>
    6db8:	75 91                	jne    6d4b <__Pyx_PyObject_GetIndex+0x7b>
    6dba:	48 8b 47 10          	mov    0x10(%rdi),%rax
    6dbe:	31 d2                	xor    %edx,%edx
    6dc0:	31 c9                	xor    %ecx,%ecx
    6dc2:	48 39 c1             	cmp    %rax,%rcx
    6dc5:	0f 83 85 00 00 00    	jae    6e50 <__Pyx_PyObject_GetIndex+0x180>
    6dcb:	49 8b 44 d4 18       	mov    0x18(%r12,%rdx,8),%rax
    6dd0:	48 83 00 01          	addq   $0x1,(%rax)
    6dd4:	48 83 c4 18          	add    $0x18,%rsp
    6dd8:	5b                   	pop    %rbx
    6dd9:	5d                   	pop    %rbp
    6dda:	41 5c                	pop    %r12
    6ddc:	41 5d                	pop    %r13
    6dde:	c3                   	ret    
    6ddf:	90                   	nop
    6de0:	4d 85 ed             	test   %r13,%r13
    6de3:	74 6b                	je     6e50 <__Pyx_PyObject_GetIndex+0x180>
    6de5:	49 8b 45 18          	mov    0x18(%r13),%rax
    6de9:	48 85 c0             	test   %rax,%rax
    6dec:	74 62                	je     6e50 <__Pyx_PyObject_GetIndex+0x180>
    6dee:	48 85 ed             	test   %rbp,%rbp
    6df1:	0f 88 31 02 00 00    	js     7028 <__Pyx_PyObject_GetIndex+0x358>
    6df7:	48 83 c4 18          	add    $0x18,%rsp
    6dfb:	48 89 ee             	mov    %rbp,%rsi
    6dfe:	4c 89 e7             	mov    %r12,%rdi
    6e01:	5b                   	pop    %rbx
    6e02:	5d                   	pop    %rbp
    6e03:	41 5c                	pop    %r12
    6e05:	41 5d                	pop    %r13
    6e07:	ff e0                	jmp    *%rax
    6e09:	0f 1f 80 00 00 00 00 	nopl   0x0(%rax)
    6e10:	49 8b 44 24 10       	mov    0x10(%r12),%rax
    6e15:	48 89 c2             	mov    %rax,%rdx
    6e18:	48 85 ed             	test   %rbp,%rbp
    6e1b:	0f 89 e7 01 00 00    	jns    7008 <__Pyx_PyObject_GetIndex+0x338>
    6e21:	48 89 d0             	mov    %rdx,%rax
    6e24:	48 8d 14 2a          	lea    (%rdx,%rbp,1),%rdx
    6e28:	48 39 d0             	cmp    %rdx,%rax
    6e2b:	76 23                	jbe    6e50 <__Pyx_PyObject_GetIndex+0x180>
    6e2d:	49 8b 44 24 18       	mov    0x18(%r12),%rax
    6e32:	48 8b 04 d0          	mov    (%rax,%rdx,8),%rax
    6e36:	48 83 00 01          	addq   $0x1,(%rax)
    6e3a:	48 83 c4 18          	add    $0x18,%rsp
    6e3e:	5b                   	pop    %rbx
    6e3f:	5d                   	pop    %rbp
    6e40:	41 5c                	pop    %r12
    6e42:	41 5d                	pop    %r13
    6e44:	c3                   	ret    
    6e45:	0f 1f 00             	nopl   (%rax)
    6e48:	48 8b 47 10          	mov    0x10(%rdi),%rax
    6e4c:	31 d2                	xor    %edx,%edx
    6e4e:	eb d8                	jmp    6e28 <__Pyx_PyObject_GetIndex+0x158>
    6e50:	48 89 ef             	mov    %rbp,%rdi
    6e53:	e8 28 ca ff ff       	call   3880 <PyLong_FromSsize_t@plt>
    6e58:	48 89 c5             	mov    %rax,%rbp
    6e5b:	48 85 c0             	test   %rax,%rax
    6e5e:	0f 84 7c 01 00 00    	je     6fe0 <__Pyx_PyObject_GetIndex+0x310>
    6e64:	48 89 c6             	mov    %rax,%rsi
    6e67:	4c 89 e7             	mov    %r12,%rdi
    6e6a:	e8 61 c9 ff ff       	call   37d0 <PyObject_GetItem@plt>
    6e6f:	e9 0c ff ff ff       	jmp    6d80 <__Pyx_PyObject_GetIndex+0xb0>
    6e74:	0f 1f 40 00          	nopl   0x0(%rax)
    6e78:	49 8b 54 24 10       	mov    0x10(%r12),%rdx
    6e7d:	48 89 d0             	mov    %rdx,%rax
    6e80:	48 85 ed             	test   %rbp,%rbp
    6e83:	0f 89 d2 00 00 00    	jns    6f5b <__Pyx_PyObject_GetIndex+0x28b>
    6e89:	48 89 d0             	mov    %rdx,%rax
    6e8c:	48 8d 14 2a          	lea    (%rdx,%rbp,1),%rdx
    6e90:	48 89 d1             	mov    %rdx,%rcx
    6e93:	e9 2a ff ff ff       	jmp    6dc2 <__Pyx_PyObject_GetIndex+0xf2>
    6e98:	0f 1f 84 00 00 00 00 	nopl   0x0(%rax,%rax,1)
    6e9f:	00 
    6ea0:	e8 8b ca ff ff       	call   3930 <PyErr_Occurred@plt>
    6ea5:	48 85 c0             	test   %rax,%rax
    6ea8:	0f 85 f2 00 00 00    	jne    6fa0 <__Pyx_PyObject_GetIndex+0x2d0>
    6eae:	49 8b 44 24 08       	mov    0x8(%r12),%rax
    6eb3:	48 3b 05 3e 81 00 00 	cmp    0x813e(%rip),%rax        # eff8 <PyList_Type@Base>
    6eba:	0f 84 50 01 00 00    	je     7010 <__Pyx_PyObject_GetIndex+0x340>
    6ec0:	48 3b 05 81 80 00 00 	cmp    0x8081(%rip),%rax        # ef48 <PyTuple_Type@Base>
    6ec7:	48 c7 c5 ff ff ff ff 	mov    $0xffffffffffffffff,%rbp
    6ece:	0f 85 77 fe ff ff    	jne    6d4b <__Pyx_PyObject_GetIndex+0x7b>
    6ed4:	49 8b 54 24 10       	mov    0x10(%r12),%rdx
    6ed9:	eb ae                	jmp    6e89 <__Pyx_PyObject_GetIndex+0x1b9>
    6edb:	0f 1f 44 00 00       	nopl   0x0(%rax,%rax,1)
    6ee0:	48 89 f7             	mov    %rsi,%rdi
    6ee3:	e8 d8 cb ff ff       	call   3ac0 <PyNumber_Index@plt>
    6ee8:	49 89 c5             	mov    %rax,%r13
    6eeb:	48 85 c0             	test   %rax,%rax
    6eee:	74 b0                	je     6ea0 <__Pyx_PyObject_GetIndex+0x1d0>
    6ef0:	48 89 c7             	mov    %rax,%rdi
    6ef3:	e8 d8 c9 ff ff       	call   38d0 <PyLong_AsSsize_t@plt>
    6ef8:	49 83 6d 00 01       	subq   $0x1,0x0(%r13)
    6efd:	48 89 c5             	mov    %rax,%rbp
    6f00:	0f 85 1c fe ff ff    	jne    6d22 <__Pyx_PyObject_GetIndex+0x52>
    6f06:	4c 89 ef             	mov    %r13,%rdi
    6f09:	e8 02 c8 ff ff       	call   3710 <_Py_Dealloc@plt>
    6f0e:	e9 0f fe ff ff       	jmp    6d22 <__Pyx_PyObject_GetIndex+0x52>
    6f13:	0f 1f 44 00 00       	nopl   0x0(%rax,%rax,1)
    6f18:	48 83 fd fe          	cmp    $0xfffffffffffffffe,%rbp
    6f1c:	0f 84 ce 00 00 00    	je     6ff0 <__Pyx_PyObject_GetIndex+0x320>
    6f22:	48 83 fd 02          	cmp    $0x2,%rbp
    6f26:	75 68                	jne    6f90 <__Pyx_PyObject_GetIndex+0x2c0>
    6f28:	8b 56 1c             	mov    0x1c(%rsi),%edx
    6f2b:	8b 46 18             	mov    0x18(%rsi),%eax
    6f2e:	48 c1 e2 1e          	shl    $0x1e,%rdx
    6f32:	48 09 c2             	or     %rax,%rdx
    6f35:	48 8b 47 08          	mov    0x8(%rdi),%rax
    6f39:	48 3b 05 b8 80 00 00 	cmp    0x80b8(%rip),%rax        # eff8 <PyList_Type@Base>
    6f40:	48 89 d5             	mov    %rdx,%rbp
    6f43:	0f 84 02 01 00 00    	je     704b <__Pyx_PyObject_GetIndex+0x37b>
    6f49:	48 3b 05 f8 7f 00 00 	cmp    0x7ff8(%rip),%rax        # ef48 <PyTuple_Type@Base>
    6f50:	0f 85 f5 fd ff ff    	jne    6d4b <__Pyx_PyObject_GetIndex+0x7b>
    6f56:	49 8b 44 24 10       	mov    0x10(%r12),%rax
    6f5b:	48 89 e9             	mov    %rbp,%rcx
    6f5e:	48 89 ea             	mov    %rbp,%rdx
    6f61:	e9 5c fe ff ff       	jmp    6dc2 <__Pyx_PyObject_GetIndex+0xf2>
    6f66:	66 2e 0f 1f 84 00 00 	cs nopw 0x0(%rax,%rax,1)
    6f6d:	00 00 00 
    6f70:	48 89 ef             	mov    %rbp,%rdi
    6f73:	48 89 44 24 08       	mov    %rax,0x8(%rsp)
    6f78:	e8 93 c7 ff ff       	call   3710 <_Py_Dealloc@plt>
    6f7d:	48 8b 44 24 08       	mov    0x8(%rsp),%rax
    6f82:	e9 04 fe ff ff       	jmp    6d8b <__Pyx_PyObject_GetIndex+0xbb>
    6f87:	66 0f 1f 84 00 00 00 	nopw   0x0(%rax,%rax,1)
    6f8e:	00 00 
    6f90:	48 89 f7             	mov    %rsi,%rdi
    6f93:	e8 38 c9 ff ff       	call   38d0 <PyLong_AsSsize_t@plt>
    6f98:	48 89 c5             	mov    %rax,%rbp
    6f9b:	e9 82 fd ff ff       	jmp    6d22 <__Pyx_PyObject_GetIndex+0x52>
    6fa0:	48 8b 15 d1 7f 00 00 	mov    0x7fd1(%rip),%rdx        # ef78 <PyExc_OverflowError@Base>
    6fa7:	48 89 c7             	mov    %rax,%rdi
    6faa:	48 8b 32             	mov    (%rdx),%rsi
    6fad:	e8 de c7 ff ff       	call   3790 <PyErr_GivenExceptionMatches@plt>
    6fb2:	85 c0                	test   %eax,%eax
    6fb4:	74 2a                	je     6fe0 <__Pyx_PyObject_GetIndex+0x310>
    6fb6:	48 8b 43 08          	mov    0x8(%rbx),%rax
    6fba:	4c 8b 60 18          	mov    0x18(%rax),%r12
    6fbe:	e8 1d c9 ff ff       	call   38e0 <PyErr_Clear@plt>
    6fc3:	48 8b 05 c6 7f 00 00 	mov    0x7fc6(%rip),%rax        # ef90 <PyExc_IndexError@Base>
    6fca:	48 8d 35 6f 53 00 00 	lea    0x536f(%rip),%rsi        # c340 <_fini+0x5c8>
    6fd1:	4c 89 e2             	mov    %r12,%rdx
    6fd4:	48 8b 38             	mov    (%rax),%rdi
    6fd7:	31 c0                	xor    %eax,%eax
    6fd9:	e8 b2 ca ff ff       	call   3a90 <PyErr_Format@plt>
    6fde:	66 90                	xchg   %ax,%ax
    6fe0:	31 c0                	xor    %eax,%eax
    6fe2:	e9 a4 fd ff ff       	jmp    6d8b <__Pyx_PyObject_GetIndex+0xbb>
    6fe7:	66 0f 1f 84 00 00 00 	nopw   0x0(%rax,%rax,1)
    6fee:	00 00 
    6ff0:	8b 6e 1c             	mov    0x1c(%rsi),%ebp
    6ff3:	8b 46 18             	mov    0x18(%rsi),%eax
    6ff6:	48 c1 e5 1e          	shl    $0x1e,%rbp
    6ffa:	48 09 c5             	or     %rax,%rbp
    6ffd:	48 f7 dd             	neg    %rbp
    7000:	e9 1d fd ff ff       	jmp    6d22 <__Pyx_PyObject_GetIndex+0x52>
    7005:	0f 1f 00             	nopl   (%rax)
    7008:	48 89 ea             	mov    %rbp,%rdx
    700b:	e9 18 fe ff ff       	jmp    6e28 <__Pyx_PyObject_GetIndex+0x158>
    7010:	49 8b 54 24 10       	mov    0x10(%r12),%rdx
    7015:	48 c7 c5 ff ff ff ff 	mov    $0xffffffffffffffff,%rbp
    701c:	e9 00 fe ff ff       	jmp    6e21 <__Pyx_PyObject_GetIndex+0x151>
    7021:	0f 1f 80 00 00 00 00 	nopl   0x0(%rax)
    7028:	49 8b 55 00          	mov    0x0(%r13),%rdx
    702c:	48 85 d2             	test   %rdx,%rdx
    702f:	0f 84 c2 fd ff ff    	je     6df7 <__Pyx_PyObject_GetIndex+0x127>
    7035:	4c 89 e7             	mov    %r12,%rdi
    7038:	ff d2                	call   *%rdx
    703a:	48 85 c0             	test   %rax,%rax
    703d:	78 15                	js     7054 <__Pyx_PyObject_GetIndex+0x384>
    703f:	48 01 c5             	add    %rax,%rbp
    7042:	49 8b 45 18          	mov    0x18(%r13),%rax
    7046:	e9 ac fd ff ff       	jmp    6df7 <__Pyx_PyObject_GetIndex+0x127>
    704b:	48 8b 47 10          	mov    0x10(%rdi),%rax
    704f:	e9 d4 fd ff ff       	jmp    6e28 <__Pyx_PyObject_GetIndex+0x158>
    7054:	48 8b 05 1d 7f 00 00 	mov    0x7f1d(%rip),%rax        # ef78 <PyExc_OverflowError@Base>
    705b:	48 8b 38             	mov    (%rax),%rdi
    705e:	e8 cd c7 ff ff       	call   3830 <PyErr_ExceptionMatches@plt>
    7063:	85 c0                	test   %eax,%eax
    7065:	0f 84 75 ff ff ff    	je     6fe0 <__Pyx_PyObject_GetIndex+0x310>
    706b:	e8 70 c8 ff ff       	call   38e0 <PyErr_Clear@plt>
    7070:	49 8b 45 18          	mov    0x18(%r13),%rax
    7074:	e9 7e fd ff ff       	jmp    6df7 <__Pyx_PyObject_GetIndex+0x127>
    7079:	0f 1f 80 00 00 00 00 	nopl   0x0(%rax)

0000000000007080 <__Pyx_CyFunction_CallAsMethod>:
    7080:	f3 0f 1e fa          	endbr64 
    7084:	41 57                	push   %r15
    7086:	41 56                	push   %r14
    7088:	41 55                	push   %r13
    708a:	49 89 f5             	mov    %rsi,%r13
    708d:	41 54                	push   %r12
    708f:	49 89 d4             	mov    %rdx,%r12
    7092:	55                   	push   %rbp
    7093:	48 89 fd             	mov    %rdi,%rbp
    7096:	53                   	push   %rbx
    7097:	48 83 ec 68          	sub    $0x68,%rsp
    709b:	4c 8b 47 30          	mov    0x30(%rdi),%r8
    709f:	64 48 8b 04 25 28 00 	mov    %fs:0x28,%rax
    70a6:	00 00 
    70a8:	48 89 44 24 58       	mov    %rax,0x58(%rsp)
    70ad:	31 c0                	xor    %eax,%eax
    70af:	4d 85 c0             	test   %r8,%r8
    70b2:	0f 85 c0 00 00 00    	jne    7178 <__Pyx_CyFunction_CallAsMethod+0xf8>
    70b8:	8b 87 90 00 00 00    	mov    0x90(%rdi),%eax
    70be:	83 e0 05             	and    $0x5,%eax
    70c1:	83 f8 04             	cmp    $0x4,%eax
    70c4:	74 3a                	je     7100 <__Pyx_CyFunction_CallAsMethod+0x80>
    70c6:	48 8b 44 24 58       	mov    0x58(%rsp),%rax
    70cb:	64 48 2b 04 25 28 00 	sub    %fs:0x28,%rax
    70d2:	00 00 
    70d4:	0f 85 16 03 00 00    	jne    73f0 <__Pyx_CyFunction_CallAsMethod+0x370>
    70da:	48 8b 77 18          	mov    0x18(%rdi),%rsi
    70de:	48 83 c4 68          	add    $0x68,%rsp
    70e2:	48 89 d1             	mov    %rdx,%rcx
    70e5:	4c 89 ea             	mov    %r13,%rdx
    70e8:	5b                   	pop    %rbx
    70e9:	5d                   	pop    %rbp
    70ea:	41 5c                	pop    %r12
    70ec:	41 5d                	pop    %r13
    70ee:	41 5e                	pop    %r14
    70f0:	41 5f                	pop    %r15
    70f2:	e9 19 e6 ff ff       	jmp    5710 <__Pyx_CyFunction_CallMethod>
    70f7:	66 0f 1f 84 00 00 00 	nopw   0x0(%rax,%rax,1)
    70fe:	00 00 
    7100:	48 8b 56 10          	mov    0x10(%rsi),%rdx
    7104:	4c 89 ef             	mov    %r13,%rdi
    7107:	be 01 00 00 00       	mov    $0x1,%esi
    710c:	e8 5f c8 ff ff       	call   3970 <PyTuple_GetSlice@plt>
    7111:	49 89 c6             	mov    %rax,%r14
    7114:	48 85 c0             	test   %rax,%rax
    7117:	0f 84 ab 00 00 00    	je     71c8 <__Pyx_CyFunction_CallAsMethod+0x148>
    711d:	4c 89 ef             	mov    %r13,%rdi
    7120:	31 f6                	xor    %esi,%esi
    7122:	e8 e9 c6 ff ff       	call   3810 <PyTuple_GetItem@plt>
    7127:	49 89 c5             	mov    %rax,%r13
    712a:	48 85 c0             	test   %rax,%rax
    712d:	0f 84 35 02 00 00    	je     7368 <__Pyx_CyFunction_CallAsMethod+0x2e8>
    7133:	4c 89 e1             	mov    %r12,%rcx
    7136:	4c 89 f2             	mov    %r14,%rdx
    7139:	48 89 c6             	mov    %rax,%rsi
    713c:	48 89 ef             	mov    %rbp,%rdi
    713f:	e8 cc e5 ff ff       	call   5710 <__Pyx_CyFunction_CallMethod>
    7144:	49 83 2e 01          	subq   $0x1,(%r14)
    7148:	49 89 c5             	mov    %rax,%r13
    714b:	74 6b                	je     71b8 <__Pyx_CyFunction_CallAsMethod+0x138>
    714d:	48 8b 44 24 58       	mov    0x58(%rsp),%rax
    7152:	64 48 2b 04 25 28 00 	sub    %fs:0x28,%rax
    7159:	00 00 
    715b:	0f 85 8f 02 00 00    	jne    73f0 <__Pyx_CyFunction_CallAsMethod+0x370>
    7161:	48 83 c4 68          	add    $0x68,%rsp
    7165:	4c 89 e8             	mov    %r13,%rax
    7168:	5b                   	pop    %rbx
    7169:	5d                   	pop    %rbp
    716a:	41 5c                	pop    %r12
    716c:	41 5d                	pop    %r13
    716e:	41 5e                	pop    %r14
    7170:	41 5f                	pop    %r15
    7172:	c3                   	ret    
    7173:	0f 1f 44 00 00       	nopl   0x0(%rax,%rax,1)
    7178:	4c 8b 76 10          	mov    0x10(%rsi),%r14
    717c:	48 8d 76 18          	lea    0x18(%rsi),%rsi
    7180:	48 85 d2             	test   %rdx,%rdx
    7183:	75 4b                	jne    71d0 <__Pyx_CyFunction_CallAsMethod+0x150>
    7185:	48 8b 44 24 58       	mov    0x58(%rsp),%rax
    718a:	64 48 2b 04 25 28 00 	sub    %fs:0x28,%rax
    7191:	00 00 
    7193:	0f 85 57 02 00 00    	jne    73f0 <__Pyx_CyFunction_CallAsMethod+0x370>
    7199:	48 83 c4 68          	add    $0x68,%rsp
    719d:	4c 89 f2             	mov    %r14,%rdx
    71a0:	48 89 ef             	mov    %rbp,%rdi
    71a3:	31 c9                	xor    %ecx,%ecx
    71a5:	5b                   	pop    %rbx
    71a6:	5d                   	pop    %rbp
    71a7:	41 5c                	pop    %r12
    71a9:	41 5d                	pop    %r13
    71ab:	41 5e                	pop    %r14
    71ad:	41 5f                	pop    %r15
    71af:	41 ff e0             	jmp    *%r8
    71b2:	66 0f 1f 44 00 00    	nopw   0x0(%rax,%rax,1)
    71b8:	4c 89 f7             	mov    %r14,%rdi
    71bb:	e8 50 c5 ff ff       	call   3710 <_Py_Dealloc@plt>
    71c0:	eb 8b                	jmp    714d <__Pyx_CyFunction_CallAsMethod+0xcd>
    71c2:	66 0f 1f 44 00 00    	nopw   0x0(%rax,%rax,1)
    71c8:	45 31 ed             	xor    %r13d,%r13d
    71cb:	e9 7d ff ff ff       	jmp    714d <__Pyx_CyFunction_CallAsMethod+0xcd>
    71d0:	48 8b 42 10          	mov    0x10(%rdx),%rax
    71d4:	48 89 44 24 18       	mov    %rax,0x18(%rsp)
    71d9:	48 85 c0             	test   %rax,%rax
    71dc:	74 a7                	je     7185 <__Pyx_CyFunction_CallAsMethod+0x105>
    71de:	48 8b 44 24 18       	mov    0x18(%rsp),%rax
    71e3:	4c 89 44 24 08       	mov    %r8,0x8(%rsp)
    71e8:	4a 8d 3c 30          	lea    (%rax,%r14,1),%rdi
    71ec:	48 c1 e7 03          	shl    $0x3,%rdi
    71f0:	e8 eb c8 ff ff       	call   3ae0 <PyMem_Malloc@plt>
    71f5:	48 89 44 24 20       	mov    %rax,0x20(%rsp)
    71fa:	48 85 c0             	test   %rax,%rax
    71fd:	0f 84 b3 01 00 00    	je     73b6 <__Pyx_CyFunction_CallAsMethod+0x336>
    7203:	31 c0                	xor    %eax,%eax
    7205:	4d 85 f6             	test   %r14,%r14
    7208:	48 8b 4c 24 20       	mov    0x20(%rsp),%rcx
    720d:	4c 8b 44 24 08       	mov    0x8(%rsp),%r8
    7212:	74 16                	je     722a <__Pyx_CyFunction_CallAsMethod+0x1aa>
    7214:	0f 1f 40 00          	nopl   0x0(%rax)
    7218:	49 8b 54 c5 18       	mov    0x18(%r13,%rax,8),%rdx
    721d:	48 89 14 c1          	mov    %rdx,(%rcx,%rax,8)
    7221:	48 83 c0 01          	add    $0x1,%rax
    7225:	49 39 c6             	cmp    %rax,%r14
    7228:	75 ee                	jne    7218 <__Pyx_CyFunction_CallAsMethod+0x198>
    722a:	48 8b 7c 24 18       	mov    0x18(%rsp),%rdi
    722f:	4c 89 44 24 10       	mov    %r8,0x10(%rsp)
    7234:	e8 c7 c6 ff ff       	call   3900 <PyTuple_New@plt>
    7239:	4c 8b 44 24 10       	mov    0x10(%rsp),%r8
    723e:	48 85 c0             	test   %rax,%rax
    7241:	48 89 44 24 08       	mov    %rax,0x8(%rsp)
    7246:	0f 84 77 01 00 00    	je     73c3 <__Pyx_CyFunction_CallAsMethod+0x343>
    724c:	48 8b 44 24 20       	mov    0x20(%rsp),%rax
    7251:	41 bd 00 00 00 10    	mov    $0x10000000,%r13d
    7257:	45 31 ff             	xor    %r15d,%r15d
    725a:	48 8d 4c 24 48       	lea    0x48(%rsp),%rcx
    725f:	48 8d 7c 24 40       	lea    0x40(%rsp),%rdi
    7264:	4c 89 74 24 28       	mov    %r14,0x28(%rsp)
    7269:	4a 8d 1c f0          	lea    (%rax,%r14,8),%rbx
    726d:	48 8d 44 24 50       	lea    0x50(%rsp),%rax
    7272:	48 89 6c 24 38       	mov    %rbp,0x38(%rsp)
    7277:	49 89 ce             	mov    %rcx,%r14
    727a:	48 89 5c 24 10       	mov    %rbx,0x10(%rsp)
    727f:	48 89 fd             	mov    %rdi,%rbp
    7282:	4c 89 eb             	mov    %r13,%rbx
    7285:	4d 89 fd             	mov    %r15,%r13
    7288:	48 c7 44 24 40 00 00 	movq   $0x0,0x40(%rsp)
    728f:	00 00 
    7291:	49 89 c7             	mov    %rax,%r15
    7294:	4c 89 44 24 30       	mov    %r8,0x30(%rsp)
    7299:	eb 39                	jmp    72d4 <__Pyx_CyFunction_CallAsMethod+0x254>
    729b:	0f 1f 44 00 00       	nopl   0x0(%rax,%rax,1)
    72a0:	48 8b 44 24 48       	mov    0x48(%rsp),%rax
    72a5:	48 8b 4c 24 08       	mov    0x8(%rsp),%rcx
    72aa:	48 8b 50 08          	mov    0x8(%rax),%rdx
    72ae:	48 23 9a a8 00 00 00 	and    0xa8(%rdx),%rbx
    72b5:	48 8b 54 24 50       	mov    0x50(%rsp),%rdx
    72ba:	48 83 00 01          	addq   $0x1,(%rax)
    72be:	48 83 02 01          	addq   $0x1,(%rdx)
    72c2:	4a 89 44 e9 18       	mov    %rax,0x18(%rcx,%r13,8)
    72c7:	48 8b 44 24 10       	mov    0x10(%rsp),%rax
    72cc:	4a 89 14 e8          	mov    %rdx,(%rax,%r13,8)
    72d0:	49 83 c5 01          	add    $0x1,%r13
    72d4:	4c 89 f9             	mov    %r15,%rcx
    72d7:	4c 89 f2             	mov    %r14,%rdx
    72da:	48 89 ee             	mov    %rbp,%rsi
    72dd:	4c 89 e7             	mov    %r12,%rdi
    72e0:	e8 1b c7 ff ff       	call   3a00 <PyDict_Next@plt>
    72e5:	85 c0                	test   %eax,%eax
    72e7:	75 b7                	jne    72a0 <__Pyx_CyFunction_CallAsMethod+0x220>
    72e9:	49 89 dd             	mov    %rbx,%r13
    72ec:	4c 8b 74 24 28       	mov    0x28(%rsp),%r14
    72f1:	4c 8b 44 24 30       	mov    0x30(%rsp),%r8
    72f6:	48 8b 5c 24 10       	mov    0x10(%rsp),%rbx
    72fb:	48 8b 6c 24 38       	mov    0x38(%rsp),%rbp
    7300:	4d 85 ed             	test   %r13,%r13
    7303:	0f 84 cc 00 00 00    	je     73d5 <__Pyx_CyFunction_CallAsMethod+0x355>
    7309:	48 8b 4c 24 08       	mov    0x8(%rsp),%rcx
    730e:	48 8b 74 24 20       	mov    0x20(%rsp),%rsi
    7313:	4c 89 f2             	mov    %r14,%rdx
    7316:	48 89 ef             	mov    %rbp,%rdi
    7319:	41 ff d0             	call   *%r8
    731c:	49 89 c5             	mov    %rax,%r13
    731f:	48 8b 4c 24 08       	mov    0x8(%rsp),%rcx
    7324:	48 8b 01             	mov    (%rcx),%rax
    7327:	48 89 44 24 10       	mov    %rax,0x10(%rsp)
    732c:	48 83 e8 01          	sub    $0x1,%rax
    7330:	48 89 01             	mov    %rax,(%rcx)
    7333:	74 74                	je     73a9 <__Pyx_CyFunction_CallAsMethod+0x329>
    7335:	4c 8b 64 24 18       	mov    0x18(%rsp),%r12
    733a:	4d 85 e4             	test   %r12,%r12
    733d:	7e 51                	jle    7390 <__Pyx_CyFunction_CallAsMethod+0x310>
    733f:	31 ed                	xor    %ebp,%ebp
    7341:	eb 0e                	jmp    7351 <__Pyx_CyFunction_CallAsMethod+0x2d1>
    7343:	0f 1f 44 00 00       	nopl   0x0(%rax,%rax,1)
    7348:	48 83 c5 01          	add    $0x1,%rbp
    734c:	49 39 ec             	cmp    %rbp,%r12
    734f:	74 3f                	je     7390 <__Pyx_CyFunction_CallAsMethod+0x310>
    7351:	48 8b 3c eb          	mov    (%rbx,%rbp,8),%rdi
    7355:	48 83 2f 01          	subq   $0x1,(%rdi)
    7359:	75 ed                	jne    7348 <__Pyx_CyFunction_CallAsMethod+0x2c8>
    735b:	e8 b0 c3 ff ff       	call   3710 <_Py_Dealloc@plt>
    7360:	eb e6                	jmp    7348 <__Pyx_CyFunction_CallAsMethod+0x2c8>
    7362:	66 0f 1f 44 00 00    	nopw   0x0(%rax,%rax,1)
    7368:	49 83 2e 01          	subq   $0x1,(%r14)
    736c:	74 31                	je     739f <__Pyx_CyFunction_CallAsMethod+0x31f>
    736e:	48 8b 05 e3 7b 00 00 	mov    0x7be3(%rip),%rax        # ef58 <PyExc_TypeError@Base>
    7375:	48 8b 55 50          	mov    0x50(%rbp),%rdx
    7379:	48 8d 35 f0 4f 00 00 	lea    0x4ff0(%rip),%rsi        # c370 <_fini+0x5f8>
    7380:	48 8b 38             	mov    (%rax),%rdi
    7383:	31 c0                	xor    %eax,%eax
    7385:	e8 06 c7 ff ff       	call   3a90 <PyErr_Format@plt>
    738a:	e9 be fd ff ff       	jmp    714d <__Pyx_CyFunction_CallAsMethod+0xcd>
    738f:	90                   	nop
    7390:	48 8b 7c 24 20       	mov    0x20(%rsp),%rdi
    7395:	e8 e6 c2 ff ff       	call   3680 <PyMem_Free@plt>
    739a:	e9 ae fd ff ff       	jmp    714d <__Pyx_CyFunction_CallAsMethod+0xcd>
    739f:	4c 89 f7             	mov    %r14,%rdi
    73a2:	e8 69 c3 ff ff       	call   3710 <_Py_Dealloc@plt>
    73a7:	eb c5                	jmp    736e <__Pyx_CyFunction_CallAsMethod+0x2ee>
    73a9:	48 89 cf             	mov    %rcx,%rdi
    73ac:	e8 5f c3 ff ff       	call   3710 <_Py_Dealloc@plt>
    73b1:	e9 7f ff ff ff       	jmp    7335 <__Pyx_CyFunction_CallAsMethod+0x2b5>
    73b6:	e8 75 c3 ff ff       	call   3730 <PyErr_NoMemory@plt>
    73bb:	45 31 ed             	xor    %r13d,%r13d
    73be:	e9 8a fd ff ff       	jmp    714d <__Pyx_CyFunction_CallAsMethod+0xcd>
    73c3:	48 8b 7c 24 20       	mov    0x20(%rsp),%rdi
    73c8:	45 31 ed             	xor    %r13d,%r13d
    73cb:	e8 b0 c2 ff ff       	call   3680 <PyMem_Free@plt>
    73d0:	e9 78 fd ff ff       	jmp    714d <__Pyx_CyFunction_CallAsMethod+0xcd>
    73d5:	48 8b 05 7c 7b 00 00 	mov    0x7b7c(%rip),%rax        # ef58 <PyExc_TypeError@Base>
    73dc:	48 8d 35 26 53 00 00 	lea    0x5326(%rip),%rsi        # c709 <_fini+0x991>
    73e3:	48 8b 38             	mov    (%rax),%rdi
    73e6:	e8 b5 c3 ff ff       	call   37a0 <PyErr_SetString@plt>
    73eb:	e9 2f ff ff ff       	jmp    731f <__Pyx_CyFunction_CallAsMethod+0x29f>
    73f0:	e8 8b c3 ff ff       	call   3780 <__stack_chk_fail@plt>
    73f5:	66 66 2e 0f 1f 84 00 	data16 cs nopw 0x0(%rax,%rax,1)
    73fc:	00 00 00 00 

0000000000007400 <__Pyx_PyObject_GetAttrStr_ClearAttributeError>:
    7400:	41 55                	push   %r13
    7402:	41 54                	push   %r12
    7404:	55                   	push   %rbp
    7405:	53                   	push   %rbx
    7406:	48 83 ec 18          	sub    $0x18,%rsp
    740a:	e8 21 c2 ff ff       	call   3630 <_PyThreadState_UncheckedGet@plt>
    740f:	48 89 c3             	mov    %rax,%rbx
    7412:	48 8b 05 97 7b 00 00 	mov    0x7b97(%rip),%rax        # efb0 <PyExc_AttributeError@Base>
    7419:	48 8b 7b 58          	mov    0x58(%rbx),%rdi
    741d:	48 8b 28             	mov    (%rax),%rbp
    7420:	48 39 fd             	cmp    %rdi,%rbp
    7423:	0f 84 e7 00 00 00    	je     7510 <__Pyx_PyObject_GetAttrStr_ClearAttributeError+0x110>
    7429:	48 85 ff             	test   %rdi,%rdi
    742c:	0f 84 bc 00 00 00    	je     74ee <__Pyx_PyObject_GetAttrStr_ClearAttributeError+0xee>
    7432:	48 8b 45 08          	mov    0x8(%rbp),%rax
    7436:	48 8b 80 a8 00 00 00 	mov    0xa8(%rax),%rax
    743d:	a9 00 00 00 04       	test   $0x4000000,%eax
    7442:	0f 85 30 01 00 00    	jne    7578 <__Pyx_PyObject_GetAttrStr_ClearAttributeError+0x178>
    7448:	48 8b 57 08          	mov    0x8(%rdi),%rdx
    744c:	f6 82 ab 00 00 00 80 	testb  $0x80,0xab(%rdx)
    7453:	0f 84 a7 00 00 00    	je     7500 <__Pyx_PyObject_GetAttrStr_ClearAttributeError+0x100>
    7459:	f6 87 ab 00 00 00 40 	testb  $0x40,0xab(%rdi)
    7460:	0f 84 9a 00 00 00    	je     7500 <__Pyx_PyObject_GetAttrStr_ClearAttributeError+0x100>
    7466:	a9 00 00 00 80       	test   $0x80000000,%eax
    746b:	0f 84 8f 00 00 00    	je     7500 <__Pyx_PyObject_GetAttrStr_ClearAttributeError+0x100>
    7471:	f6 85 ab 00 00 00 40 	testb  $0x40,0xab(%rbp)
    7478:	0f 84 82 00 00 00    	je     7500 <__Pyx_PyObject_GetAttrStr_ClearAttributeError+0x100>
    747e:	48 8b 97 58 01 00 00 	mov    0x158(%rdi),%rdx
    7485:	48 85 d2             	test   %rdx,%rdx
    7488:	0f 84 1a 01 00 00    	je     75a8 <__Pyx_PyObject_GetAttrStr_ClearAttributeError+0x1a8>
    748e:	48 8b 4a 10          	mov    0x10(%rdx),%rcx
    7492:	48 85 c9             	test   %rcx,%rcx
    7495:	7e 57                	jle    74ee <__Pyx_PyObject_GetAttrStr_ClearAttributeError+0xee>
    7497:	31 c0                	xor    %eax,%eax
    7499:	eb 0e                	jmp    74a9 <__Pyx_PyObject_GetAttrStr_ClearAttributeError+0xa9>
    749b:	0f 1f 44 00 00       	nopl   0x0(%rax,%rax,1)
    74a0:	48 83 c0 01          	add    $0x1,%rax
    74a4:	48 39 c1             	cmp    %rax,%rcx
    74a7:	74 45                	je     74ee <__Pyx_PyObject_GetAttrStr_ClearAttributeError+0xee>
    74a9:	48 3b 6c c2 18       	cmp    0x18(%rdx,%rax,8),%rbp
    74ae:	75 f0                	jne    74a0 <__Pyx_PyObject_GetAttrStr_ClearAttributeError+0xa0>
    74b0:	4c 8b 63 60          	mov    0x60(%rbx),%r12
    74b4:	48 8b 6b 68          	mov    0x68(%rbx),%rbp
    74b8:	48 c7 43 58 00 00 00 	movq   $0x0,0x58(%rbx)
    74bf:	00 
    74c0:	48 c7 43 60 00 00 00 	movq   $0x0,0x60(%rbx)
    74c7:	00 
    74c8:	48 c7 43 68 00 00 00 	movq   $0x0,0x68(%rbx)
    74cf:	00 
    74d0:	48 83 2f 01          	subq   $0x1,(%rdi)
    74d4:	74 6a                	je     7540 <__Pyx_PyObject_GetAttrStr_ClearAttributeError+0x140>
    74d6:	4d 85 e4             	test   %r12,%r12
    74d9:	74 07                	je     74e2 <__Pyx_PyObject_GetAttrStr_ClearAttributeError+0xe2>
    74db:	49 83 2c 24 01       	subq   $0x1,(%r12)
    74e0:	74 6e                	je     7550 <__Pyx_PyObject_GetAttrStr_ClearAttributeError+0x150>
    74e2:	48 85 ed             	test   %rbp,%rbp
    74e5:	74 07                	je     74ee <__Pyx_PyObject_GetAttrStr_ClearAttributeError+0xee>
    74e7:	48 83 6d 00 01       	subq   $0x1,0x0(%rbp)
    74ec:	74 72                	je     7560 <__Pyx_PyObject_GetAttrStr_ClearAttributeError+0x160>
    74ee:	48 83 c4 18          	add    $0x18,%rsp
    74f2:	5b                   	pop    %rbx
    74f3:	5d                   	pop    %rbp
    74f4:	41 5c                	pop    %r12
    74f6:	41 5d                	pop    %r13
    74f8:	c3                   	ret    
    74f9:	0f 1f 80 00 00 00 00 	nopl   0x0(%rax)
    7500:	48 89 ee             	mov    %rbp,%rsi
    7503:	e8 88 c2 ff ff       	call   3790 <PyErr_GivenExceptionMatches@plt>
    7508:	85 c0                	test   %eax,%eax
    750a:	74 e2                	je     74ee <__Pyx_PyObject_GetAttrStr_ClearAttributeError+0xee>
    750c:	48 8b 7b 58          	mov    0x58(%rbx),%rdi
    7510:	4c 8b 63 60          	mov    0x60(%rbx),%r12
    7514:	48 8b 6b 68          	mov    0x68(%rbx),%rbp
    7518:	48 c7 43 58 00 00 00 	movq   $0x0,0x58(%rbx)
    751f:	00 
    7520:	48 c7 43 60 00 00 00 	movq   $0x0,0x60(%rbx)
    7527:	00 
    7528:	48 c7 43 68 00 00 00 	movq   $0x0,0x68(%rbx)
    752f:	00 
    7530:	48 85 ff             	test   %rdi,%rdi
    7533:	75 9b                	jne    74d0 <__Pyx_PyObject_GetAttrStr_ClearAttributeError+0xd0>
    7535:	4d 85 e4             	test   %r12,%r12
    7538:	75 a1                	jne    74db <__Pyx_PyObject_GetAttrStr_ClearAttributeError+0xdb>
    753a:	eb a6                	jmp    74e2 <__Pyx_PyObject_GetAttrStr_ClearAttributeError+0xe2>
    753c:	0f 1f 40 00          	nopl   0x0(%rax)
    7540:	e8 cb c1 ff ff       	call   3710 <_Py_Dealloc@plt>
    7545:	4d 85 e4             	test   %r12,%r12
    7548:	75 91                	jne    74db <__Pyx_PyObject_GetAttrStr_ClearAttributeError+0xdb>
    754a:	eb 96                	jmp    74e2 <__Pyx_PyObject_GetAttrStr_ClearAttributeError+0xe2>
    754c:	0f 1f 40 00          	nopl   0x0(%rax)
    7550:	4c 89 e7             	mov    %r12,%rdi
    7553:	e8 b8 c1 ff ff       	call   3710 <_Py_Dealloc@plt>
    7558:	48 85 ed             	test   %rbp,%rbp
    755b:	75 8a                	jne    74e7 <__Pyx_PyObject_GetAttrStr_ClearAttributeError+0xe7>
    755d:	eb 8f                	jmp    74ee <__Pyx_PyObject_GetAttrStr_ClearAttributeError+0xee>
    755f:	90                   	nop
    7560:	48 83 c4 18          	add    $0x18,%rsp
    7564:	48 89 ef             	mov    %rbp,%rdi
    7567:	5b                   	pop    %rbx
    7568:	5d                   	pop    %rbp
    7569:	41 5c                	pop    %r12
    756b:	41 5d                	pop    %r13
    756d:	e9 9e c1 ff ff       	jmp    3710 <_Py_Dealloc@plt>
    7572:	66 0f 1f 44 00 00    	nopw   0x0(%rax,%rax,1)
    7578:	4c 8b 65 10          	mov    0x10(%rbp),%r12
    757c:	4d 85 e4             	test   %r12,%r12
    757f:	0f 8e 69 ff ff ff    	jle    74ee <__Pyx_PyObject_GetAttrStr_ClearAttributeError+0xee>
    7585:	31 c0                	xor    %eax,%eax
    7587:	eb 10                	jmp    7599 <__Pyx_PyObject_GetAttrStr_ClearAttributeError+0x199>
    7589:	0f 1f 80 00 00 00 00 	nopl   0x0(%rax)
    7590:	48 83 c0 01          	add    $0x1,%rax
    7594:	49 39 c4             	cmp    %rax,%r12
    7597:	74 47                	je     75e0 <__Pyx_PyObject_GetAttrStr_ClearAttributeError+0x1e0>
    7599:	48 3b 7c c5 18       	cmp    0x18(%rbp,%rax,8),%rdi
    759e:	75 f0                	jne    7590 <__Pyx_PyObject_GetAttrStr_ClearAttributeError+0x190>
    75a0:	e9 0b ff ff ff       	jmp    74b0 <__Pyx_PyObject_GetAttrStr_ClearAttributeError+0xb0>
    75a5:	0f 1f 00             	nopl   (%rax)
    75a8:	48 89 f8             	mov    %rdi,%rax
    75ab:	0f 1f 44 00 00       	nopl   0x0(%rax,%rax,1)
    75b0:	48 8b 80 00 01 00 00 	mov    0x100(%rax),%rax
    75b7:	48 39 c5             	cmp    %rax,%rbp
    75ba:	0f 84 f0 fe ff ff    	je     74b0 <__Pyx_PyObject_GetAttrStr_ClearAttributeError+0xb0>
    75c0:	48 85 c0             	test   %rax,%rax
    75c3:	75 eb                	jne    75b0 <__Pyx_PyObject_GetAttrStr_ClearAttributeError+0x1b0>
    75c5:	48 3b 2d cc 79 00 00 	cmp    0x79cc(%rip),%rbp        # ef98 <PyBaseObject_Type@Base>
    75cc:	0f 84 de fe ff ff    	je     74b0 <__Pyx_PyObject_GetAttrStr_ClearAttributeError+0xb0>
    75d2:	e9 17 ff ff ff       	jmp    74ee <__Pyx_PyObject_GetAttrStr_ClearAttributeError+0xee>
    75d7:	66 0f 1f 84 00 00 00 	nopw   0x0(%rax,%rax,1)
    75de:	00 00 
    75e0:	45 31 ed             	xor    %r13d,%r13d
    75e3:	4a 8b 74 ed 18       	mov    0x18(%rbp,%r13,8),%rsi
    75e8:	48 39 f7             	cmp    %rsi,%rdi
    75eb:	0f 84 1b ff ff ff    	je     750c <__Pyx_PyObject_GetAttrStr_ClearAttributeError+0x10c>
    75f1:	48 8b 47 08          	mov    0x8(%rdi),%rax
    75f5:	f6 80 ab 00 00 00 80 	testb  $0x80,0xab(%rax)
    75fc:	74 5d                	je     765b <__Pyx_PyObject_GetAttrStr_ClearAttributeError+0x25b>
    75fe:	f6 87 ab 00 00 00 40 	testb  $0x40,0xab(%rdi)
    7605:	74 54                	je     765b <__Pyx_PyObject_GetAttrStr_ClearAttributeError+0x25b>
    7607:	48 8b 46 08          	mov    0x8(%rsi),%rax
    760b:	48 8b 80 a8 00 00 00 	mov    0xa8(%rax),%rax
    7612:	a9 00 00 00 80       	test   $0x80000000,%eax
    7617:	74 5a                	je     7673 <__Pyx_PyObject_GetAttrStr_ClearAttributeError+0x273>
    7619:	f6 86 ab 00 00 00 40 	testb  $0x40,0xab(%rsi)
    7620:	74 51                	je     7673 <__Pyx_PyObject_GetAttrStr_ClearAttributeError+0x273>
    7622:	48 8b 97 58 01 00 00 	mov    0x158(%rdi),%rdx
    7629:	48 85 d2             	test   %rdx,%rdx
    762c:	74 53                	je     7681 <__Pyx_PyObject_GetAttrStr_ClearAttributeError+0x281>
    762e:	48 8b 4a 10          	mov    0x10(%rdx),%rcx
    7632:	48 85 c9             	test   %rcx,%rcx
    7635:	7e 16                	jle    764d <__Pyx_PyObject_GetAttrStr_ClearAttributeError+0x24d>
    7637:	31 c0                	xor    %eax,%eax
    7639:	48 3b 74 c2 18       	cmp    0x18(%rdx,%rax,8),%rsi
    763e:	0f 84 c8 fe ff ff    	je     750c <__Pyx_PyObject_GetAttrStr_ClearAttributeError+0x10c>
    7644:	48 83 c0 01          	add    $0x1,%rax
    7648:	48 39 c1             	cmp    %rax,%rcx
    764b:	75 ec                	jne    7639 <__Pyx_PyObject_GetAttrStr_ClearAttributeError+0x239>
    764d:	49 83 c5 01          	add    $0x1,%r13
    7651:	4d 39 ec             	cmp    %r13,%r12
    7654:	75 8d                	jne    75e3 <__Pyx_PyObject_GetAttrStr_ClearAttributeError+0x1e3>
    7656:	e9 93 fe ff ff       	jmp    74ee <__Pyx_PyObject_GetAttrStr_ClearAttributeError+0xee>
    765b:	48 89 7c 24 08       	mov    %rdi,0x8(%rsp)
    7660:	e8 2b c1 ff ff       	call   3790 <PyErr_GivenExceptionMatches@plt>
    7665:	48 8b 7c 24 08       	mov    0x8(%rsp),%rdi
    766a:	85 c0                	test   %eax,%eax
    766c:	74 df                	je     764d <__Pyx_PyObject_GetAttrStr_ClearAttributeError+0x24d>
    766e:	e9 99 fe ff ff       	jmp    750c <__Pyx_PyObject_GetAttrStr_ClearAttributeError+0x10c>
    7673:	a9 00 00 00 04       	test   $0x4000000,%eax
    7678:	74 e1                	je     765b <__Pyx_PyObject_GetAttrStr_ClearAttributeError+0x25b>
    767a:	e8 71 e4 ff ff       	call   5af0 <__Pyx_PyErr_GivenExceptionMatchesTuple>
    767f:	eb e9                	jmp    766a <__Pyx_PyObject_GetAttrStr_ClearAttributeError+0x26a>
    7681:	48 89 f8             	mov    %rdi,%rax
    7684:	48 8b 80 00 01 00 00 	mov    0x100(%rax),%rax
    768b:	48 39 c6             	cmp    %rax,%rsi
    768e:	0f 84 78 fe ff ff    	je     750c <__Pyx_PyObject_GetAttrStr_ClearAttributeError+0x10c>
    7694:	48 85 c0             	test   %rax,%rax
    7697:	75 eb                	jne    7684 <__Pyx_PyObject_GetAttrStr_ClearAttributeError+0x284>
    7699:	48 3b 35 f8 78 00 00 	cmp    0x78f8(%rip),%rsi        # ef98 <PyBaseObject_Type@Base>
    76a0:	75 ab                	jne    764d <__Pyx_PyObject_GetAttrStr_ClearAttributeError+0x24d>
    76a2:	e9 65 fe ff ff       	jmp    750c <__Pyx_PyObject_GetAttrStr_ClearAttributeError+0x10c>
    76a7:	66 0f 1f 84 00 00 00 	nopw   0x0(%rax,%rax,1)
    76ae:	00 00 

00000000000076b0 <__Pyx_AddTraceback>:
    76b0:	41 57                	push   %r15
    76b2:	41 56                	push   %r14
    76b4:	41 55                	push   %r13
    76b6:	49 89 cd             	mov    %rcx,%r13
    76b9:	41 54                	push   %r12
    76bb:	41 89 f4             	mov    %esi,%r12d
    76be:	55                   	push   %rbp
    76bf:	48 89 fd             	mov    %rdi,%rbp
    76c2:	53                   	push   %rbx
    76c3:	89 d3                	mov    %edx,%ebx
    76c5:	48 83 ec 28          	sub    $0x28,%rsp
    76c9:	e8 62 bf ff ff       	call   3630 <_PyThreadState_UncheckedGet@plt>
    76ce:	48 8b 3d 1b 83 00 00 	mov    0x831b(%rip),%rdi        # f9f0 <__pyx_mstate_global_static+0x10>
    76d5:	4c 8b 15 cc 84 00 00 	mov    0x84cc(%rip),%r10        # fba8 <__pyx_code_cache+0x8>
    76dc:	49 89 c6             	mov    %rax,%r14
    76df:	48 85 ff             	test   %rdi,%rdi
    76e2:	0f 84 98 00 00 00    	je     7780 <__Pyx_AddTraceback+0xd0>
    76e8:	48 8b 40 58          	mov    0x58(%rax),%rax
    76ec:	4d 8b 7e 68          	mov    0x68(%r14),%r15
    76f0:	49 c7 46 58 00 00 00 	movq   $0x0,0x58(%r14)
    76f7:	00 
    76f8:	49 c7 46 68 00 00 00 	movq   $0x0,0x68(%r14)
    76ff:	00 
    7700:	48 89 04 24          	mov    %rax,(%rsp)
    7704:	49 8b 46 60          	mov    0x60(%r14),%rax
    7708:	49 c7 46 60 00 00 00 	movq   $0x0,0x60(%r14)
    770f:	00 
    7710:	48 89 44 24 08       	mov    %rax,0x8(%rsp)
    7715:	e8 06 c3 ff ff       	call   3a20 <_PyObject_GetDictPtr@plt>
    771a:	48 89 c1             	mov    %rax,%rcx
    771d:	48 85 c0             	test   %rax,%rax
    7720:	0f 84 42 05 00 00    	je     7c68 <__Pyx_AddTraceback+0x5b8>
    7726:	48 8b 38             	mov    (%rax),%rdi
    7729:	48 8b 05 40 82 00 00 	mov    0x8240(%rip),%rax        # f970 <__pyx_dict_version.2>
    7730:	48 39 47 18          	cmp    %rax,0x18(%rdi)
    7734:	0f 85 f6 05 00 00    	jne    7d30 <__Pyx_AddTraceback+0x680>
    773a:	4c 8b 0d 27 82 00 00 	mov    0x8227(%rip),%r9        # f968 <__pyx_dict_cached_value.1>
    7741:	4d 85 c9             	test   %r9,%r9
    7744:	0f 84 16 01 00 00    	je     7860 <__Pyx_AddTraceback+0x1b0>
    774a:	48 8b 05 0f 78 00 00 	mov    0x780f(%rip),%rax        # ef60 <_Py_FalseStruct@Base>
    7751:	49 39 c1             	cmp    %rax,%r9
    7754:	74 1d                	je     7773 <__Pyx_AddTraceback+0xc3>
    7756:	4c 3b 0d 2b 78 00 00 	cmp    0x782b(%rip),%r9        # ef88 <_Py_TrueStruct@Base>
    775d:	0f 84 1a 01 00 00    	je     787d <__Pyx_AddTraceback+0x1cd>
    7763:	4c 89 cf             	mov    %r9,%rdi
    7766:	e8 f5 c0 ff ff       	call   3860 <PyObject_Not@plt>
    776b:	85 c0                	test   %eax,%eax
    776d:	0f 84 0a 01 00 00    	je     787d <__Pyx_AddTraceback+0x1cd>
    7773:	45 31 e4             	xor    %r12d,%r12d
    7776:	e9 02 01 00 00       	jmp    787d <__Pyx_AddTraceback+0x1cd>
    777b:	0f 1f 44 00 00       	nopl   0x0(%rax,%rax,1)
    7780:	45 89 e7             	mov    %r12d,%r15d
    7783:	41 f7 df             	neg    %r15d
    7786:	4d 85 d2             	test   %r10,%r10
    7789:	0f 84 81 01 00 00    	je     7910 <__Pyx_AddTraceback+0x260>
    778f:	44 8b 1d 0a 84 00 00 	mov    0x840a(%rip),%r11d        # fba0 <__pyx_code_cache>
    7796:	44 89 fa             	mov    %r15d,%edx
    7799:	4c 89 d7             	mov    %r10,%rdi
    779c:	44 89 de             	mov    %r11d,%esi
    779f:	e8 1c de ff ff       	call   55c0 <__pyx_bisect_code_objects>
    77a4:	41 39 c3             	cmp    %eax,%r11d
    77a7:	0f 8e 63 01 00 00    	jle    7910 <__Pyx_AddTraceback+0x260>
    77ad:	48 98                	cltq   
    77af:	48 c1 e0 04          	shl    $0x4,%rax
    77b3:	4c 01 d0             	add    %r10,%rax
    77b6:	44 39 78 08          	cmp    %r15d,0x8(%rax)
    77ba:	0f 85 e0 02 00 00    	jne    7aa0 <__Pyx_AddTraceback+0x3f0>
    77c0:	48 8b 28             	mov    (%rax),%rbp
    77c3:	48 83 45 00 01       	addq   $0x1,0x0(%rbp)
    77c8:	48 8b 15 11 82 00 00 	mov    0x8211(%rip),%rdx        # f9e0 <__pyx_mstate_global_static>
    77cf:	31 c9                	xor    %ecx,%ecx
    77d1:	48 89 ee             	mov    %rbp,%rsi
    77d4:	4c 89 f7             	mov    %r14,%rdi
    77d7:	e8 94 be ff ff       	call   3670 <PyFrame_New@plt>
    77dc:	49 89 c4             	mov    %rax,%r12
    77df:	48 85 c0             	test   %rax,%rax
    77e2:	74 3c                	je     7820 <__Pyx_AddTraceback+0x170>
    77e4:	89 58 64             	mov    %ebx,0x64(%rax)
    77e7:	48 89 c7             	mov    %rax,%rdi
    77ea:	e8 61 c0 ff ff       	call   3850 <PyTraceBack_Here@plt>
    77ef:	48 83 6d 00 01       	subq   $0x1,0x0(%rbp)
    77f4:	75 08                	jne    77fe <__Pyx_AddTraceback+0x14e>
    77f6:	48 89 ef             	mov    %rbp,%rdi
    77f9:	e8 12 bf ff ff       	call   3710 <_Py_Dealloc@plt>
    77fe:	49 83 2c 24 01       	subq   $0x1,(%r12)
    7803:	4c 89 e7             	mov    %r12,%rdi
    7806:	74 22                	je     782a <__Pyx_AddTraceback+0x17a>
    7808:	48 83 c4 28          	add    $0x28,%rsp
    780c:	5b                   	pop    %rbx
    780d:	5d                   	pop    %rbp
    780e:	41 5c                	pop    %r12
    7810:	41 5d                	pop    %r13
    7812:	41 5e                	pop    %r14
    7814:	41 5f                	pop    %r15
    7816:	c3                   	ret    
    7817:	66 0f 1f 84 00 00 00 	nopw   0x0(%rax,%rax,1)
    781e:	00 00 
    7820:	48 83 6d 00 01       	subq   $0x1,0x0(%rbp)
    7825:	75 e1                	jne    7808 <__Pyx_AddTraceback+0x158>
    7827:	48 89 ef             	mov    %rbp,%rdi
    782a:	48 83 c4 28          	add    $0x28,%rsp
    782e:	5b                   	pop    %rbx
    782f:	5d                   	pop    %rbp
    7830:	41 5c                	pop    %r12
    7832:	41 5d                	pop    %r13
    7834:	41 5e                	pop    %r14
    7836:	41 5f                	pop    %r15
    7838:	e9 d3 be ff ff       	jmp    3710 <_Py_Dealloc@plt>
    783d:	48 85 c0             	test   %rax,%rax
    7840:	0f 84 f1 05 00 00    	je     7e37 <__Pyx_AddTraceback+0x787>
    7846:	ff d0                	call   *%rax
    7848:	48 89 c7             	mov    %rax,%rdi
    784b:	48 85 ff             	test   %rdi,%rdi
    784e:	0f 85 52 04 00 00    	jne    7ca6 <__Pyx_AddTraceback+0x5f6>
    7854:	e8 a7 fb ff ff       	call   7400 <__Pyx_PyObject_GetAttrStr_ClearAttributeError>
    7859:	e8 82 c0 ff ff       	call   38e0 <PyErr_Clear@plt>
    785e:	66 90                	xchg   %ax,%ax
    7860:	48 8b 15 f9 76 00 00 	mov    0x76f9(%rip),%rdx        # ef60 <_Py_FalseStruct@Base>
    7867:	48 8b 35 0a 82 00 00 	mov    0x820a(%rip),%rsi        # fa78 <__pyx_mstate_global_static+0x98>
    786e:	45 31 e4             	xor    %r12d,%r12d
    7871:	48 8b 3d 78 81 00 00 	mov    0x8178(%rip),%rdi        # f9f0 <__pyx_mstate_global_static+0x10>
    7878:	e8 a3 c0 ff ff       	call   3920 <PyObject_SetAttr@plt>
    787d:	48 8b 04 24          	mov    (%rsp),%rax
    7881:	49 8b 7e 58          	mov    0x58(%r14),%rdi
    7885:	4d 8b 56 60          	mov    0x60(%r14),%r10
    7889:	4d 8b 4e 68          	mov    0x68(%r14),%r9
    788d:	4d 89 7e 68          	mov    %r15,0x68(%r14)
    7891:	49 89 46 58          	mov    %rax,0x58(%r14)
    7895:	48 8b 44 24 08       	mov    0x8(%rsp),%rax
    789a:	49 89 46 60          	mov    %rax,0x60(%r14)
    789e:	48 85 ff             	test   %rdi,%rdi
    78a1:	74 0a                	je     78ad <__Pyx_AddTraceback+0x1fd>
    78a3:	48 83 2f 01          	subq   $0x1,(%rdi)
    78a7:	0f 84 83 03 00 00    	je     7c30 <__Pyx_AddTraceback+0x580>
    78ad:	4d 85 d2             	test   %r10,%r10
    78b0:	74 0a                	je     78bc <__Pyx_AddTraceback+0x20c>
    78b2:	49 83 2a 01          	subq   $0x1,(%r10)
    78b6:	0f 84 94 03 00 00    	je     7c50 <__Pyx_AddTraceback+0x5a0>
    78bc:	4d 85 c9             	test   %r9,%r9
    78bf:	74 0a                	je     78cb <__Pyx_AddTraceback+0x21b>
    78c1:	49 83 29 01          	subq   $0x1,(%r9)
    78c5:	0f 84 55 03 00 00    	je     7c20 <__Pyx_AddTraceback+0x570>
    78cb:	4c 8b 15 d6 82 00 00 	mov    0x82d6(%rip),%r10        # fba8 <__pyx_code_cache+0x8>
    78d2:	45 85 e4             	test   %r12d,%r12d
    78d5:	0f 85 a5 fe ff ff    	jne    7780 <__Pyx_AddTraceback+0xd0>
    78db:	4d 85 d2             	test   %r10,%r10
    78de:	0f 84 0c 02 00 00    	je     7af0 <__Pyx_AddTraceback+0x440>
    78e4:	44 8b 0d b5 82 00 00 	mov    0x82b5(%rip),%r9d        # fba0 <__pyx_code_cache>
    78eb:	89 da                	mov    %ebx,%edx
    78ed:	4c 89 d7             	mov    %r10,%rdi
    78f0:	44 89 ce             	mov    %r9d,%esi
    78f3:	e8 c8 dc ff ff       	call   55c0 <__pyx_bisect_code_objects>
    78f8:	44 39 c8             	cmp    %r9d,%eax
    78fb:	0f 8d ef 01 00 00    	jge    7af0 <__Pyx_AddTraceback+0x440>
    7901:	41 89 df             	mov    %ebx,%r15d
    7904:	e9 a4 fe ff ff       	jmp    77ad <__Pyx_AddTraceback+0xfd>
    7909:	0f 1f 80 00 00 00 00 	nopl   0x0(%rax)
    7910:	49 8b 46 58          	mov    0x58(%r14),%rax
    7914:	49 c7 46 58 00 00 00 	movq   $0x0,0x58(%r14)
    791b:	00 
    791c:	48 89 44 24 10       	mov    %rax,0x10(%rsp)
    7921:	49 8b 46 60          	mov    0x60(%r14),%rax
    7925:	49 c7 46 60 00 00 00 	movq   $0x0,0x60(%r14)
    792c:	00 
    792d:	48 89 04 24          	mov    %rax,(%rsp)
    7931:	49 8b 46 68          	mov    0x68(%r14),%rax
    7935:	49 c7 46 68 00 00 00 	movq   $0x0,0x68(%r14)
    793c:	00 
    793d:	48 89 44 24 08       	mov    %rax,0x8(%rsp)
    7942:	44 89 e1             	mov    %r12d,%ecx
    7945:	48 8d 15 54 4a 00 00 	lea    0x4a54(%rip),%rdx        # c3a0 <_fini+0x628>
    794c:	48 89 ee             	mov    %rbp,%rsi
    794f:	31 c0                	xor    %eax,%eax
    7951:	48 8d 3d ca 4d 00 00 	lea    0x4dca(%rip),%rdi        # c722 <_fini+0x9aa>
    7958:	e8 63 bc ff ff       	call   35c0 <PyUnicode_FromFormat@plt>
    795d:	49 89 c4             	mov    %rax,%r12
    7960:	48 85 c0             	test   %rax,%rax
    7963:	0f 84 d7 01 00 00    	je     7b40 <__Pyx_AddTraceback+0x490>
    7969:	48 89 c7             	mov    %rax,%rdi
    796c:	e8 9f c0 ff ff       	call   3a10 <PyUnicode_AsUTF8@plt>
    7971:	48 89 c6             	mov    %rax,%rsi
    7974:	48 85 c0             	test   %rax,%rax
    7977:	0f 84 b3 01 00 00    	je     7b30 <__Pyx_AddTraceback+0x480>
    797d:	89 da                	mov    %ebx,%edx
    797f:	4c 89 ef             	mov    %r13,%rdi
    7982:	e8 99 c1 ff ff       	call   3b20 <PyCode_NewEmpty@plt>
    7987:	49 83 2c 24 01       	subq   $0x1,(%r12)
    798c:	48 89 c5             	mov    %rax,%rbp
    798f:	0f 84 5b 03 00 00    	je     7cf0 <__Pyx_AddTraceback+0x640>
    7995:	48 85 ed             	test   %rbp,%rbp
    7998:	0f 84 a2 01 00 00    	je     7b40 <__Pyx_AddTraceback+0x490>
    799e:	48 8b 44 24 10       	mov    0x10(%rsp),%rax
    79a3:	49 8b 7e 58          	mov    0x58(%r14),%rdi
    79a7:	4d 8b 6e 60          	mov    0x60(%r14),%r13
    79ab:	4d 8b 66 68          	mov    0x68(%r14),%r12
    79af:	49 89 46 58          	mov    %rax,0x58(%r14)
    79b3:	48 8b 04 24          	mov    (%rsp),%rax
    79b7:	49 89 46 60          	mov    %rax,0x60(%r14)
    79bb:	48 8b 44 24 08       	mov    0x8(%rsp),%rax
    79c0:	49 89 46 68          	mov    %rax,0x68(%r14)
    79c4:	48 85 ff             	test   %rdi,%rdi
    79c7:	74 0a                	je     79d3 <__Pyx_AddTraceback+0x323>
    79c9:	48 83 2f 01          	subq   $0x1,(%rdi)
    79cd:	0f 84 2d 03 00 00    	je     7d00 <__Pyx_AddTraceback+0x650>
    79d3:	4d 85 ed             	test   %r13,%r13
    79d6:	74 0b                	je     79e3 <__Pyx_AddTraceback+0x333>
    79d8:	49 83 6d 00 01       	subq   $0x1,0x0(%r13)
    79dd:	0f 84 3d 03 00 00    	je     7d20 <__Pyx_AddTraceback+0x670>
    79e3:	4d 85 e4             	test   %r12,%r12
    79e6:	74 0b                	je     79f3 <__Pyx_AddTraceback+0x343>
    79e8:	49 83 2c 24 01       	subq   $0x1,(%r12)
    79ed:	0f 84 1d 03 00 00    	je     7d10 <__Pyx_AddTraceback+0x660>
    79f3:	4c 8b 15 ae 81 00 00 	mov    0x81ae(%rip),%r10        # fba8 <__pyx_code_cache+0x8>
    79fa:	45 85 ff             	test   %r15d,%r15d
    79fd:	0f 84 c5 fd ff ff    	je     77c8 <__Pyx_AddTraceback+0x118>
    7a03:	4d 85 d2             	test   %r10,%r10
    7a06:	0f 84 64 03 00 00    	je     7d70 <__Pyx_AddTraceback+0x6c0>
    7a0c:	44 8b 1d 8d 81 00 00 	mov    0x818d(%rip),%r11d        # fba0 <__pyx_code_cache>
    7a13:	44 89 fa             	mov    %r15d,%edx
    7a16:	4c 89 d7             	mov    %r10,%rdi
    7a19:	44 89 de             	mov    %r11d,%esi
    7a1c:	e8 9f db ff ff       	call   55c0 <__pyx_bisect_code_objects>
    7a21:	41 89 c4             	mov    %eax,%r12d
    7a24:	41 39 c3             	cmp    %eax,%r11d
    7a27:	0f 8e 93 01 00 00    	jle    7bc0 <__Pyx_AddTraceback+0x510>
    7a2d:	48 63 f0             	movslq %eax,%rsi
    7a30:	48 c1 e6 04          	shl    $0x4,%rsi
    7a34:	4c 01 d6             	add    %r10,%rsi
    7a37:	44 39 7e 08          	cmp    %r15d,0x8(%rsi)
    7a3b:	0f 84 b3 03 00 00    	je     7df4 <__Pyx_AddTraceback+0x744>
    7a41:	44 39 1d 5c 81 00 00 	cmp    %r11d,0x815c(%rip)        # fba4 <__pyx_code_cache+0x4>
    7a48:	0f 84 7f 01 00 00    	je     7bcd <__Pyx_AddTraceback+0x51d>
    7a4e:	41 8d 4b ff          	lea    -0x1(%r11),%ecx
    7a52:	44 89 da             	mov    %r11d,%edx
    7a55:	48 63 c9             	movslq %ecx,%rcx
    7a58:	48 c1 e1 04          	shl    $0x4,%rcx
    7a5c:	4c 01 d1             	add    %r10,%rcx
    7a5f:	90                   	nop
    7a60:	f3 0f 6f 01          	movdqu (%rcx),%xmm0
    7a64:	48 63 c2             	movslq %edx,%rax
    7a67:	83 ea 01             	sub    $0x1,%edx
    7a6a:	48 83 e9 10          	sub    $0x10,%rcx
    7a6e:	48 c1 e0 04          	shl    $0x4,%rax
    7a72:	41 0f 11 04 02       	movups %xmm0,(%r10,%rax,1)
    7a77:	41 39 d4             	cmp    %edx,%r12d
    7a7a:	7c e4                	jl     7a60 <__Pyx_AddTraceback+0x3b0>
    7a7c:	41 83 c3 01          	add    $0x1,%r11d
    7a80:	44 89 7e 08          	mov    %r15d,0x8(%rsi)
    7a84:	48 89 2e             	mov    %rbp,(%rsi)
    7a87:	44 89 1d 12 81 00 00 	mov    %r11d,0x8112(%rip)        # fba0 <__pyx_code_cache>
    7a8e:	48 83 45 00 01       	addq   $0x1,0x0(%rbp)
    7a93:	e9 30 fd ff ff       	jmp    77c8 <__Pyx_AddTraceback+0x118>
    7a98:	0f 1f 84 00 00 00 00 	nopl   0x0(%rax,%rax,1)
    7a9f:	00 
    7aa0:	49 8b 46 58          	mov    0x58(%r14),%rax
    7aa4:	49 c7 46 58 00 00 00 	movq   $0x0,0x58(%r14)
    7aab:	00 
    7aac:	48 89 44 24 10       	mov    %rax,0x10(%rsp)
    7ab1:	49 8b 46 60          	mov    0x60(%r14),%rax
    7ab5:	49 c7 46 60 00 00 00 	movq   $0x0,0x60(%r14)
    7abc:	00 
    7abd:	48 89 04 24          	mov    %rax,(%rsp)
    7ac1:	49 8b 46 68          	mov    0x68(%r14),%rax
    7ac5:	49 c7 46 68 00 00 00 	movq   $0x0,0x68(%r14)
    7acc:	00 
    7acd:	48 89 44 24 08       	mov    %rax,0x8(%rsp)
    7ad2:	45 85 e4             	test   %r12d,%r12d
    7ad5:	0f 85 67 fe ff ff    	jne    7942 <__Pyx_AddTraceback+0x292>
    7adb:	48 89 ee             	mov    %rbp,%rsi
    7ade:	89 da                	mov    %ebx,%edx
    7ae0:	4c 89 ef             	mov    %r13,%rdi
    7ae3:	e8 38 c0 ff ff       	call   3b20 <PyCode_NewEmpty@plt>
    7ae8:	48 89 c5             	mov    %rax,%rbp
    7aeb:	e9 a5 fe ff ff       	jmp    7995 <__Pyx_AddTraceback+0x2e5>
    7af0:	49 8b 46 58          	mov    0x58(%r14),%rax
    7af4:	41 89 df             	mov    %ebx,%r15d
    7af7:	49 c7 46 58 00 00 00 	movq   $0x0,0x58(%r14)
    7afe:	00 
    7aff:	48 89 44 24 10       	mov    %rax,0x10(%rsp)
    7b04:	49 8b 46 60          	mov    0x60(%r14),%rax
    7b08:	49 c7 46 60 00 00 00 	movq   $0x0,0x60(%r14)
    7b0f:	00 
    7b10:	48 89 04 24          	mov    %rax,(%rsp)
    7b14:	49 8b 46 68          	mov    0x68(%r14),%rax
    7b18:	49 c7 46 68 00 00 00 	movq   $0x0,0x68(%r14)
    7b1f:	00 
    7b20:	48 89 44 24 08       	mov    %rax,0x8(%rsp)
    7b25:	eb b4                	jmp    7adb <__Pyx_AddTraceback+0x42b>
    7b27:	66 0f 1f 84 00 00 00 	nopw   0x0(%rax,%rax,1)
    7b2e:	00 00 
    7b30:	49 83 2c 24 01       	subq   $0x1,(%r12)
    7b35:	75 09                	jne    7b40 <__Pyx_AddTraceback+0x490>
    7b37:	4c 89 e7             	mov    %r12,%rdi
    7b3a:	e8 d1 bb ff ff       	call   3710 <_Py_Dealloc@plt>
    7b3f:	90                   	nop
    7b40:	48 8b 5c 24 10       	mov    0x10(%rsp),%rbx
    7b45:	48 85 db             	test   %rbx,%rbx
    7b48:	74 1e                	je     7b68 <__Pyx_AddTraceback+0x4b8>
    7b4a:	48 8b 03             	mov    (%rbx),%rax
    7b4d:	48 89 44 24 18       	mov    %rax,0x18(%rsp)
    7b52:	48 83 e8 01          	sub    $0x1,%rax
    7b56:	48 89 03             	mov    %rax,(%rbx)
    7b59:	75 0d                	jne    7b68 <__Pyx_AddTraceback+0x4b8>
    7b5b:	48 89 df             	mov    %rbx,%rdi
    7b5e:	e8 ad bb ff ff       	call   3710 <_Py_Dealloc@plt>
    7b63:	0f 1f 44 00 00       	nopl   0x0(%rax,%rax,1)
    7b68:	48 8b 1c 24          	mov    (%rsp),%rbx
    7b6c:	48 85 db             	test   %rbx,%rbx
    7b6f:	74 1f                	je     7b90 <__Pyx_AddTraceback+0x4e0>
    7b71:	48 8b 03             	mov    (%rbx),%rax
    7b74:	48 89 44 24 10       	mov    %rax,0x10(%rsp)
    7b79:	48 83 e8 01          	sub    $0x1,%rax
    7b7d:	48 89 03             	mov    %rax,(%rbx)
    7b80:	75 0e                	jne    7b90 <__Pyx_AddTraceback+0x4e0>
    7b82:	48 89 df             	mov    %rbx,%rdi
    7b85:	e8 86 bb ff ff       	call   3710 <_Py_Dealloc@plt>
    7b8a:	66 0f 1f 44 00 00    	nopw   0x0(%rax,%rax,1)
    7b90:	48 8b 5c 24 08       	mov    0x8(%rsp),%rbx
    7b95:	48 85 db             	test   %rbx,%rbx
    7b98:	0f 84 6a fc ff ff    	je     7808 <__Pyx_AddTraceback+0x158>
    7b9e:	48 8b 03             	mov    (%rbx),%rax
    7ba1:	48 89 df             	mov    %rbx,%rdi
    7ba4:	48 89 04 24          	mov    %rax,(%rsp)
    7ba8:	48 83 e8 01          	sub    $0x1,%rax
    7bac:	48 89 03             	mov    %rax,(%rbx)
    7baf:	0f 85 53 fc ff ff    	jne    7808 <__Pyx_AddTraceback+0x158>
    7bb5:	e9 70 fc ff ff       	jmp    782a <__Pyx_AddTraceback+0x17a>
    7bba:	66 0f 1f 44 00 00    	nopw   0x0(%rax,%rax,1)
    7bc0:	44 39 1d dd 7f 00 00 	cmp    %r11d,0x7fdd(%rip)        # fba4 <__pyx_code_cache+0x4>
    7bc7:	0f 85 e3 01 00 00    	jne    7db0 <__Pyx_AddTraceback+0x700>
    7bcd:	45 8d 6b 40          	lea    0x40(%r11),%r13d
    7bd1:	4c 89 d7             	mov    %r10,%rdi
    7bd4:	49 63 f5             	movslq %r13d,%rsi
    7bd7:	48 c1 e6 04          	shl    $0x4,%rsi
    7bdb:	e8 40 bc ff ff       	call   3820 <PyMem_Realloc@plt>
    7be0:	49 89 c2             	mov    %rax,%r10
    7be3:	48 85 c0             	test   %rax,%rax
    7be6:	0f 84 dc fb ff ff    	je     77c8 <__Pyx_AddTraceback+0x118>
    7bec:	49 63 f4             	movslq %r12d,%rsi
    7bef:	44 8b 1d aa 7f 00 00 	mov    0x7faa(%rip),%r11d        # fba0 <__pyx_code_cache>
    7bf6:	48 89 05 ab 7f 00 00 	mov    %rax,0x7fab(%rip)        # fba8 <__pyx_code_cache+0x8>
    7bfd:	48 c1 e6 04          	shl    $0x4,%rsi
    7c01:	44 89 2d 9c 7f 00 00 	mov    %r13d,0x7f9c(%rip)        # fba4 <__pyx_code_cache+0x4>
    7c08:	48 01 c6             	add    %rax,%rsi
    7c0b:	45 39 dc             	cmp    %r11d,%r12d
    7c0e:	0f 8c 3a fe ff ff    	jl     7a4e <__Pyx_AddTraceback+0x39e>
    7c14:	e9 63 fe ff ff       	jmp    7a7c <__Pyx_AddTraceback+0x3cc>
    7c19:	0f 1f 80 00 00 00 00 	nopl   0x0(%rax)
    7c20:	4c 89 cf             	mov    %r9,%rdi
    7c23:	e8 e8 ba ff ff       	call   3710 <_Py_Dealloc@plt>
    7c28:	e9 9e fc ff ff       	jmp    78cb <__Pyx_AddTraceback+0x21b>
    7c2d:	0f 1f 00             	nopl   (%rax)
    7c30:	4c 89 4c 24 08       	mov    %r9,0x8(%rsp)
    7c35:	4c 89 14 24          	mov    %r10,(%rsp)
    7c39:	e8 d2 ba ff ff       	call   3710 <_Py_Dealloc@plt>
    7c3e:	4c 8b 4c 24 08       	mov    0x8(%rsp),%r9
    7c43:	4c 8b 14 24          	mov    (%rsp),%r10
    7c47:	e9 61 fc ff ff       	jmp    78ad <__Pyx_AddTraceback+0x1fd>
    7c4c:	0f 1f 40 00          	nopl   0x0(%rax)
    7c50:	4c 89 d7             	mov    %r10,%rdi
    7c53:	4c 89 0c 24          	mov    %r9,(%rsp)
    7c57:	e8 b4 ba ff ff       	call   3710 <_Py_Dealloc@plt>
    7c5c:	4c 8b 0c 24          	mov    (%rsp),%r9
    7c60:	e9 57 fc ff ff       	jmp    78bc <__Pyx_AddTraceback+0x20c>
    7c65:	0f 1f 00             	nopl   (%rax)
    7c68:	48 8b 3d 81 7d 00 00 	mov    0x7d81(%rip),%rdi        # f9f0 <__pyx_mstate_global_static+0x10>
    7c6f:	48 8b 35 02 7e 00 00 	mov    0x7e02(%rip),%rsi        # fa78 <__pyx_mstate_global_static+0x98>
    7c76:	48 8b 47 08          	mov    0x8(%rdi),%rax
    7c7a:	48 8b 80 90 00 00 00 	mov    0x90(%rax),%rax
    7c81:	48 3b 05 e8 72 00 00 	cmp    0x72e8(%rip),%rax        # ef70 <PyObject_GenericGetAttr@Base>
    7c88:	0f 85 af fb ff ff    	jne    783d <__Pyx_AddTraceback+0x18d>
    7c8e:	b9 01 00 00 00       	mov    $0x1,%ecx
    7c93:	31 d2                	xor    %edx,%edx
    7c95:	e8 46 ba ff ff       	call   36e0 <_PyObject_GenericGetAttrWithDict@plt>
    7c9a:	48 89 c7             	mov    %rax,%rdi
    7c9d:	48 85 c0             	test   %rax,%rax
    7ca0:	0f 84 b3 fb ff ff    	je     7859 <__Pyx_AddTraceback+0x1a9>
    7ca6:	48 89 7c 24 10       	mov    %rdi,0x10(%rsp)
    7cab:	e8 b0 bb ff ff       	call   3860 <PyObject_Not@plt>
    7cb0:	48 8b 7c 24 10       	mov    0x10(%rsp),%rdi
    7cb5:	85 c0                	test   %eax,%eax
    7cb7:	48 8b 07             	mov    (%rdi),%rax
    7cba:	0f 85 ff 00 00 00    	jne    7dbf <__Pyx_AddTraceback+0x70f>
    7cc0:	48 83 e8 01          	sub    $0x1,%rax
    7cc4:	48 89 07             	mov    %rax,(%rdi)
    7cc7:	0f 84 5a 01 00 00    	je     7e27 <__Pyx_AddTraceback+0x777>
    7ccd:	48 8b 05 8c 72 00 00 	mov    0x728c(%rip),%rax        # ef60 <_Py_FalseStruct@Base>
    7cd4:	48 39 05 ad 72 00 00 	cmp    %rax,0x72ad(%rip)        # ef88 <_Py_TrueStruct@Base>
    7cdb:	0f 85 9c fb ff ff    	jne    787d <__Pyx_AddTraceback+0x1cd>
    7ce1:	e9 8d fa ff ff       	jmp    7773 <__Pyx_AddTraceback+0xc3>
    7ce6:	66 2e 0f 1f 84 00 00 	cs nopw 0x0(%rax,%rax,1)
    7ced:	00 00 00 
    7cf0:	4c 89 e7             	mov    %r12,%rdi
    7cf3:	e8 18 ba ff ff       	call   3710 <_Py_Dealloc@plt>
    7cf8:	e9 98 fc ff ff       	jmp    7995 <__Pyx_AddTraceback+0x2e5>
    7cfd:	0f 1f 00             	nopl   (%rax)
    7d00:	e8 0b ba ff ff       	call   3710 <_Py_Dealloc@plt>
    7d05:	e9 c9 fc ff ff       	jmp    79d3 <__Pyx_AddTraceback+0x323>
    7d0a:	66 0f 1f 44 00 00    	nopw   0x0(%rax,%rax,1)
    7d10:	4c 89 e7             	mov    %r12,%rdi
    7d13:	e8 f8 b9 ff ff       	call   3710 <_Py_Dealloc@plt>
    7d18:	e9 d6 fc ff ff       	jmp    79f3 <__Pyx_AddTraceback+0x343>
    7d1d:	0f 1f 00             	nopl   (%rax)
    7d20:	4c 89 ef             	mov    %r13,%rdi
    7d23:	e8 e8 b9 ff ff       	call   3710 <_Py_Dealloc@plt>
    7d28:	e9 b6 fc ff ff       	jmp    79e3 <__Pyx_AddTraceback+0x333>
    7d2d:	0f 1f 00             	nopl   (%rax)
    7d30:	48 8b 35 41 7d 00 00 	mov    0x7d41(%rip),%rsi        # fa78 <__pyx_mstate_global_static+0x98>
    7d37:	48 89 4c 24 10       	mov    %rcx,0x10(%rsp)
    7d3c:	48 8b 56 18          	mov    0x18(%rsi),%rdx
    7d40:	e8 fb bb ff ff       	call   3940 <_PyDict_GetItem_KnownHash@plt>
    7d45:	48 8b 4c 24 10       	mov    0x10(%rsp),%rcx
    7d4a:	48 85 c0             	test   %rax,%rax
    7d4d:	49 89 c1             	mov    %rax,%r9
    7d50:	0f 84 b8 00 00 00    	je     7e0e <__Pyx_AddTraceback+0x75e>
    7d56:	48 8b 01             	mov    (%rcx),%rax
    7d59:	4c 89 0d 08 7c 00 00 	mov    %r9,0x7c08(%rip)        # f968 <__pyx_dict_cached_value.1>
    7d60:	48 8b 40 18          	mov    0x18(%rax),%rax
    7d64:	48 89 05 05 7c 00 00 	mov    %rax,0x7c05(%rip)        # f970 <__pyx_dict_version.2>
    7d6b:	e9 d1 f9 ff ff       	jmp    7741 <__Pyx_AddTraceback+0x91>
    7d70:	bf 00 04 00 00       	mov    $0x400,%edi
    7d75:	e8 66 bd ff ff       	call   3ae0 <PyMem_Malloc@plt>
    7d7a:	48 85 c0             	test   %rax,%rax
    7d7d:	0f 84 45 fa ff ff    	je     77c8 <__Pyx_AddTraceback+0x118>
    7d83:	48 be 01 00 00 00 40 	movabs $0x4000000001,%rsi
    7d8a:	00 00 00 
    7d8d:	48 89 05 14 7e 00 00 	mov    %rax,0x7e14(%rip)        # fba8 <__pyx_code_cache+0x8>
    7d94:	48 89 35 05 7e 00 00 	mov    %rsi,0x7e05(%rip)        # fba0 <__pyx_code_cache>
    7d9b:	44 89 78 08          	mov    %r15d,0x8(%rax)
    7d9f:	48 89 28             	mov    %rbp,(%rax)
    7da2:	48 83 45 00 01       	addq   $0x1,0x0(%rbp)
    7da7:	e9 1c fa ff ff       	jmp    77c8 <__Pyx_AddTraceback+0x118>
    7dac:	0f 1f 40 00          	nopl   0x0(%rax)
    7db0:	49 63 f4             	movslq %r12d,%rsi
    7db3:	48 c1 e6 04          	shl    $0x4,%rsi
    7db7:	4c 01 d6             	add    %r10,%rsi
    7dba:	e9 bd fc ff ff       	jmp    7a7c <__Pyx_AddTraceback+0x3cc>
    7dbf:	48 83 e8 01          	sub    $0x1,%rax
    7dc3:	48 89 07             	mov    %rax,(%rdi)
    7dc6:	0f 85 a7 f9 ff ff    	jne    7773 <__Pyx_AddTraceback+0xc3>
    7dcc:	48 8b 05 8d 71 00 00 	mov    0x718d(%rip),%rax        # ef60 <_Py_FalseStruct@Base>
    7dd3:	49 89 c1             	mov    %rax,%r9
    7dd6:	48 89 44 24 18       	mov    %rax,0x18(%rsp)
    7ddb:	4c 89 4c 24 10       	mov    %r9,0x10(%rsp)
    7de0:	e8 2b b9 ff ff       	call   3710 <_Py_Dealloc@plt>
    7de5:	4c 8b 4c 24 10       	mov    0x10(%rsp),%r9
    7dea:	48 8b 44 24 18       	mov    0x18(%rsp),%rax
    7def:	e9 5d f9 ff ff       	jmp    7751 <__Pyx_AddTraceback+0xa1>
    7df4:	48 8b 3e             	mov    (%rsi),%rdi
    7df7:	48 89 2e             	mov    %rbp,(%rsi)
    7dfa:	48 83 2f 01          	subq   $0x1,(%rdi)
    7dfe:	0f 85 c4 f9 ff ff    	jne    77c8 <__Pyx_AddTraceback+0x118>
    7e04:	e8 07 b9 ff ff       	call   3710 <_Py_Dealloc@plt>
    7e09:	e9 ba f9 ff ff       	jmp    77c8 <__Pyx_AddTraceback+0x118>
    7e0e:	48 89 44 24 18       	mov    %rax,0x18(%rsp)
    7e13:	e8 c8 ba ff ff       	call   38e0 <PyErr_Clear@plt>
    7e18:	4c 8b 4c 24 18       	mov    0x18(%rsp),%r9
    7e1d:	48 8b 4c 24 10       	mov    0x10(%rsp),%rcx
    7e22:	e9 2f ff ff ff       	jmp    7d56 <__Pyx_AddTraceback+0x6a6>
    7e27:	4c 8b 0d 5a 71 00 00 	mov    0x715a(%rip),%r9        # ef88 <_Py_TrueStruct@Base>
    7e2e:	48 8b 05 2b 71 00 00 	mov    0x712b(%rip),%rax        # ef60 <_Py_FalseStruct@Base>
    7e35:	eb 9f                	jmp    7dd6 <__Pyx_AddTraceback+0x726>
    7e37:	e8 94 bc ff ff       	call   3ad0 <PyObject_GetAttr@plt>
    7e3c:	48 89 c7             	mov    %rax,%rdi
    7e3f:	e9 07 fa ff ff       	jmp    784b <__Pyx_AddTraceback+0x19b>
    7e44:	66 66 2e 0f 1f 84 00 	data16 cs nopw 0x0(%rax,%rax,1)
    7e4b:	00 00 00 00 
    7e4f:	90                   	nop

0000000000007e50 <__Pyx_GetBuiltinName>:
    7e50:	41 55                	push   %r13
    7e52:	49 89 fd             	mov    %rdi,%r13
    7e55:	41 54                	push   %r12
    7e57:	48 83 ec 08          	sub    $0x8,%rsp
    7e5b:	48 8b 3d 86 7b 00 00 	mov    0x7b86(%rip),%rdi        # f9e8 <__pyx_mstate_global_static+0x8>
    7e62:	48 8b 47 08          	mov    0x8(%rdi),%rax
    7e66:	48 8b 80 90 00 00 00 	mov    0x90(%rax),%rax
    7e6d:	48 3b 05 fc 70 00 00 	cmp    0x70fc(%rip),%rax        # ef70 <PyObject_GenericGetAttr@Base>
    7e74:	75 2a                	jne    7ea0 <__Pyx_GetBuiltinName+0x50>
    7e76:	b9 01 00 00 00       	mov    $0x1,%ecx
    7e7b:	31 d2                	xor    %edx,%edx
    7e7d:	4c 89 ee             	mov    %r13,%rsi
    7e80:	e8 5b b8 ff ff       	call   36e0 <_PyObject_GenericGetAttrWithDict@plt>
    7e85:	49 89 c4             	mov    %rax,%r12
    7e88:	48 85 c0             	test   %rax,%rax
    7e8b:	74 33                	je     7ec0 <__Pyx_GetBuiltinName+0x70>
    7e8d:	48 83 c4 08          	add    $0x8,%rsp
    7e91:	4c 89 e0             	mov    %r12,%rax
    7e94:	41 5c                	pop    %r12
    7e96:	41 5d                	pop    %r13
    7e98:	c3                   	ret    
    7e99:	0f 1f 80 00 00 00 00 	nopl   0x0(%rax)
    7ea0:	4c 89 ee             	mov    %r13,%rsi
    7ea3:	48 85 c0             	test   %rax,%rax
    7ea6:	74 50                	je     7ef8 <__Pyx_GetBuiltinName+0xa8>
    7ea8:	ff d0                	call   *%rax
    7eaa:	49 89 c4             	mov    %rax,%r12
    7ead:	4d 85 e4             	test   %r12,%r12
    7eb0:	75 db                	jne    7e8d <__Pyx_GetBuiltinName+0x3d>
    7eb2:	e8 49 f5 ff ff       	call   7400 <__Pyx_PyObject_GetAttrStr_ClearAttributeError>
    7eb7:	66 0f 1f 84 00 00 00 	nopw   0x0(%rax,%rax,1)
    7ebe:	00 00 
    7ec0:	e8 6b ba ff ff       	call   3930 <PyErr_Occurred@plt>
    7ec5:	49 89 c4             	mov    %rax,%r12
    7ec8:	48 85 c0             	test   %rax,%rax
    7ecb:	74 0b                	je     7ed8 <__Pyx_GetBuiltinName+0x88>
    7ecd:	45 31 e4             	xor    %r12d,%r12d
    7ed0:	eb bb                	jmp    7e8d <__Pyx_GetBuiltinName+0x3d>
    7ed2:	66 0f 1f 44 00 00    	nopw   0x0(%rax,%rax,1)
    7ed8:	48 8b 05 f1 70 00 00 	mov    0x70f1(%rip),%rax        # efd0 <PyExc_NameError@Base>
    7edf:	4c 89 ea             	mov    %r13,%rdx
    7ee2:	48 8d 35 44 48 00 00 	lea    0x4844(%rip),%rsi        # c72d <_fini+0x9b5>
    7ee9:	48 8b 38             	mov    (%rax),%rdi
    7eec:	31 c0                	xor    %eax,%eax
    7eee:	e8 9d bb ff ff       	call   3a90 <PyErr_Format@plt>
    7ef3:	eb 98                	jmp    7e8d <__Pyx_GetBuiltinName+0x3d>
    7ef5:	0f 1f 00             	nopl   (%rax)
    7ef8:	e8 d3 bb ff ff       	call   3ad0 <PyObject_GetAttr@plt>
    7efd:	49 89 c4             	mov    %rax,%r12
    7f00:	eb ab                	jmp    7ead <__Pyx_GetBuiltinName+0x5d>
    7f02:	66 66 2e 0f 1f 84 00 	data16 cs nopw 0x0(%rax,%rax,1)
    7f09:	00 00 00 00 
    7f0d:	0f 1f 00             	nopl   (%rax)

0000000000007f10 <__Pyx__GetModuleGlobalName>:
    7f10:	41 55                	push   %r13
    7f12:	49 89 f5             	mov    %rsi,%r13
    7f15:	48 89 fe             	mov    %rdi,%rsi
    7f18:	41 54                	push   %r12
    7f1a:	55                   	push   %rbp
    7f1b:	48 89 fd             	mov    %rdi,%rbp
    7f1e:	53                   	push   %rbx
    7f1f:	48 89 d3             	mov    %rdx,%rbx
    7f22:	48 83 ec 08          	sub    $0x8,%rsp
    7f26:	48 8b 57 18          	mov    0x18(%rdi),%rdx
    7f2a:	48 8b 3d af 7a 00 00 	mov    0x7aaf(%rip),%rdi        # f9e0 <__pyx_mstate_global_static>
    7f31:	e8 0a ba ff ff       	call   3940 <_PyDict_GetItem_KnownHash@plt>
    7f36:	49 89 c4             	mov    %rax,%r12
    7f39:	48 8b 05 a0 7a 00 00 	mov    0x7aa0(%rip),%rax        # f9e0 <__pyx_mstate_global_static>
    7f40:	48 8b 40 18          	mov    0x18(%rax),%rax
    7f44:	49 89 45 00          	mov    %rax,0x0(%r13)
    7f48:	4c 89 23             	mov    %r12,(%rbx)
    7f4b:	4d 85 e4             	test   %r12,%r12
    7f4e:	74 18                	je     7f68 <__Pyx__GetModuleGlobalName+0x58>
    7f50:	49 83 04 24 01       	addq   $0x1,(%r12)
    7f55:	48 83 c4 08          	add    $0x8,%rsp
    7f59:	4c 89 e0             	mov    %r12,%rax
    7f5c:	5b                   	pop    %rbx
    7f5d:	5d                   	pop    %rbp
    7f5e:	41 5c                	pop    %r12
    7f60:	41 5d                	pop    %r13
    7f62:	c3                   	ret    
    7f63:	0f 1f 44 00 00       	nopl   0x0(%rax,%rax,1)
    7f68:	e8 c3 b9 ff ff       	call   3930 <PyErr_Occurred@plt>
    7f6d:	48 85 c0             	test   %rax,%rax
    7f70:	75 e3                	jne    7f55 <__Pyx__GetModuleGlobalName+0x45>
    7f72:	48 83 c4 08          	add    $0x8,%rsp
    7f76:	48 89 ef             	mov    %rbp,%rdi
    7f79:	5b                   	pop    %rbx
    7f7a:	5d                   	pop    %rbp
    7f7b:	41 5c                	pop    %r12
    7f7d:	41 5d                	pop    %r13
    7f7f:	e9 cc fe ff ff       	jmp    7e50 <__Pyx_GetBuiltinName>
    7f84:	66 66 2e 0f 1f 84 00 	data16 cs nopw 0x0(%rax,%rax,1)
    7f8b:	00 00 00 00 
    7f8f:	90                   	nop

0000000000007f90 <__pyx_pw_8funnybug_3main>:
    7f90:	f3 0f 1e fa          	endbr64 
    7f94:	41 57                	push   %r15
    7f96:	41 56                	push   %r14
    7f98:	41 55                	push   %r13
    7f9a:	41 54                	push   %r12
    7f9c:	55                   	push   %rbp
    7f9d:	53                   	push   %rbx
    7f9e:	48 83 ec 28          	sub    $0x28,%rsp
    7fa2:	48 8b 0d 07 7a 00 00 	mov    0x7a07(%rip),%rcx        # f9b0 <__pyx_dict_version.10>
    7fa9:	64 48 8b 04 25 28 00 	mov    %fs:0x28,%rax
    7fb0:	00 00 
    7fb2:	48 89 44 24 18       	mov    %rax,0x18(%rsp)
    7fb7:	48 8b 05 22 7a 00 00 	mov    0x7a22(%rip),%rax        # f9e0 <__pyx_mstate_global_static>
    7fbe:	48 39 48 18          	cmp    %rcx,0x18(%rax)
    7fc2:	0f 85 30 04 00 00    	jne    83f8 <__pyx_pw_8funnybug_3main+0x468>
    7fc8:	4c 8b 25 d9 79 00 00 	mov    0x79d9(%rip),%r12        # f9a8 <__pyx_dict_cached_value.9>
    7fcf:	4d 85 e4             	test   %r12,%r12
    7fd2:	0f 84 c8 04 00 00    	je     84a0 <__pyx_pw_8funnybug_3main+0x510>
    7fd8:	49 83 04 24 01       	addq   $0x1,(%r12)
    7fdd:	48 8b 15 bc 79 00 00 	mov    0x79bc(%rip),%rdx        # f9a0 <__pyx_dict_version.8>
    7fe4:	48 39 50 18          	cmp    %rdx,0x18(%rax)
    7fe8:	0f 85 52 04 00 00    	jne    8440 <__pyx_pw_8funnybug_3main+0x4b0>
    7fee:	4c 8b 35 a3 79 00 00 	mov    0x79a3(%rip),%r14        # f998 <__pyx_dict_cached_value.7>
    7ff5:	4d 85 f6             	test   %r14,%r14
    7ff8:	0f 84 52 05 00 00    	je     8550 <__pyx_pw_8funnybug_3main+0x5c0>
    7ffe:	49 83 06 01          	addq   $0x1,(%r14)
    8002:	48 8b 1d 27 6f 00 00 	mov    0x6f27(%rip),%rbx        # ef30 <PyMethod_Type@Base>
    8009:	49 39 5c 24 08       	cmp    %rbx,0x8(%r12)
    800e:	0f 84 54 05 00 00    	je     8568 <__pyx_pw_8funnybug_3main+0x5d8>
    8014:	48 8d 74 24 08       	lea    0x8(%rsp),%rsi
    8019:	ba 02 00 00 00       	mov    $0x2,%edx
    801e:	4c 89 e7             	mov    %r12,%rdi
    8021:	4c 89 e5             	mov    %r12,%rbp
    8024:	48 8b 05 5d 6f 00 00 	mov    0x6f5d(%rip),%rax        # ef88 <_Py_TrueStruct@Base>
    802b:	48 c7 04 24 00 00 00 	movq   $0x0,(%rsp)
    8032:	00 
    8033:	4c 89 74 24 08       	mov    %r14,0x8(%rsp)
    8038:	48 89 44 24 10       	mov    %rax,0x10(%rsp)
    803d:	e8 1e e7 ff ff       	call   6760 <__Pyx_PyObject_FastCallDict.constprop.0>
    8042:	49 89 c5             	mov    %rax,%r13
    8045:	49 83 2e 01          	subq   $0x1,(%r14)
    8049:	0f 84 e1 02 00 00    	je     8330 <__pyx_pw_8funnybug_3main+0x3a0>
    804f:	4d 85 ed             	test   %r13,%r13
    8052:	0f 84 d8 04 00 00    	je     8530 <__pyx_pw_8funnybug_3main+0x5a0>
    8058:	48 83 6d 00 01       	subq   $0x1,0x0(%rbp)
    805d:	0f 84 1d 02 00 00    	je     8280 <__pyx_pw_8funnybug_3main+0x2f0>
    8063:	48 8b 05 76 79 00 00 	mov    0x7976(%rip),%rax        # f9e0 <__pyx_mstate_global_static>
    806a:	48 8b 0d 1f 79 00 00 	mov    0x791f(%rip),%rcx        # f990 <__pyx_dict_version.6>
    8071:	48 39 48 18          	cmp    %rcx,0x18(%rax)
    8075:	0f 85 55 05 00 00    	jne    85d0 <__pyx_pw_8funnybug_3main+0x640>
    807b:	4c 8b 25 06 79 00 00 	mov    0x7906(%rip),%r12        # f988 <__pyx_dict_cached_value.5>
    8082:	4d 85 e4             	test   %r12,%r12
    8085:	0f 84 4d 06 00 00    	je     86d8 <__pyx_pw_8funnybug_3main+0x748>
    808b:	49 83 04 24 01       	addq   $0x1,(%r12)
    8090:	48 8b 0d e9 78 00 00 	mov    0x78e9(%rip),%rcx        # f980 <__pyx_dict_version.4>
    8097:	48 39 48 18          	cmp    %rcx,0x18(%rax)
    809b:	0f 85 af 05 00 00    	jne    8650 <__pyx_pw_8funnybug_3main+0x6c0>
    80a1:	4c 8b 3d d0 78 00 00 	mov    0x78d0(%rip),%r15        # f978 <__pyx_dict_cached_value.3>
    80a8:	4d 85 ff             	test   %r15,%r15
    80ab:	0f 84 4f 06 00 00    	je     8700 <__pyx_pw_8funnybug_3main+0x770>
    80b1:	49 83 07 01          	addq   $0x1,(%r15)
    80b5:	49 39 5c 24 08       	cmp    %rbx,0x8(%r12)
    80ba:	0f 84 58 06 00 00    	je     8718 <__pyx_pw_8funnybug_3main+0x788>
    80c0:	48 8d 74 24 08       	lea    0x8(%rsp),%rsi
    80c5:	ba 02 00 00 00       	mov    $0x2,%edx
    80ca:	4c 89 e7             	mov    %r12,%rdi
    80cd:	4c 89 e5             	mov    %r12,%rbp
    80d0:	48 8b 05 89 6e 00 00 	mov    0x6e89(%rip),%rax        # ef60 <_Py_FalseStruct@Base>
    80d7:	48 c7 04 24 00 00 00 	movq   $0x0,(%rsp)
    80de:	00 
    80df:	4c 89 7c 24 08       	mov    %r15,0x8(%rsp)
    80e4:	48 89 44 24 10       	mov    %rax,0x10(%rsp)
    80e9:	e8 72 e6 ff ff       	call   6760 <__Pyx_PyObject_FastCallDict.constprop.0>
    80ee:	49 89 c6             	mov    %rax,%r14
    80f1:	49 83 2f 01          	subq   $0x1,(%r15)
    80f5:	0f 84 45 02 00 00    	je     8340 <__pyx_pw_8funnybug_3main+0x3b0>
    80fb:	45 31 e4             	xor    %r12d,%r12d
    80fe:	bb 2e 00 00 00       	mov    $0x2e,%ebx
    8103:	41 bf 7f 0d 00 00    	mov    $0xd7f,%r15d
    8109:	4d 85 f6             	test   %r14,%r14
    810c:	0f 84 b7 01 00 00    	je     82c9 <__pyx_pw_8funnybug_3main+0x339>
    8112:	48 83 6d 00 01       	subq   $0x1,0x0(%rbp)
    8117:	0f 84 33 02 00 00    	je     8350 <__pyx_pw_8funnybug_3main+0x3c0>
    811d:	bf 02 00 00 00       	mov    $0x2,%edi
    8122:	e8 d9 b7 ff ff       	call   3900 <PyTuple_New@plt>
    8127:	49 89 c4             	mov    %rax,%r12
    812a:	48 85 c0             	test   %rax,%rax
    812d:	0f 84 4d 02 00 00    	je     8380 <__pyx_pw_8funnybug_3main+0x3f0>
    8133:	49 83 45 00 01       	addq   $0x1,0x0(%r13)
    8138:	4c 8b 3d 61 6e 00 00 	mov    0x6e61(%rip),%r15        # efa0 <PyLong_Type@Base>
    813f:	4c 89 68 18          	mov    %r13,0x18(%rax)
    8143:	48 8b 05 1e 7a 00 00 	mov    0x7a1e(%rip),%rax        # fb68 <__pyx_mstate_global_static+0x188>
    814a:	48 83 00 01          	addq   $0x1,(%rax)
    814e:	49 89 44 24 20       	mov    %rax,0x20(%r12)
    8153:	49 8b 47 08          	mov    0x8(%r15),%rax
    8157:	48 8b 98 80 00 00 00 	mov    0x80(%rax),%rbx
    815e:	48 85 db             	test   %rbx,%rbx
    8161:	0f 84 61 03 00 00    	je     84c8 <__pyx_pw_8funnybug_3main+0x538>
    8167:	48 8d 3d 82 41 00 00 	lea    0x4182(%rip),%rdi        # c2f0 <_fini+0x578>
    816e:	e8 ed b4 ff ff       	call   3660 <Py_EnterRecursiveCall@plt>
    8173:	85 c0                	test   %eax,%eax
    8175:	0f 85 6d 03 00 00    	jne    84e8 <__pyx_pw_8funnybug_3main+0x558>
    817b:	31 d2                	xor    %edx,%edx
    817d:	4c 89 e6             	mov    %r12,%rsi
    8180:	4c 89 ff             	mov    %r15,%rdi
    8183:	ff d3                	call   *%rbx
    8185:	48 89 c5             	mov    %rax,%rbp
    8188:	e8 c3 b7 ff ff       	call   3950 <Py_LeaveRecursiveCall@plt>
    818d:	48 85 ed             	test   %rbp,%rbp
    8190:	0f 84 3a 06 00 00    	je     87d0 <__pyx_pw_8funnybug_3main+0x840>
    8196:	49 83 2c 24 01       	subq   $0x1,(%r12)
    819b:	0f 84 27 02 00 00    	je     83c8 <__pyx_pw_8funnybug_3main+0x438>
    81a1:	bf 02 00 00 00       	mov    $0x2,%edi
    81a6:	e8 55 b7 ff ff       	call   3900 <PyTuple_New@plt>
    81ab:	49 89 c4             	mov    %rax,%r12
    81ae:	48 85 c0             	test   %rax,%rax
    81b1:	0f 84 01 06 00 00    	je     87b8 <__pyx_pw_8funnybug_3main+0x828>
    81b7:	49 83 06 01          	addq   $0x1,(%r14)
    81bb:	4c 89 70 18          	mov    %r14,0x18(%rax)
    81bf:	48 8b 05 a2 79 00 00 	mov    0x79a2(%rip),%rax        # fb68 <__pyx_mstate_global_static+0x188>
    81c6:	48 83 00 01          	addq   $0x1,(%rax)
    81ca:	49 89 44 24 20       	mov    %rax,0x20(%r12)
    81cf:	49 8b 47 08          	mov    0x8(%r15),%rax
    81d3:	48 8b 98 80 00 00 00 	mov    0x80(%rax),%rbx
    81da:	48 85 db             	test   %rbx,%rbx
    81dd:	0f 84 4d 04 00 00    	je     8630 <__pyx_pw_8funnybug_3main+0x6a0>
    81e3:	48 8d 3d 06 41 00 00 	lea    0x4106(%rip),%rdi        # c2f0 <_fini+0x578>
    81ea:	e8 71 b4 ff ff       	call   3660 <Py_EnterRecursiveCall@plt>
    81ef:	85 c0                	test   %eax,%eax
    81f1:	0f 85 b9 00 00 00    	jne    82b0 <__pyx_pw_8funnybug_3main+0x320>
    81f7:	31 d2                	xor    %edx,%edx
    81f9:	4c 89 e6             	mov    %r12,%rsi
    81fc:	4c 89 ff             	mov    %r15,%rdi
    81ff:	ff d3                	call   *%rbx
    8201:	48 89 c3             	mov    %rax,%rbx
    8204:	e8 47 b7 ff ff       	call   3950 <Py_LeaveRecursiveCall@plt>
    8209:	48 85 db             	test   %rbx,%rbx
    820c:	0f 84 7e 00 00 00    	je     8290 <__pyx_pw_8funnybug_3main+0x300>
    8212:	49 83 2c 24 01       	subq   $0x1,(%r12)
    8217:	0f 84 cb 01 00 00    	je     83e8 <__pyx_pw_8funnybug_3main+0x458>
    821d:	bf 02 00 00 00       	mov    $0x2,%edi
    8222:	e8 d9 b6 ff ff       	call   3900 <PyTuple_New@plt>
    8227:	49 89 c4             	mov    %rax,%r12
    822a:	48 85 c0             	test   %rax,%rax
    822d:	0f 84 cd 05 00 00    	je     8800 <__pyx_pw_8funnybug_3main+0x870>
    8233:	48 89 68 18          	mov    %rbp,0x18(%rax)
    8237:	48 89 58 20          	mov    %rbx,0x20(%rax)
    823b:	49 83 6d 00 01       	subq   $0x1,0x0(%r13)
    8240:	0f 84 6d 01 00 00    	je     83b3 <__pyx_pw_8funnybug_3main+0x423>
    8246:	49 83 2e 01          	subq   $0x1,(%r14)
    824a:	0f 84 ce 00 00 00    	je     831e <__pyx_pw_8funnybug_3main+0x38e>
    8250:	48 8b 44 24 18       	mov    0x18(%rsp),%rax
    8255:	64 48 2b 04 25 28 00 	sub    %fs:0x28,%rax
    825c:	00 00 
    825e:	0f 85 ee 05 00 00    	jne    8852 <__pyx_pw_8funnybug_3main+0x8c2>
    8264:	48 83 c4 28          	add    $0x28,%rsp
    8268:	4c 89 e0             	mov    %r12,%rax
    826b:	5b                   	pop    %rbx
    826c:	5d                   	pop    %rbp
    826d:	41 5c                	pop    %r12
    826f:	41 5d                	pop    %r13
    8271:	41 5e                	pop    %r14
    8273:	41 5f                	pop    %r15
    8275:	c3                   	ret    
    8276:	66 2e 0f 1f 84 00 00 	cs nopw 0x0(%rax,%rax,1)
    827d:	00 00 00 
    8280:	48 89 ef             	mov    %rbp,%rdi
    8283:	e8 88 b4 ff ff       	call   3710 <_Py_Dealloc@plt>
    8288:	e9 d6 fd ff ff       	jmp    8063 <__pyx_pw_8funnybug_3main+0xd3>
    828d:	0f 1f 00             	nopl   (%rax)
    8290:	e8 9b b6 ff ff       	call   3930 <PyErr_Occurred@plt>
    8295:	48 85 c0             	test   %rax,%rax
    8298:	75 16                	jne    82b0 <__pyx_pw_8funnybug_3main+0x320>
    829a:	48 8b 05 87 6c 00 00 	mov    0x6c87(%rip),%rax        # ef28 <PyExc_SystemError@Base>
    82a1:	48 8d 35 68 40 00 00 	lea    0x4068(%rip),%rsi        # c310 <_fini+0x598>
    82a8:	48 8b 38             	mov    (%rax),%rdi
    82ab:	e8 f0 b4 ff ff       	call   37a0 <PyErr_SetString@plt>
    82b0:	49 83 2c 24 01       	subq   $0x1,(%r12)
    82b5:	0f 84 a5 00 00 00    	je     8360 <__pyx_pw_8funnybug_3main+0x3d0>
    82bb:	bb 30 00 00 00       	mov    $0x30,%ebx
    82c0:	41 bf 9f 0d 00 00    	mov    $0xd9f,%r15d
    82c6:	45 31 e4             	xor    %r12d,%r12d
    82c9:	48 83 6d 00 01       	subq   $0x1,0x0(%rbp)
    82ce:	0f 84 b4 04 00 00    	je     8788 <__pyx_pw_8funnybug_3main+0x7f8>
    82d4:	4d 85 e4             	test   %r12,%r12
    82d7:	74 0b                	je     82e4 <__pyx_pw_8funnybug_3main+0x354>
    82d9:	49 83 2c 24 01       	subq   $0x1,(%r12)
    82de:	0f 84 f4 00 00 00    	je     83d8 <__pyx_pw_8funnybug_3main+0x448>
    82e4:	48 8d 0d 9e 44 00 00 	lea    0x449e(%rip),%rcx        # c789 <_fini+0xa11>
    82eb:	89 da                	mov    %ebx,%edx
    82ed:	44 89 fe             	mov    %r15d,%esi
    82f0:	48 8d 3d b8 44 00 00 	lea    0x44b8(%rip),%rdi        # c7af <_fini+0xa37>
    82f7:	e8 b4 f3 ff ff       	call   76b0 <__Pyx_AddTraceback>
    82fc:	4d 85 ed             	test   %r13,%r13
    82ff:	0f 85 18 02 00 00    	jne    851d <__pyx_pw_8funnybug_3main+0x58d>
    8305:	4d 89 ec             	mov    %r13,%r12
    8308:	4d 85 f6             	test   %r14,%r14
    830b:	0f 84 3f ff ff ff    	je     8250 <__pyx_pw_8funnybug_3main+0x2c0>
    8311:	49 83 2e 01          	subq   $0x1,(%r14)
    8315:	4d 89 ec             	mov    %r13,%r12
    8318:	0f 85 32 ff ff ff    	jne    8250 <__pyx_pw_8funnybug_3main+0x2c0>
    831e:	4c 89 f7             	mov    %r14,%rdi
    8321:	e8 ea b3 ff ff       	call   3710 <_Py_Dealloc@plt>
    8326:	e9 25 ff ff ff       	jmp    8250 <__pyx_pw_8funnybug_3main+0x2c0>
    832b:	0f 1f 44 00 00       	nopl   0x0(%rax,%rax,1)
    8330:	4c 89 f7             	mov    %r14,%rdi
    8333:	e8 d8 b3 ff ff       	call   3710 <_Py_Dealloc@plt>
    8338:	e9 12 fd ff ff       	jmp    804f <__pyx_pw_8funnybug_3main+0xbf>
    833d:	0f 1f 00             	nopl   (%rax)
    8340:	4c 89 ff             	mov    %r15,%rdi
    8343:	e8 c8 b3 ff ff       	call   3710 <_Py_Dealloc@plt>
    8348:	e9 ae fd ff ff       	jmp    80fb <__pyx_pw_8funnybug_3main+0x16b>
    834d:	0f 1f 00             	nopl   (%rax)
    8350:	48 89 ef             	mov    %rbp,%rdi
    8353:	e8 b8 b3 ff ff       	call   3710 <_Py_Dealloc@plt>
    8358:	e9 c0 fd ff ff       	jmp    811d <__pyx_pw_8funnybug_3main+0x18d>
    835d:	0f 1f 00             	nopl   (%rax)
    8360:	4c 89 e7             	mov    %r12,%rdi
    8363:	bb 30 00 00 00       	mov    $0x30,%ebx
    8368:	41 bf 9f 0d 00 00    	mov    $0xd9f,%r15d
    836e:	45 31 e4             	xor    %r12d,%r12d
    8371:	e8 9a b3 ff ff       	call   3710 <_Py_Dealloc@plt>
    8376:	e9 4e ff ff ff       	jmp    82c9 <__pyx_pw_8funnybug_3main+0x339>
    837b:	0f 1f 44 00 00       	nopl   0x0(%rax,%rax,1)
    8380:	be 8c 0d 00 00       	mov    $0xd8c,%esi
    8385:	48 8d 0d fd 43 00 00 	lea    0x43fd(%rip),%rcx        # c789 <_fini+0xa11>
    838c:	ba 30 00 00 00       	mov    $0x30,%edx
    8391:	48 8d 3d 17 44 00 00 	lea    0x4417(%rip),%rdi        # c7af <_fini+0xa37>
    8398:	e8 13 f3 ff ff       	call   76b0 <__Pyx_AddTraceback>
    839d:	49 83 6d 00 01       	subq   $0x1,0x0(%r13)
    83a2:	74 0c                	je     83b0 <__pyx_pw_8funnybug_3main+0x420>
    83a4:	45 31 ed             	xor    %r13d,%r13d
    83a7:	e9 65 ff ff ff       	jmp    8311 <__pyx_pw_8funnybug_3main+0x381>
    83ac:	0f 1f 40 00          	nopl   0x0(%rax)
    83b0:	45 31 e4             	xor    %r12d,%r12d
    83b3:	4c 89 ef             	mov    %r13,%rdi
    83b6:	4d 89 e5             	mov    %r12,%r13
    83b9:	e8 52 b3 ff ff       	call   3710 <_Py_Dealloc@plt>
    83be:	e9 42 ff ff ff       	jmp    8305 <__pyx_pw_8funnybug_3main+0x375>
    83c3:	0f 1f 44 00 00       	nopl   0x0(%rax,%rax,1)
    83c8:	4c 89 e7             	mov    %r12,%rdi
    83cb:	e8 40 b3 ff ff       	call   3710 <_Py_Dealloc@plt>
    83d0:	e9 cc fd ff ff       	jmp    81a1 <__pyx_pw_8funnybug_3main+0x211>
    83d5:	0f 1f 00             	nopl   (%rax)
    83d8:	4c 89 e7             	mov    %r12,%rdi
    83db:	e8 30 b3 ff ff       	call   3710 <_Py_Dealloc@plt>
    83e0:	e9 ff fe ff ff       	jmp    82e4 <__pyx_pw_8funnybug_3main+0x354>
    83e5:	0f 1f 00             	nopl   (%rax)
    83e8:	4c 89 e7             	mov    %r12,%rdi
    83eb:	e8 20 b3 ff ff       	call   3710 <_Py_Dealloc@plt>
    83f0:	e9 28 fe ff ff       	jmp    821d <__pyx_pw_8funnybug_3main+0x28d>
    83f5:	0f 1f 00             	nopl   (%rax)
    83f8:	48 8b 3d 39 77 00 00 	mov    0x7739(%rip),%rdi        # fb38 <__pyx_mstate_global_static+0x158>
    83ff:	48 8d 15 a2 75 00 00 	lea    0x75a2(%rip),%rdx        # f9a8 <__pyx_dict_cached_value.9>
    8406:	48 8d 35 a3 75 00 00 	lea    0x75a3(%rip),%rsi        # f9b0 <__pyx_dict_version.10>
    840d:	e8 fe fa ff ff       	call   7f10 <__Pyx__GetModuleGlobalName>
    8412:	49 89 c4             	mov    %rax,%r12
    8415:	4d 85 e4             	test   %r12,%r12
    8418:	0f 85 9a 00 00 00    	jne    84b8 <__pyx_pw_8funnybug_3main+0x528>
    841e:	48 8d 0d 64 43 00 00 	lea    0x4364(%rip),%rcx        # c789 <_fini+0xa11>
    8425:	ba 2d 00 00 00       	mov    $0x2d,%edx
    842a:	be 43 0d 00 00       	mov    $0xd43,%esi
    842f:	48 8d 3d 79 43 00 00 	lea    0x4379(%rip),%rdi        # c7af <_fini+0xa37>
    8436:	e8 75 f2 ff ff       	call   76b0 <__Pyx_AddTraceback>
    843b:	e9 10 fe ff ff       	jmp    8250 <__pyx_pw_8funnybug_3main+0x2c0>
    8440:	48 8b 3d 99 76 00 00 	mov    0x7699(%rip),%rdi        # fae0 <__pyx_mstate_global_static+0x100>
    8447:	48 8d 15 4a 75 00 00 	lea    0x754a(%rip),%rdx        # f998 <__pyx_dict_cached_value.7>
    844e:	48 8d 35 4b 75 00 00 	lea    0x754b(%rip),%rsi        # f9a0 <__pyx_dict_version.8>
    8455:	e8 b6 fa ff ff       	call   7f10 <__Pyx__GetModuleGlobalName>
    845a:	49 89 c6             	mov    %rax,%r14
    845d:	4d 85 f6             	test   %r14,%r14
    8460:	0f 85 9c fb ff ff    	jne    8002 <__pyx_pw_8funnybug_3main+0x72>
    8466:	49 83 2c 24 01       	subq   $0x1,(%r12)
    846b:	0f 84 a7 03 00 00    	je     8818 <__pyx_pw_8funnybug_3main+0x888>
    8471:	48 8d 0d 11 43 00 00 	lea    0x4311(%rip),%rcx        # c789 <_fini+0xa11>
    8478:	ba 2d 00 00 00       	mov    $0x2d,%edx
    847d:	be 45 0d 00 00       	mov    $0xd45,%esi
    8482:	48 8d 3d 26 43 00 00 	lea    0x4326(%rip),%rdi        # c7af <_fini+0xa37>
    8489:	e8 22 f2 ff ff       	call   76b0 <__Pyx_AddTraceback>
    848e:	45 31 e4             	xor    %r12d,%r12d
    8491:	e9 ba fd ff ff       	jmp    8250 <__pyx_pw_8funnybug_3main+0x2c0>
    8496:	66 2e 0f 1f 84 00 00 	cs nopw 0x0(%rax,%rax,1)
    849d:	00 00 00 
    84a0:	48 8b 3d 91 76 00 00 	mov    0x7691(%rip),%rdi        # fb38 <__pyx_mstate_global_static+0x158>
    84a7:	e8 a4 f9 ff ff       	call   7e50 <__Pyx_GetBuiltinName>
    84ac:	49 89 c4             	mov    %rax,%r12
    84af:	e9 61 ff ff ff       	jmp    8415 <__pyx_pw_8funnybug_3main+0x485>
    84b4:	0f 1f 40 00          	nopl   0x0(%rax)
    84b8:	48 8b 05 21 75 00 00 	mov    0x7521(%rip),%rax        # f9e0 <__pyx_mstate_global_static>
    84bf:	e9 19 fb ff ff       	jmp    7fdd <__pyx_pw_8funnybug_3main+0x4d>
    84c4:	0f 1f 40 00          	nopl   0x0(%rax)
    84c8:	31 d2                	xor    %edx,%edx
    84ca:	4c 89 e6             	mov    %r12,%rsi
    84cd:	4c 89 ff             	mov    %r15,%rdi
    84d0:	e8 9b b5 ff ff       	call   3a70 <PyObject_Call@plt>
    84d5:	48 89 c5             	mov    %rax,%rbp
    84d8:	48 85 c0             	test   %rax,%rax
    84db:	0f 85 b5 fc ff ff    	jne    8196 <__pyx_pw_8funnybug_3main+0x206>
    84e1:	0f 1f 80 00 00 00 00 	nopl   0x0(%rax)
    84e8:	49 83 2c 24 01       	subq   $0x1,(%r12)
    84ed:	be 94 0d 00 00       	mov    $0xd94,%esi
    84f2:	0f 85 8d fe ff ff    	jne    8385 <__pyx_pw_8funnybug_3main+0x3f5>
    84f8:	4c 89 e7             	mov    %r12,%rdi
    84fb:	e8 10 b2 ff ff       	call   3710 <_Py_Dealloc@plt>
    8500:	ba 30 00 00 00       	mov    $0x30,%edx
    8505:	48 8d 0d 7d 42 00 00 	lea    0x427d(%rip),%rcx        # c789 <_fini+0xa11>
    850c:	be 94 0d 00 00       	mov    $0xd94,%esi
    8511:	48 8d 3d 97 42 00 00 	lea    0x4297(%rip),%rdi        # c7af <_fini+0xa37>
    8518:	e8 93 f1 ff ff       	call   76b0 <__Pyx_AddTraceback>
    851d:	49 83 6d 00 01       	subq   $0x1,0x0(%r13)
    8522:	0f 84 88 fe ff ff    	je     83b0 <__pyx_pw_8funnybug_3main+0x420>
    8528:	45 31 ed             	xor    %r13d,%r13d
    852b:	e9 d5 fd ff ff       	jmp    8305 <__pyx_pw_8funnybug_3main+0x375>
    8530:	45 31 f6             	xor    %r14d,%r14d
    8533:	45 31 e4             	xor    %r12d,%r12d
    8536:	bb 2d 00 00 00       	mov    $0x2d,%ebx
    853b:	41 bf 5a 0d 00 00    	mov    $0xd5a,%r15d
    8541:	e9 83 fd ff ff       	jmp    82c9 <__pyx_pw_8funnybug_3main+0x339>
    8546:	66 2e 0f 1f 84 00 00 	cs nopw 0x0(%rax,%rax,1)
    854d:	00 00 00 
    8550:	48 8b 3d 89 75 00 00 	mov    0x7589(%rip),%rdi        # fae0 <__pyx_mstate_global_static+0x100>
    8557:	e8 f4 f8 ff ff       	call   7e50 <__Pyx_GetBuiltinName>
    855c:	49 89 c6             	mov    %rax,%r14
    855f:	e9 f9 fe ff ff       	jmp    845d <__pyx_pw_8funnybug_3main+0x4cd>
    8564:	0f 1f 40 00          	nopl   0x0(%rax)
    8568:	4d 8b 7c 24 18       	mov    0x18(%r12),%r15
    856d:	4d 85 ff             	test   %r15,%r15
    8570:	0f 84 9e fa ff ff    	je     8014 <__pyx_pw_8funnybug_3main+0x84>
    8576:	49 8b 6c 24 10       	mov    0x10(%r12),%rbp
    857b:	49 83 07 01          	addq   $0x1,(%r15)
    857f:	48 83 45 00 01       	addq   $0x1,0x0(%rbp)
    8584:	49 83 2c 24 01       	subq   $0x1,(%r12)
    8589:	0f 84 09 02 00 00    	je     8798 <__pyx_pw_8funnybug_3main+0x808>
    858f:	48 89 e6             	mov    %rsp,%rsi
    8592:	ba 03 00 00 00       	mov    $0x3,%edx
    8597:	48 89 ef             	mov    %rbp,%rdi
    859a:	4c 89 3c 24          	mov    %r15,(%rsp)
    859e:	48 8b 05 e3 69 00 00 	mov    0x69e3(%rip),%rax        # ef88 <_Py_TrueStruct@Base>
    85a5:	4c 89 74 24 08       	mov    %r14,0x8(%rsp)
    85aa:	48 89 44 24 10       	mov    %rax,0x10(%rsp)
    85af:	e8 ac e1 ff ff       	call   6760 <__Pyx_PyObject_FastCallDict.constprop.0>
    85b4:	49 83 2f 01          	subq   $0x1,(%r15)
    85b8:	49 89 c5             	mov    %rax,%r13
    85bb:	0f 85 84 fa ff ff    	jne    8045 <__pyx_pw_8funnybug_3main+0xb5>
    85c1:	4c 89 ff             	mov    %r15,%rdi
    85c4:	e8 47 b1 ff ff       	call   3710 <_Py_Dealloc@plt>
    85c9:	e9 77 fa ff ff       	jmp    8045 <__pyx_pw_8funnybug_3main+0xb5>
    85ce:	66 90                	xchg   %ax,%ax
    85d0:	48 8b 3d 61 75 00 00 	mov    0x7561(%rip),%rdi        # fb38 <__pyx_mstate_global_static+0x158>
    85d7:	48 8d 15 aa 73 00 00 	lea    0x73aa(%rip),%rdx        # f988 <__pyx_dict_cached_value.5>
    85de:	48 8d 35 ab 73 00 00 	lea    0x73ab(%rip),%rsi        # f990 <__pyx_dict_version.6>
    85e5:	e8 26 f9 ff ff       	call   7f10 <__Pyx__GetModuleGlobalName>
    85ea:	49 89 c4             	mov    %rax,%r12
    85ed:	4d 85 e4             	test   %r12,%r12
    85f0:	0f 85 fa 00 00 00    	jne    86f0 <__pyx_pw_8funnybug_3main+0x760>
    85f6:	48 8d 0d 8c 41 00 00 	lea    0x418c(%rip),%rcx        # c789 <_fini+0xa11>
    85fd:	ba 2e 00 00 00       	mov    $0x2e,%edx
    8602:	be 68 0d 00 00       	mov    $0xd68,%esi
    8607:	48 8d 3d a1 41 00 00 	lea    0x41a1(%rip),%rdi        # c7af <_fini+0xa37>
    860e:	e8 9d f0 ff ff       	call   76b0 <__Pyx_AddTraceback>
    8613:	49 83 6d 00 01       	subq   $0x1,0x0(%r13)
    8618:	0f 85 32 fc ff ff    	jne    8250 <__pyx_pw_8funnybug_3main+0x2c0>
    861e:	4c 89 ef             	mov    %r13,%rdi
    8621:	e8 ea b0 ff ff       	call   3710 <_Py_Dealloc@plt>
    8626:	e9 25 fc ff ff       	jmp    8250 <__pyx_pw_8funnybug_3main+0x2c0>
    862b:	0f 1f 44 00 00       	nopl   0x0(%rax,%rax,1)
    8630:	31 d2                	xor    %edx,%edx
    8632:	4c 89 e6             	mov    %r12,%rsi
    8635:	4c 89 ff             	mov    %r15,%rdi
    8638:	e8 33 b4 ff ff       	call   3a70 <PyObject_Call@plt>
    863d:	48 89 c3             	mov    %rax,%rbx
    8640:	48 85 c0             	test   %rax,%rax
    8643:	0f 85 c9 fb ff ff    	jne    8212 <__pyx_pw_8funnybug_3main+0x282>
    8649:	e9 62 fc ff ff       	jmp    82b0 <__pyx_pw_8funnybug_3main+0x320>
    864e:	66 90                	xchg   %ax,%ax
    8650:	48 8b 3d 89 74 00 00 	mov    0x7489(%rip),%rdi        # fae0 <__pyx_mstate_global_static+0x100>
    8657:	48 8d 15 1a 73 00 00 	lea    0x731a(%rip),%rdx        # f978 <__pyx_dict_cached_value.3>
    865e:	48 8d 35 1b 73 00 00 	lea    0x731b(%rip),%rsi        # f980 <__pyx_dict_version.4>
    8665:	e8 a6 f8 ff ff       	call   7f10 <__Pyx__GetModuleGlobalName>
    866a:	49 89 c7             	mov    %rax,%r15
    866d:	4d 85 ff             	test   %r15,%r15
    8670:	0f 85 3f fa ff ff    	jne    80b5 <__pyx_pw_8funnybug_3main+0x125>
    8676:	49 83 2c 24 01       	subq   $0x1,(%r12)
    867b:	0f 85 af 01 00 00    	jne    8830 <__pyx_pw_8funnybug_3main+0x8a0>
    8681:	41 be 2e 00 00 00    	mov    $0x2e,%r14d
    8687:	bd 6a 0d 00 00       	mov    $0xd6a,%ebp
    868c:	4c 89 e7             	mov    %r12,%rdi
    868f:	e8 7c b0 ff ff       	call   3710 <_Py_Dealloc@plt>
    8694:	48 8d 0d ee 40 00 00 	lea    0x40ee(%rip),%rcx        # c789 <_fini+0xa11>
    869b:	44 89 f2             	mov    %r14d,%edx
    869e:	89 ee                	mov    %ebp,%esi
    86a0:	48 8d 3d 08 41 00 00 	lea    0x4108(%rip),%rdi        # c7af <_fini+0xa37>
    86a7:	e8 04 f0 ff ff       	call   76b0 <__Pyx_AddTraceback>
    86ac:	4d 85 ed             	test   %r13,%r13
    86af:	0f 84 d9 fd ff ff    	je     848e <__pyx_pw_8funnybug_3main+0x4fe>
    86b5:	0f 1f 00             	nopl   (%rax)
    86b8:	49 83 6d 00 01       	subq   $0x1,0x0(%r13)
    86bd:	41 bc 00 00 00 00    	mov    $0x0,%r12d
    86c3:	0f 85 87 fb ff ff    	jne    8250 <__pyx_pw_8funnybug_3main+0x2c0>
    86c9:	45 31 f6             	xor    %r14d,%r14d
    86cc:	e9 e2 fc ff ff       	jmp    83b3 <__pyx_pw_8funnybug_3main+0x423>
    86d1:	0f 1f 80 00 00 00 00 	nopl   0x0(%rax)
    86d8:	48 8b 3d 59 74 00 00 	mov    0x7459(%rip),%rdi        # fb38 <__pyx_mstate_global_static+0x158>
    86df:	e8 6c f7 ff ff       	call   7e50 <__Pyx_GetBuiltinName>
    86e4:	49 89 c4             	mov    %rax,%r12
    86e7:	e9 01 ff ff ff       	jmp    85ed <__pyx_pw_8funnybug_3main+0x65d>
    86ec:	0f 1f 40 00          	nopl   0x0(%rax)
    86f0:	48 8b 05 e9 72 00 00 	mov    0x72e9(%rip),%rax        # f9e0 <__pyx_mstate_global_static>
    86f7:	e9 94 f9 ff ff       	jmp    8090 <__pyx_pw_8funnybug_3main+0x100>
    86fc:	0f 1f 40 00          	nopl   0x0(%rax)
    8700:	48 8b 3d d9 73 00 00 	mov    0x73d9(%rip),%rdi        # fae0 <__pyx_mstate_global_static+0x100>
    8707:	e8 44 f7 ff ff       	call   7e50 <__Pyx_GetBuiltinName>
    870c:	49 89 c7             	mov    %rax,%r15
    870f:	e9 59 ff ff ff       	jmp    866d <__pyx_pw_8funnybug_3main+0x6dd>
    8714:	0f 1f 40 00          	nopl   0x0(%rax)
    8718:	49 8b 5c 24 18       	mov    0x18(%r12),%rbx
    871d:	48 85 db             	test   %rbx,%rbx
    8720:	0f 84 9a f9 ff ff    	je     80c0 <__pyx_pw_8funnybug_3main+0x130>
    8726:	49 8b 6c 24 10       	mov    0x10(%r12),%rbp
    872b:	48 83 03 01          	addq   $0x1,(%rbx)
    872f:	48 83 45 00 01       	addq   $0x1,0x0(%rbp)
    8734:	49 83 2c 24 01       	subq   $0x1,(%r12)
    8739:	74 6d                	je     87a8 <__pyx_pw_8funnybug_3main+0x818>
    873b:	48 89 e6             	mov    %rsp,%rsi
    873e:	ba 03 00 00 00       	mov    $0x3,%edx
    8743:	48 89 ef             	mov    %rbp,%rdi
    8746:	48 89 1c 24          	mov    %rbx,(%rsp)
    874a:	48 8b 05 0f 68 00 00 	mov    0x680f(%rip),%rax        # ef60 <_Py_FalseStruct@Base>
    8751:	4c 89 7c 24 08       	mov    %r15,0x8(%rsp)
    8756:	48 89 44 24 10       	mov    %rax,0x10(%rsp)
    875b:	e8 00 e0 ff ff       	call   6760 <__Pyx_PyObject_FastCallDict.constprop.0>
    8760:	48 83 2b 01          	subq   $0x1,(%rbx)
    8764:	49 89 c6             	mov    %rax,%r14
    8767:	0f 85 84 f9 ff ff    	jne    80f1 <__pyx_pw_8funnybug_3main+0x161>
    876d:	48 89 df             	mov    %rbx,%rdi
    8770:	e8 9b af ff ff       	call   3710 <_Py_Dealloc@plt>
    8775:	49 83 2f 01          	subq   $0x1,(%r15)
    8779:	0f 85 7c f9 ff ff    	jne    80fb <__pyx_pw_8funnybug_3main+0x16b>
    877f:	e9 bc fb ff ff       	jmp    8340 <__pyx_pw_8funnybug_3main+0x3b0>
    8784:	0f 1f 40 00          	nopl   0x0(%rax)
    8788:	48 89 ef             	mov    %rbp,%rdi
    878b:	e8 80 af ff ff       	call   3710 <_Py_Dealloc@plt>
    8790:	e9 3f fb ff ff       	jmp    82d4 <__pyx_pw_8funnybug_3main+0x344>
    8795:	0f 1f 00             	nopl   (%rax)
    8798:	4c 89 e7             	mov    %r12,%rdi
    879b:	e8 70 af ff ff       	call   3710 <_Py_Dealloc@plt>
    87a0:	e9 ea fd ff ff       	jmp    858f <__pyx_pw_8funnybug_3main+0x5ff>
    87a5:	0f 1f 00             	nopl   (%rax)
    87a8:	4c 89 e7             	mov    %r12,%rdi
    87ab:	e8 60 af ff ff       	call   3710 <_Py_Dealloc@plt>
    87b0:	eb 89                	jmp    873b <__pyx_pw_8funnybug_3main+0x7ab>
    87b2:	66 0f 1f 44 00 00    	nopw   0x0(%rax,%rax,1)
    87b8:	bb 30 00 00 00       	mov    $0x30,%ebx
    87bd:	41 bf 97 0d 00 00    	mov    $0xd97,%r15d
    87c3:	e9 01 fb ff ff       	jmp    82c9 <__pyx_pw_8funnybug_3main+0x339>
    87c8:	0f 1f 84 00 00 00 00 	nopl   0x0(%rax,%rax,1)
    87cf:	00 
    87d0:	e8 5b b1 ff ff       	call   3930 <PyErr_Occurred@plt>
    87d5:	48 85 c0             	test   %rax,%rax
    87d8:	0f 85 0a fd ff ff    	jne    84e8 <__pyx_pw_8funnybug_3main+0x558>
    87de:	48 8b 05 43 67 00 00 	mov    0x6743(%rip),%rax        # ef28 <PyExc_SystemError@Base>
    87e5:	48 8d 35 24 3b 00 00 	lea    0x3b24(%rip),%rsi        # c310 <_fini+0x598>
    87ec:	48 8b 38             	mov    (%rax),%rdi
    87ef:	e8 ac af ff ff       	call   37a0 <PyErr_SetString@plt>
    87f4:	e9 ef fc ff ff       	jmp    84e8 <__pyx_pw_8funnybug_3main+0x558>
    87f9:	0f 1f 80 00 00 00 00 	nopl   0x0(%rax)
    8800:	49 89 dc             	mov    %rbx,%r12
    8803:	41 bf a2 0d 00 00    	mov    $0xda2,%r15d
    8809:	bb 30 00 00 00       	mov    $0x30,%ebx
    880e:	e9 b6 fa ff ff       	jmp    82c9 <__pyx_pw_8funnybug_3main+0x339>
    8813:	0f 1f 44 00 00       	nopl   0x0(%rax,%rax,1)
    8818:	45 31 ed             	xor    %r13d,%r13d
    881b:	41 be 2d 00 00 00    	mov    $0x2d,%r14d
    8821:	bd 45 0d 00 00       	mov    $0xd45,%ebp
    8826:	e9 61 fe ff ff       	jmp    868c <__pyx_pw_8funnybug_3main+0x6fc>
    882b:	0f 1f 44 00 00       	nopl   0x0(%rax,%rax,1)
    8830:	48 8d 0d 52 3f 00 00 	lea    0x3f52(%rip),%rcx        # c789 <_fini+0xa11>
    8837:	ba 2e 00 00 00       	mov    $0x2e,%edx
    883c:	be 6a 0d 00 00       	mov    $0xd6a,%esi
    8841:	48 8d 3d 67 3f 00 00 	lea    0x3f67(%rip),%rdi        # c7af <_fini+0xa37>
    8848:	e8 63 ee ff ff       	call   76b0 <__Pyx_AddTraceback>
    884d:	e9 66 fe ff ff       	jmp    86b8 <__pyx_pw_8funnybug_3main+0x728>
    8852:	e8 29 af ff ff       	call   3780 <__stack_chk_fail@plt>
    8857:	66 0f 1f 84 00 00 00 	nopw   0x0(%rax,%rax,1)
    885e:	00 00 

0000000000008860 <__Pyx_PyObject_GetItem_Slow>:
    8860:	41 54                	push   %r12
    8862:	55                   	push   %rbp
    8863:	53                   	push   %rbx
    8864:	48 83 ec 30          	sub    $0x30,%rsp
    8868:	64 48 8b 04 25 28 00 	mov    %fs:0x28,%rax
    886f:	00 00 
    8871:	48 89 44 24 28       	mov    %rax,0x28(%rsp)
    8876:	48 8b 47 08          	mov    0x8(%rdi),%rax
    887a:	f6 80 ab 00 00 00 80 	testb  $0x80,0xab(%rax)
    8881:	0f 84 b2 00 00 00    	je     8939 <__Pyx_PyObject_GetItem_Slow+0xd9>
    8887:	48 8b 80 90 00 00 00 	mov    0x90(%rax),%rax
    888e:	49 89 f4             	mov    %rsi,%r12
    8891:	48 89 fb             	mov    %rdi,%rbx
    8894:	48 3b 05 d5 66 00 00 	cmp    0x66d5(%rip),%rax        # ef70 <PyObject_GenericGetAttr@Base>
    889b:	48 8b 35 ce 71 00 00 	mov    0x71ce(%rip),%rsi        # fa70 <__pyx_mstate_global_static+0x90>
    88a2:	75 74                	jne    8918 <__Pyx_PyObject_GetItem_Slow+0xb8>
    88a4:	b9 01 00 00 00       	mov    $0x1,%ecx
    88a9:	31 d2                	xor    %edx,%edx
    88ab:	e8 30 ae ff ff       	call   36e0 <_PyObject_GenericGetAttrWithDict@plt>
    88b0:	48 89 c5             	mov    %rax,%rbp
    88b3:	48 85 c0             	test   %rax,%rax
    88b6:	74 78                	je     8930 <__Pyx_PyObject_GetItem_Slow+0xd0>
    88b8:	48 8d 74 24 18       	lea    0x18(%rsp),%rsi
    88bd:	48 89 ef             	mov    %rbp,%rdi
    88c0:	48 ba 01 00 00 00 00 	movabs $0x8000000000000001,%rdx
    88c7:	00 00 80 
    88ca:	48 c7 44 24 10 00 00 	movq   $0x0,0x10(%rsp)
    88d1:	00 00 
    88d3:	4c 89 64 24 18       	mov    %r12,0x18(%rsp)
    88d8:	e8 83 de ff ff       	call   6760 <__Pyx_PyObject_FastCallDict.constprop.0>
    88dd:	48 83 6d 00 01       	subq   $0x1,0x0(%rbp)
    88e2:	74 1c                	je     8900 <__Pyx_PyObject_GetItem_Slow+0xa0>
    88e4:	48 8b 54 24 28       	mov    0x28(%rsp),%rdx
    88e9:	64 48 2b 14 25 28 00 	sub    %fs:0x28,%rdx
    88f0:	00 00 
    88f2:	75 6f                	jne    8963 <__Pyx_PyObject_GetItem_Slow+0x103>
    88f4:	48 83 c4 30          	add    $0x30,%rsp
    88f8:	5b                   	pop    %rbx
    88f9:	5d                   	pop    %rbp
    88fa:	41 5c                	pop    %r12
    88fc:	c3                   	ret    
    88fd:	0f 1f 00             	nopl   (%rax)
    8900:	48 89 ef             	mov    %rbp,%rdi
    8903:	48 89 44 24 08       	mov    %rax,0x8(%rsp)
    8908:	e8 03 ae ff ff       	call   3710 <_Py_Dealloc@plt>
    890d:	48 8b 44 24 08       	mov    0x8(%rsp),%rax
    8912:	eb d0                	jmp    88e4 <__Pyx_PyObject_GetItem_Slow+0x84>
    8914:	0f 1f 40 00          	nopl   0x0(%rax)
    8918:	48 85 c0             	test   %rax,%rax
    891b:	74 3c                	je     8959 <__Pyx_PyObject_GetItem_Slow+0xf9>
    891d:	ff d0                	call   *%rax
    891f:	48 89 c5             	mov    %rax,%rbp
    8922:	48 85 ed             	test   %rbp,%rbp
    8925:	75 91                	jne    88b8 <__Pyx_PyObject_GetItem_Slow+0x58>
    8927:	e8 d4 ea ff ff       	call   7400 <__Pyx_PyObject_GetAttrStr_ClearAttributeError>
    892c:	0f 1f 40 00          	nopl   0x0(%rax)
    8930:	e8 ab af ff ff       	call   38e0 <PyErr_Clear@plt>
    8935:	48 8b 43 08          	mov    0x8(%rbx),%rax
    8939:	48 8b 50 18          	mov    0x18(%rax),%rdx
    893d:	48 8b 05 14 66 00 00 	mov    0x6614(%rip),%rax        # ef58 <PyExc_TypeError@Base>
    8944:	48 8d 35 95 3b 00 00 	lea    0x3b95(%rip),%rsi        # c4e0 <_fini+0x768>
    894b:	48 8b 38             	mov    (%rax),%rdi
    894e:	31 c0                	xor    %eax,%eax
    8950:	e8 3b b1 ff ff       	call   3a90 <PyErr_Format@plt>
    8955:	31 c0                	xor    %eax,%eax
    8957:	eb 8b                	jmp    88e4 <__Pyx_PyObject_GetItem_Slow+0x84>
    8959:	e8 72 b1 ff ff       	call   3ad0 <PyObject_GetAttr@plt>
    895e:	48 89 c5             	mov    %rax,%rbp
    8961:	eb bf                	jmp    8922 <__Pyx_PyObject_GetItem_Slow+0xc2>
    8963:	e8 18 ae ff ff       	call   3780 <__stack_chk_fail@plt>
    8968:	0f 1f 84 00 00 00 00 	nopl   0x0(%rax,%rax,1)
    896f:	00 

0000000000008970 <__pyx_pw_8funnybug_1solve>:
    8970:	f3 0f 1e fa          	endbr64 
    8974:	41 57                	push   %r15
    8976:	41 56                	push   %r14
    8978:	41 55                	push   %r13
    897a:	41 54                	push   %r12
    897c:	55                   	push   %rbp
    897d:	53                   	push   %rbx
    897e:	48 89 d3             	mov    %rdx,%rbx
    8981:	48 81 ec d8 00 00 00 	sub    $0xd8,%rsp
    8988:	64 48 8b 04 25 28 00 	mov    %fs:0x28,%rax
    898f:	00 00 
    8991:	48 89 84 24 c8 00 00 	mov    %rax,0xc8(%rsp)
    8998:	00 
    8999:	31 c0                	xor    %eax,%eax
    899b:	48 8d 05 3e 71 00 00 	lea    0x713e(%rip),%rax        # fae0 <__pyx_mstate_global_static+0x100>
    89a2:	48 c7 84 24 a0 00 00 	movq   $0x0,0xa0(%rsp)
    89a9:	00 00 00 00 00 
    89ae:	48 89 84 24 b0 00 00 	mov    %rax,0xb0(%rsp)
    89b5:	00 
    89b6:	48 83 c0 80          	add    $0xffffffffffffff80,%rax
    89ba:	48 c7 84 24 a8 00 00 	movq   $0x0,0xa8(%rsp)
    89c1:	00 00 00 00 00 
    89c6:	48 89 84 24 b8 00 00 	mov    %rax,0xb8(%rsp)
    89cd:	00 
    89ce:	48 c7 84 24 c0 00 00 	movq   $0x0,0xc0(%rsp)
    89d5:	00 00 00 00 00 
    89da:	48 85 c9             	test   %rcx,%rcx
    89dd:	0f 84 b5 00 00 00    	je     8a98 <__pyx_pw_8funnybug_1solve+0x128>
    89e3:	4c 8d 24 d5 00 00 00 	lea    0x0(,%rdx,8),%r12
    89ea:	00 
    89eb:	49 89 ce             	mov    %rcx,%r14
    89ee:	4a 8d 2c 26          	lea    (%rsi,%r12,1),%rbp
    89f2:	48 83 fa 01          	cmp    $0x1,%rdx
    89f6:	0f 84 8c 08 00 00    	je     9288 <__pyx_pw_8funnybug_1solve+0x918>
    89fc:	48 83 fa 02          	cmp    $0x2,%rdx
    8a00:	0f 84 3a 02 00 00    	je     8c40 <__pyx_pw_8funnybug_1solve+0x2d0>
    8a06:	48 85 d2             	test   %rdx,%rdx
    8a09:	0f 84 71 02 00 00    	je     8c80 <__pyx_pw_8funnybug_1solve+0x310>
    8a0f:	48 83 ec 08          	sub    $0x8,%rsp
    8a13:	48 8b 05 3e 65 00 00 	mov    0x653e(%rip),%rax        # ef58 <PyExc_TypeError@Base>
    8a1a:	48 8d 15 b2 3d 00 00 	lea    0x3db2(%rip),%rdx        # c7d3 <_fini+0xa5b>
    8a21:	48 8d 35 e0 3a 00 00 	lea    0x3ae0(%rip),%rsi        # c508 <_fini+0x790>
    8a28:	53                   	push   %rbx
    8a29:	4c 8d 0d f0 3c 00 00 	lea    0x3cf0(%rip),%r9        # c720 <_fini+0x9a8>
    8a30:	41 b8 02 00 00 00    	mov    $0x2,%r8d
    8a36:	48 8d 0d 80 3d 00 00 	lea    0x3d80(%rip),%rcx        # c7bd <_fini+0xa45>
    8a3d:	48 8b 38             	mov    (%rax),%rdi
    8a40:	31 c0                	xor    %eax,%eax
    8a42:	e8 49 b0 ff ff       	call   3a90 <PyErr_Format@plt>
    8a47:	58                   	pop    %rax
    8a48:	be 30 0a 00 00       	mov    $0xa30,%esi
    8a4d:	5a                   	pop    %rdx
    8a4e:	48 8d 0d 34 3d 00 00 	lea    0x3d34(%rip),%rcx        # c789 <_fini+0xa11>
    8a55:	ba 0f 00 00 00       	mov    $0xf,%edx
    8a5a:	48 8d 3d 69 3d 00 00 	lea    0x3d69(%rip),%rdi        # c7ca <_fini+0xa52>
    8a61:	45 31 ff             	xor    %r15d,%r15d
    8a64:	e8 47 ec ff ff       	call   76b0 <__Pyx_AddTraceback>
    8a69:	48 8b 84 24 c8 00 00 	mov    0xc8(%rsp),%rax
    8a70:	00 
    8a71:	64 48 2b 04 25 28 00 	sub    %fs:0x28,%rax
    8a78:	00 00 
    8a7a:	0f 85 a8 21 00 00    	jne    ac28 <__pyx_pw_8funnybug_1solve+0x22b8>
    8a80:	48 81 c4 d8 00 00 00 	add    $0xd8,%rsp
    8a87:	4c 89 f8             	mov    %r15,%rax
    8a8a:	5b                   	pop    %rbx
    8a8b:	5d                   	pop    %rbp
    8a8c:	41 5c                	pop    %r12
    8a8e:	41 5d                	pop    %r13
    8a90:	41 5e                	pop    %r14
    8a92:	41 5f                	pop    %r15
    8a94:	c3                   	ret    
    8a95:	0f 1f 00             	nopl   (%rax)
    8a98:	48 83 fa 02          	cmp    $0x2,%rdx
    8a9c:	0f 85 6d ff ff ff    	jne    8a0f <__pyx_pw_8funnybug_1solve+0x9f>
    8aa2:	48 8b 46 08          	mov    0x8(%rsi),%rax
    8aa6:	48 8b 2e             	mov    (%rsi),%rbp
    8aa9:	48 89 44 24 10       	mov    %rax,0x10(%rsp)
    8aae:	48 89 ac 24 a0 00 00 	mov    %rbp,0xa0(%rsp)
    8ab5:	00 
    8ab6:	48 89 84 24 a8 00 00 	mov    %rax,0xa8(%rsp)
    8abd:	00 
    8abe:	31 ff                	xor    %edi,%edi
    8ac0:	e8 0b ab ff ff       	call   35d0 <PyList_New@plt>
    8ac5:	49 89 c5             	mov    %rax,%r13
    8ac8:	48 85 c0             	test   %rax,%rax
    8acb:	0f 84 b7 0a 00 00    	je     9588 <__pyx_pw_8funnybug_1solve+0xc18>
    8ad1:	48 8b 45 08          	mov    0x8(%rbp),%rax
    8ad5:	48 3b 05 1c 65 00 00 	cmp    0x651c(%rip),%rax        # eff8 <PyList_Type@Base>
    8adc:	0f 84 76 07 00 00    	je     9258 <__pyx_pw_8funnybug_1solve+0x8e8>
    8ae2:	48 3b 05 5f 64 00 00 	cmp    0x645f(%rip),%rax        # ef48 <PyTuple_Type@Base>
    8ae9:	0f 84 f1 07 00 00    	je     92e0 <__pyx_pw_8funnybug_1solve+0x970>
    8aef:	48 8b 58 70          	mov    0x70(%rax),%rbx
    8af3:	48 8b 40 68          	mov    0x68(%rax),%rax
    8af7:	48 85 db             	test   %rbx,%rbx
    8afa:	74 44                	je     8b40 <__pyx_pw_8funnybug_1solve+0x1d0>
    8afc:	48 83 7b 08 00       	cmpq   $0x0,0x8(%rbx)
    8b01:	74 3d                	je     8b40 <__pyx_pw_8funnybug_1solve+0x1d0>
    8b03:	31 ff                	xor    %edi,%edi
    8b05:	e8 76 ad ff ff       	call   3880 <PyLong_FromSsize_t@plt>
    8b0a:	49 89 c7             	mov    %rax,%r15
    8b0d:	48 85 c0             	test   %rax,%rax
    8b10:	0f 84 37 12 00 00    	je     9d4d <__pyx_pw_8funnybug_1solve+0x13dd>
    8b16:	48 89 c6             	mov    %rax,%rsi
    8b19:	48 89 ef             	mov    %rbp,%rdi
    8b1c:	ff 53 08             	call   *0x8(%rbx)
    8b1f:	49 83 2f 01          	subq   $0x1,(%r15)
    8b23:	49 89 c0             	mov    %rax,%r8
    8b26:	75 38                	jne    8b60 <__pyx_pw_8funnybug_1solve+0x1f0>
    8b28:	4c 89 ff             	mov    %r15,%rdi
    8b2b:	48 89 44 24 08       	mov    %rax,0x8(%rsp)
    8b30:	e8 db ab ff ff       	call   3710 <_Py_Dealloc@plt>
    8b35:	4c 8b 44 24 08       	mov    0x8(%rsp),%r8
    8b3a:	eb 24                	jmp    8b60 <__pyx_pw_8funnybug_1solve+0x1f0>
    8b3c:	0f 1f 40 00          	nopl   0x0(%rax)
    8b40:	48 85 c0             	test   %rax,%rax
    8b43:	0f 84 6f 04 00 00    	je     8fb8 <__pyx_pw_8funnybug_1solve+0x648>
    8b49:	48 8b 40 18          	mov    0x18(%rax),%rax
    8b4d:	48 85 c0             	test   %rax,%rax
    8b50:	0f 84 62 04 00 00    	je     8fb8 <__pyx_pw_8funnybug_1solve+0x648>
    8b56:	31 f6                	xor    %esi,%esi
    8b58:	48 89 ef             	mov    %rbp,%rdi
    8b5b:	ff d0                	call   *%rax
    8b5d:	49 89 c0             	mov    %rax,%r8
    8b60:	4d 85 c0             	test   %r8,%r8
    8b63:	0f 84 f7 0c 00 00    	je     9860 <__pyx_pw_8funnybug_1solve+0xef0>
    8b69:	4c 89 c7             	mov    %r8,%rdi
    8b6c:	4c 89 44 24 08       	mov    %r8,0x8(%rsp)
    8b71:	e8 1a ae ff ff       	call   3990 <PyObject_Size@plt>
    8b76:	4c 8b 44 24 08       	mov    0x8(%rsp),%r8
    8b7b:	48 83 f8 ff          	cmp    $0xffffffffffffffff,%rax
    8b7f:	49 89 c4             	mov    %rax,%r12
    8b82:	0f 84 60 0a 00 00    	je     95e8 <__pyx_pw_8funnybug_1solve+0xc78>
    8b88:	49 83 28 01          	subq   $0x1,(%r8)
    8b8c:	0f 84 e6 06 00 00    	je     9278 <__pyx_pw_8funnybug_1solve+0x908>
    8b92:	31 db                	xor    %ebx,%ebx
    8b94:	4d 85 e4             	test   %r12,%r12
    8b97:	7e 48                	jle    8be1 <__pyx_pw_8funnybug_1solve+0x271>
    8b99:	31 ff                	xor    %edi,%edi
    8b9b:	e8 30 aa ff ff       	call   35d0 <PyList_New@plt>
    8ba0:	49 89 c6             	mov    %rax,%r14
    8ba3:	48 85 c0             	test   %rax,%rax
    8ba6:	0f 84 44 04 00 00    	je     8ff0 <__pyx_pw_8funnybug_1solve+0x680>
    8bac:	49 8b 45 10          	mov    0x10(%r13),%rax
    8bb0:	49 3b 45 20          	cmp    0x20(%r13),%rax
    8bb4:	0f 8d 26 06 00 00    	jge    91e0 <__pyx_pw_8funnybug_1solve+0x870>
    8bba:	49 8b 55 18          	mov    0x18(%r13),%rdx
    8bbe:	49 83 06 01          	addq   $0x1,(%r14)
    8bc2:	4c 89 34 c2          	mov    %r14,(%rdx,%rax,8)
    8bc6:	48 83 c0 01          	add    $0x1,%rax
    8bca:	49 89 45 10          	mov    %rax,0x10(%r13)
    8bce:	49 83 2e 01          	subq   $0x1,(%r14)
    8bd2:	0f 84 08 04 00 00    	je     8fe0 <__pyx_pw_8funnybug_1solve+0x670>
    8bd8:	48 83 c3 01          	add    $0x1,%rbx
    8bdc:	49 39 dc             	cmp    %rbx,%r12
    8bdf:	75 b8                	jne    8b99 <__pyx_pw_8funnybug_1solve+0x229>
    8be1:	48 8b 45 08          	mov    0x8(%rbp),%rax
    8be5:	48 3b 05 0c 64 00 00 	cmp    0x640c(%rip),%rax        # eff8 <PyList_Type@Base>
    8bec:	0f 84 3e 01 00 00    	je     8d30 <__pyx_pw_8funnybug_1solve+0x3c0>
    8bf2:	48 3b 05 4f 63 00 00 	cmp    0x634f(%rip),%rax        # ef48 <PyTuple_Type@Base>
    8bf9:	0f 84 31 01 00 00    	je     8d30 <__pyx_pw_8funnybug_1solve+0x3c0>
    8bff:	48 89 ef             	mov    %rbp,%rdi
    8c02:	e8 39 ae ff ff       	call   3a40 <PyObject_GetIter@plt>
    8c07:	48 89 c5             	mov    %rax,%rbp
    8c0a:	48 85 c0             	test   %rax,%rax
    8c0d:	0f 84 23 21 00 00    	je     ad36 <__pyx_pw_8funnybug_1solve+0x23c6>
    8c13:	48 8b 40 08          	mov    0x8(%rax),%rax
    8c17:	48 8b 80 e0 00 00 00 	mov    0xe0(%rax),%rax
    8c1e:	48 89 44 24 30       	mov    %rax,0x30(%rsp)
    8c23:	48 85 c0             	test   %rax,%rax
    8c26:	0f 84 a7 20 00 00    	je     acd3 <__pyx_pw_8funnybug_1solve+0x2363>
    8c2c:	48 c7 44 24 28 ff ff 	movq   $0xffffffffffffffff,0x28(%rsp)
    8c33:	ff ff 
    8c35:	e9 0d 01 00 00       	jmp    8d47 <__pyx_pw_8funnybug_1solve+0x3d7>
    8c3a:	66 0f 1f 44 00 00    	nopw   0x0(%rax,%rax,1)
    8c40:	48 8b 46 08          	mov    0x8(%rsi),%rax
    8c44:	4c 8b 69 10          	mov    0x10(%rcx),%r13
    8c48:	48 89 84 24 a8 00 00 	mov    %rax,0xa8(%rsp)
    8c4f:	00 
    8c50:	48 8b 06             	mov    (%rsi),%rax
    8c53:	48 89 84 24 a0 00 00 	mov    %rax,0xa0(%rsp)
    8c5a:	00 
    8c5b:	4d 85 ed             	test   %r13,%r13
    8c5e:	0f 8f 44 0a 00 00    	jg     96a8 <__pyx_pw_8funnybug_1solve+0xd38>
    8c64:	48 8b 84 24 a8 00 00 	mov    0xa8(%rsp),%rax
    8c6b:	00 
    8c6c:	48 8b ac 24 a0 00 00 	mov    0xa0(%rsp),%rbp
    8c73:	00 
    8c74:	48 89 44 24 10       	mov    %rax,0x10(%rsp)
    8c79:	e9 40 fe ff ff       	jmp    8abe <__pyx_pw_8funnybug_1solve+0x14e>
    8c7e:	66 90                	xchg   %ax,%ax
    8c80:	4c 8b 69 10          	mov    0x10(%rcx),%r13
    8c84:	4c 8b 3d 55 6e 00 00 	mov    0x6e55(%rip),%r15        # fae0 <__pyx_mstate_global_static+0x100>
    8c8b:	31 c0                	xor    %eax,%eax
    8c8d:	4d 85 ed             	test   %r13,%r13
    8c90:	7f 1b                	jg     8cad <__pyx_pw_8funnybug_1solve+0x33d>
    8c92:	e9 19 11 00 00       	jmp    9db0 <__pyx_pw_8funnybug_1solve+0x1440>
    8c97:	66 0f 1f 84 00 00 00 	nopw   0x0(%rax,%rax,1)
    8c9e:	00 00 
    8ca0:	48 83 c0 01          	add    $0x1,%rax
    8ca4:	4c 39 e8             	cmp    %r13,%rax
    8ca7:	0f 84 73 08 00 00    	je     9520 <__pyx_pw_8funnybug_1solve+0xbb0>
    8cad:	4d 3b 7c c6 18       	cmp    0x18(%r14,%rax,8),%r15
    8cb2:	75 ec                	jne    8ca0 <__pyx_pw_8funnybug_1solve+0x330>
    8cb4:	48 8b 44 c5 00       	mov    0x0(%rbp,%rax,8),%rax
    8cb9:	48 89 84 24 a0 00 00 	mov    %rax,0xa0(%rsp)
    8cc0:	00 
    8cc1:	48 85 c0             	test   %rax,%rax
    8cc4:	0f 84 f2 10 00 00    	je     9dbc <__pyx_pw_8funnybug_1solve+0x144c>
    8cca:	49 8d 45 ff          	lea    -0x1(%r13),%rax
    8cce:	49 8b 5e 10          	mov    0x10(%r14),%rbx
    8cd2:	48 89 44 24 08       	mov    %rax,0x8(%rsp)
    8cd7:	4c 8b 3d 82 6d 00 00 	mov    0x6d82(%rip),%r15        # fa60 <__pyx_mstate_global_static+0x80>
    8cde:	48 85 db             	test   %rbx,%rbx
    8ce1:	0f 8e 59 0d 00 00    	jle    9a40 <__pyx_pw_8funnybug_1solve+0x10d0>
    8ce7:	31 c0                	xor    %eax,%eax
    8ce9:	eb 12                	jmp    8cfd <__pyx_pw_8funnybug_1solve+0x38d>
    8ceb:	0f 1f 44 00 00       	nopl   0x0(%rax,%rax,1)
    8cf0:	48 83 c0 01          	add    $0x1,%rax
    8cf4:	48 39 d8             	cmp    %rbx,%rax
    8cf7:	0f 84 ab 05 00 00    	je     92a8 <__pyx_pw_8funnybug_1solve+0x938>
    8cfd:	4d 3b 7c c6 18       	cmp    0x18(%r14,%rax,8),%r15
    8d02:	75 ec                	jne    8cf0 <__pyx_pw_8funnybug_1solve+0x380>
    8d04:	48 8b 44 c5 00       	mov    0x0(%rbp,%rax,8),%rax
    8d09:	48 89 84 24 a8 00 00 	mov    %rax,0xa8(%rsp)
    8d10:	00 
    8d11:	48 85 c0             	test   %rax,%rax
    8d14:	0f 84 26 0d 00 00    	je     9a40 <__pyx_pw_8funnybug_1solve+0x10d0>
    8d1a:	4c 8b 6c 24 08       	mov    0x8(%rsp),%r13
    8d1f:	49 83 ed 01          	sub    $0x1,%r13
    8d23:	e9 33 ff ff ff       	jmp    8c5b <__pyx_pw_8funnybug_1solve+0x2eb>
    8d28:	0f 1f 84 00 00 00 00 	nopl   0x0(%rax,%rax,1)
    8d2f:	00 
    8d30:	48 83 45 00 01       	addq   $0x1,0x0(%rbp)
    8d35:	48 c7 44 24 30 00 00 	movq   $0x0,0x30(%rsp)
    8d3c:	00 00 
    8d3e:	48 c7 44 24 28 00 00 	movq   $0x0,0x28(%rsp)
    8d45:	00 00 
    8d47:	48 c7 44 24 38 00 00 	movq   $0x0,0x38(%rsp)
    8d4e:	00 00 
    8d50:	45 31 ff             	xor    %r15d,%r15d
    8d53:	31 c0                	xor    %eax,%eax
    8d55:	48 89 6c 24 20       	mov    %rbp,0x20(%rsp)
    8d5a:	4d 89 f9             	mov    %r15,%r9
    8d5d:	48 89 c5             	mov    %rax,%rbp
    8d60:	48 83 7c 24 30 00    	cmpq   $0x0,0x30(%rsp)
    8d66:	0f 85 22 12 00 00    	jne    9f8e <__pyx_pw_8funnybug_1solve+0x161e>
    8d6c:	48 8b 5c 24 20       	mov    0x20(%rsp),%rbx
    8d71:	48 8b 3d 80 62 00 00 	mov    0x6280(%rip),%rdi        # eff8 <PyList_Type@Base>
    8d78:	48 8b 43 10          	mov    0x10(%rbx),%rax
    8d7c:	48 39 7b 08          	cmp    %rdi,0x8(%rbx)
    8d80:	0f 85 cc 15 00 00    	jne    a352 <__pyx_pw_8funnybug_1solve+0x19e2>
    8d86:	48 8b 7c 24 28       	mov    0x28(%rsp),%rdi
    8d8b:	48 39 f8             	cmp    %rdi,%rax
    8d8e:	0f 8e b9 18 00 00    	jle    a64d <__pyx_pw_8funnybug_1solve+0x1cdd>
    8d94:	48 8b 43 18          	mov    0x18(%rbx),%rax
    8d98:	48 8b 04 f8          	mov    (%rax,%rdi,8),%rax
    8d9c:	48 83 c7 01          	add    $0x1,%rdi
    8da0:	48 89 7c 24 28       	mov    %rdi,0x28(%rsp)
    8da5:	48 83 00 01          	addq   $0x1,(%rax)
    8da9:	48 89 44 24 08       	mov    %rax,0x8(%rsp)
    8dae:	48 85 ed             	test   %rbp,%rbp
    8db1:	74 0b                	je     8dbe <__pyx_pw_8funnybug_1solve+0x44e>
    8db3:	48 83 6d 00 01       	subq   $0x1,0x0(%rbp)
    8db8:	0f 84 7b 08 00 00    	je     9639 <__pyx_pw_8funnybug_1solve+0xcc9>
    8dbe:	4c 8b 35 93 6d 00 00 	mov    0x6d93(%rip),%r14        # fb58 <__pyx_mstate_global_static+0x178>
    8dc5:	48 8b 44 24 08       	mov    0x8(%rsp),%rax
    8dca:	49 83 06 01          	addq   $0x1,(%r14)
    8dce:	48 8b 40 08          	mov    0x8(%rax),%rax
    8dd2:	48 3b 05 6f 61 00 00 	cmp    0x616f(%rip),%rax        # ef48 <PyTuple_Type@Base>
    8dd9:	74 0d                	je     8de8 <__pyx_pw_8funnybug_1solve+0x478>
    8ddb:	48 3b 05 16 62 00 00 	cmp    0x6216(%rip),%rax        # eff8 <PyList_Type@Base>
    8de2:	0f 85 75 08 00 00    	jne    965d <__pyx_pw_8funnybug_1solve+0xced>
    8de8:	48 c7 44 24 18 00 00 	movq   $0x0,0x18(%rsp)
    8def:	00 00 
    8df1:	48 8b 44 24 08       	mov    0x8(%rsp),%rax
    8df6:	31 db                	xor    %ebx,%ebx
    8df8:	48 83 00 01          	addq   $0x1,(%rax)
    8dfc:	48 89 c5             	mov    %rax,%rbp
    8dff:	48 8d 84 24 b8 00 00 	lea    0xb8(%rsp),%rax
    8e06:	00 
    8e07:	48 83 7c 24 18 00    	cmpq   $0x0,0x18(%rsp)
    8e0d:	4c 8b 44 24 38       	mov    0x38(%rsp),%r8
    8e12:	49 89 df             	mov    %rbx,%r15
    8e15:	48 89 44 24 40       	mov    %rax,0x40(%rsp)
    8e1a:	0f 85 11 01 00 00    	jne    8f31 <__pyx_pw_8funnybug_1solve+0x5c1>
    8e20:	48 8b 45 10          	mov    0x10(%rbp),%rax
    8e24:	48 8b 3d cd 61 00 00 	mov    0x61cd(%rip),%rdi        # eff8 <PyList_Type@Base>
    8e2b:	48 39 7d 08          	cmp    %rdi,0x8(%rbp)
    8e2f:	0f 85 b8 0c 00 00    	jne    9aed <__pyx_pw_8funnybug_1solve+0x117d>
    8e35:	4c 39 f8             	cmp    %r15,%rax
    8e38:	0f 8e 9a 15 00 00    	jle    a3d8 <__pyx_pw_8funnybug_1solve+0x1a68>
    8e3e:	48 8b 45 18          	mov    0x18(%rbp),%rax
    8e42:	4e 8b 24 f8          	mov    (%rax,%r15,8),%r12
    8e46:	49 83 c7 01          	add    $0x1,%r15
    8e4a:	49 83 04 24 01       	addq   $0x1,(%r12)
    8e4f:	4d 85 c0             	test   %r8,%r8
    8e52:	74 0a                	je     8e5e <__pyx_pw_8funnybug_1solve+0x4ee>
    8e54:	49 83 28 01          	subq   $0x1,(%r8)
    8e58:	0f 84 aa 07 00 00    	je     9608 <__pyx_pw_8funnybug_1solve+0xc98>
    8e5e:	49 83 06 01          	addq   $0x1,(%r14)
    8e62:	4d 85 c9             	test   %r9,%r9
    8e65:	74 0a                	je     8e71 <__pyx_pw_8funnybug_1solve+0x501>
    8e67:	49 83 29 01          	subq   $0x1,(%r9)
    8e6b:	0f 84 87 07 00 00    	je     95f8 <__pyx_pw_8funnybug_1solve+0xc88>
    8e71:	48 8b 35 e8 6c 00 00 	mov    0x6ce8(%rip),%rsi        # fb60 <__pyx_mstate_global_static+0x180>
    8e78:	4c 89 f7             	mov    %r14,%rdi
    8e7b:	e8 a0 cb ff ff       	call   5a20 <__Pyx_PyInt_AddObjC.constprop.0>
    8e80:	48 89 c3             	mov    %rax,%rbx
    8e83:	48 85 c0             	test   %rax,%rax
    8e86:	0f 84 08 0c 00 00    	je     9a94 <__pyx_pw_8funnybug_1solve+0x1124>
    8e8c:	49 83 2e 01          	subq   $0x1,(%r14)
    8e90:	0f 84 7a 06 00 00    	je     9510 <__pyx_pw_8funnybug_1solve+0xba0>
    8e96:	49 8b 45 08          	mov    0x8(%r13),%rax
    8e9a:	4c 89 f6             	mov    %r14,%rsi
    8e9d:	4c 89 ef             	mov    %r13,%rdi
    8ea0:	48 8b 50 70          	mov    0x70(%rax),%rdx
    8ea4:	48 8b 48 68          	mov    0x68(%rax),%rcx
    8ea8:	48 85 d2             	test   %rdx,%rdx
    8eab:	0f 84 6f 07 00 00    	je     9620 <__pyx_pw_8funnybug_1solve+0xcb0>
    8eb1:	48 8b 42 08          	mov    0x8(%rdx),%rax
    8eb5:	48 85 c0             	test   %rax,%rax
    8eb8:	0f 84 62 07 00 00    	je     9620 <__pyx_pw_8funnybug_1solve+0xcb0>
    8ebe:	ff d0                	call   *%rax
    8ec0:	49 89 c1             	mov    %rax,%r9
    8ec3:	4d 85 c9             	test   %r9,%r9
    8ec6:	0f 84 3d 0c 00 00    	je     9b09 <__pyx_pw_8funnybug_1solve+0x1199>
    8ecc:	49 8b 49 08          	mov    0x8(%r9),%rcx
    8ed0:	48 3b 0d 21 61 00 00 	cmp    0x6121(%rip),%rcx        # eff8 <PyList_Type@Base>
    8ed7:	0f 85 85 0c 00 00    	jne    9b62 <__pyx_pw_8funnybug_1solve+0x11f2>
    8edd:	49 8b 51 20          	mov    0x20(%r9),%rdx
    8ee1:	49 8b 41 10          	mov    0x10(%r9),%rax
    8ee5:	48 89 d1             	mov    %rdx,%rcx
    8ee8:	48 d1 f9             	sar    %rcx
    8eeb:	48 39 c8             	cmp    %rcx,%rax
    8eee:	0f 8e ac 0a 00 00    	jle    99a0 <__pyx_pw_8funnybug_1solve+0x1030>
    8ef4:	48 39 d0             	cmp    %rdx,%rax
    8ef7:	0f 8d a3 0a 00 00    	jge    99a0 <__pyx_pw_8funnybug_1solve+0x1030>
    8efd:	49 8b 51 18          	mov    0x18(%r9),%rdx
    8f01:	49 83 04 24 01       	addq   $0x1,(%r12)
    8f06:	4c 89 24 c2          	mov    %r12,(%rdx,%rax,8)
    8f0a:	48 83 c0 01          	add    $0x1,%rax
    8f0e:	49 89 41 10          	mov    %rax,0x10(%r9)
    8f12:	49 83 29 01          	subq   $0x1,(%r9)
    8f16:	0f 84 5c 06 00 00    	je     9578 <__pyx_pw_8funnybug_1solve+0xc08>
    8f1c:	48 83 7c 24 18 00    	cmpq   $0x0,0x18(%rsp)
    8f22:	4d 89 f1             	mov    %r14,%r9
    8f25:	4d 89 e0             	mov    %r12,%r8
    8f28:	49 89 de             	mov    %rbx,%r14
    8f2b:	0f 84 ef fe ff ff    	je     8e20 <__pyx_pw_8funnybug_1solve+0x4b0>
    8f31:	4c 89 4c 24 48       	mov    %r9,0x48(%rsp)
    8f36:	48 8b 44 24 18       	mov    0x18(%rsp),%rax
    8f3b:	48 89 ef             	mov    %rbp,%rdi
    8f3e:	4c 89 44 24 38       	mov    %r8,0x38(%rsp)
    8f43:	ff d0                	call   *%rax
    8f45:	4c 8b 44 24 38       	mov    0x38(%rsp),%r8
    8f4a:	4c 8b 4c 24 48       	mov    0x48(%rsp),%r9
    8f4f:	48 85 c0             	test   %rax,%rax
    8f52:	49 89 c4             	mov    %rax,%r12
    8f55:	0f 85 f4 fe ff ff    	jne    8e4f <__pyx_pw_8funnybug_1solve+0x4df>
    8f5b:	4c 89 4c 24 18       	mov    %r9,0x18(%rsp)
    8f60:	e8 cb a9 ff ff       	call   3930 <PyErr_Occurred@plt>
    8f65:	4c 8b 4c 24 18       	mov    0x18(%rsp),%r9
    8f6a:	48 85 c0             	test   %rax,%rax
    8f6d:	48 89 c7             	mov    %rax,%rdi
    8f70:	74 22                	je     8f94 <__pyx_pw_8funnybug_1solve+0x624>
    8f72:	48 8b 05 3f 60 00 00 	mov    0x603f(%rip),%rax        # efb8 <PyExc_StopIteration@Base>
    8f79:	48 8b 30             	mov    (%rax),%rsi
    8f7c:	48 39 f7             	cmp    %rsi,%rdi
    8f7f:	0f 85 28 1c 00 00    	jne    abad <__pyx_pw_8funnybug_1solve+0x223d>
    8f85:	4c 89 4c 24 18       	mov    %r9,0x18(%rsp)
    8f8a:	e8 51 a9 ff ff       	call   38e0 <PyErr_Clear@plt>
    8f8f:	4c 8b 4c 24 18       	mov    0x18(%rsp),%r9
    8f94:	48 83 6d 00 01       	subq   $0x1,0x0(%rbp)
    8f99:	0f 84 7d 15 00 00    	je     a51c <__pyx_pw_8funnybug_1solve+0x1bac>
    8f9f:	49 83 2e 01          	subq   $0x1,(%r14)
    8fa3:	0f 84 5c 15 00 00    	je     a505 <__pyx_pw_8funnybug_1solve+0x1b95>
    8fa9:	48 8b 6c 24 08       	mov    0x8(%rsp),%rbp
    8fae:	e9 ad fd ff ff       	jmp    8d60 <__pyx_pw_8funnybug_1solve+0x3f0>
    8fb3:	0f 1f 44 00 00       	nopl   0x0(%rax,%rax,1)
    8fb8:	31 ff                	xor    %edi,%edi
    8fba:	e8 c1 a8 ff ff       	call   3880 <PyLong_FromSsize_t@plt>
    8fbf:	49 89 c7             	mov    %rax,%r15
    8fc2:	48 85 c0             	test   %rax,%rax
    8fc5:	0f 84 82 0d 00 00    	je     9d4d <__pyx_pw_8funnybug_1solve+0x13dd>
    8fcb:	48 89 c6             	mov    %rax,%rsi
    8fce:	48 89 ef             	mov    %rbp,%rdi
    8fd1:	e8 fa a7 ff ff       	call   37d0 <PyObject_GetItem@plt>
    8fd6:	e9 44 fb ff ff       	jmp    8b1f <__pyx_pw_8funnybug_1solve+0x1af>
    8fdb:	0f 1f 44 00 00       	nopl   0x0(%rax,%rax,1)
    8fe0:	4c 89 f7             	mov    %r14,%rdi
    8fe3:	e8 28 a7 ff ff       	call   3710 <_Py_Dealloc@plt>
    8fe8:	e9 eb fb ff ff       	jmp    8bd8 <__pyx_pw_8funnybug_1solve+0x268>
    8fed:	0f 1f 00             	nopl   (%rax)
    8ff0:	48 c7 44 24 10 00 00 	movq   $0x0,0x10(%rsp)
    8ff7:	00 00 
    8ff9:	49 89 c0             	mov    %rax,%r8
    8ffc:	31 c9                	xor    %ecx,%ecx
    8ffe:	31 db                	xor    %ebx,%ebx
    9000:	48 c7 44 24 18 00 00 	movq   $0x0,0x18(%rsp)
    9007:	00 00 
    9009:	45 31 c9             	xor    %r9d,%r9d
    900c:	45 31 d2             	xor    %r10d,%r10d
    900f:	31 ed                	xor    %ebp,%ebp
    9011:	48 c7 44 24 30 00 00 	movq   $0x0,0x30(%rsp)
    9018:	00 00 
    901a:	45 31 db             	xor    %r11d,%r11d
    901d:	45 31 e4             	xor    %r12d,%r12d
    9020:	45 31 f6             	xor    %r14d,%r14d
    9023:	45 31 ff             	xor    %r15d,%r15d
    9026:	be 7f 0a 00 00       	mov    $0xa7f,%esi
    902b:	ba 10 00 00 00       	mov    $0x10,%edx
    9030:	48 c7 44 24 28 00 00 	movq   $0x0,0x28(%rsp)
    9037:	00 00 
    9039:	48 c7 44 24 20 00 00 	movq   $0x0,0x20(%rsp)
    9040:	00 00 
    9042:	48 c7 44 24 08 00 00 	movq   $0x0,0x8(%rsp)
    9049:	00 00 
    904b:	4d 85 ed             	test   %r13,%r13
    904e:	74 0b                	je     905b <__pyx_pw_8funnybug_1solve+0x6eb>
    9050:	49 83 6d 00 01       	subq   $0x1,0x0(%r13)
    9055:	0f 84 05 04 00 00    	je     9460 <__pyx_pw_8funnybug_1solve+0xaf0>
    905b:	4d 85 c0             	test   %r8,%r8
    905e:	74 0a                	je     906a <__pyx_pw_8funnybug_1solve+0x6fa>
    9060:	49 83 28 01          	subq   $0x1,(%r8)
    9064:	0f 84 96 02 00 00    	je     9300 <__pyx_pw_8funnybug_1solve+0x990>
    906a:	4d 85 db             	test   %r11,%r11
    906d:	74 0a                	je     9079 <__pyx_pw_8funnybug_1solve+0x709>
    906f:	49 83 2b 01          	subq   $0x1,(%r11)
    9073:	0f 84 cf 02 00 00    	je     9348 <__pyx_pw_8funnybug_1solve+0x9d8>
    9079:	4d 85 d2             	test   %r10,%r10
    907c:	74 0a                	je     9088 <__pyx_pw_8funnybug_1solve+0x718>
    907e:	49 83 2a 01          	subq   $0x1,(%r10)
    9082:	0f 84 00 03 00 00    	je     9388 <__pyx_pw_8funnybug_1solve+0xa18>
    9088:	4d 85 c9             	test   %r9,%r9
    908b:	74 0a                	je     9097 <__pyx_pw_8funnybug_1solve+0x727>
    908d:	49 83 29 01          	subq   $0x1,(%r9)
    9091:	0f 84 29 03 00 00    	je     93c0 <__pyx_pw_8funnybug_1solve+0xa50>
    9097:	48 85 c9             	test   %rcx,%rcx
    909a:	74 0a                	je     90a6 <__pyx_pw_8funnybug_1solve+0x736>
    909c:	48 83 29 01          	subq   $0x1,(%rcx)
    90a0:	0f 84 4a 03 00 00    	je     93f0 <__pyx_pw_8funnybug_1solve+0xa80>
    90a6:	48 8d 0d dc 36 00 00 	lea    0x36dc(%rip),%rcx        # c789 <_fini+0xa11>
    90ad:	48 8d 3d 16 37 00 00 	lea    0x3716(%rip),%rdi        # c7ca <_fini+0xa52>
    90b4:	e8 f7 e5 ff ff       	call   76b0 <__Pyx_AddTraceback>
    90b9:	4d 85 ff             	test   %r15,%r15
    90bc:	74 0f                	je     90cd <__pyx_pw_8funnybug_1solve+0x75d>
    90be:	31 d2                	xor    %edx,%edx
    90c0:	49 83 2f 01          	subq   $0x1,(%r15)
    90c4:	0f 84 46 03 00 00    	je     9410 <__pyx_pw_8funnybug_1solve+0xaa0>
    90ca:	49 89 d7             	mov    %rdx,%r15
    90cd:	48 8b 4c 24 08       	mov    0x8(%rsp),%rcx
    90d2:	48 85 c9             	test   %rcx,%rcx
    90d5:	74 15                	je     90ec <__pyx_pw_8funnybug_1solve+0x77c>
    90d7:	48 8b 01             	mov    (%rcx),%rax
    90da:	48 89 44 24 38       	mov    %rax,0x38(%rsp)
    90df:	48 83 e8 01          	sub    $0x1,%rax
    90e3:	48 89 01             	mov    %rax,(%rcx)
    90e6:	0f 84 44 03 00 00    	je     9430 <__pyx_pw_8funnybug_1solve+0xac0>
    90ec:	4d 85 f6             	test   %r14,%r14
    90ef:	74 0a                	je     90fb <__pyx_pw_8funnybug_1solve+0x78b>
    90f1:	49 83 2e 01          	subq   $0x1,(%r14)
    90f5:	0f 84 45 03 00 00    	je     9440 <__pyx_pw_8funnybug_1solve+0xad0>
    90fb:	4d 85 e4             	test   %r12,%r12
    90fe:	74 0b                	je     910b <__pyx_pw_8funnybug_1solve+0x79b>
    9100:	49 83 2c 24 01       	subq   $0x1,(%r12)
    9105:	0f 84 a5 03 00 00    	je     94b0 <__pyx_pw_8funnybug_1solve+0xb40>
    910b:	48 8b 7c 24 20       	mov    0x20(%rsp),%rdi
    9110:	48 85 ff             	test   %rdi,%rdi
    9113:	74 15                	je     912a <__pyx_pw_8funnybug_1solve+0x7ba>
    9115:	48 8b 07             	mov    (%rdi),%rax
    9118:	48 89 44 24 08       	mov    %rax,0x8(%rsp)
    911d:	48 83 e8 01          	sub    $0x1,%rax
    9121:	48 89 07             	mov    %rax,(%rdi)
    9124:	0f 84 96 03 00 00    	je     94c0 <__pyx_pw_8funnybug_1solve+0xb50>
    912a:	48 8b 4c 24 28       	mov    0x28(%rsp),%rcx
    912f:	48 85 c9             	test   %rcx,%rcx
    9132:	74 15                	je     9149 <__pyx_pw_8funnybug_1solve+0x7d9>
    9134:	48 8b 01             	mov    (%rcx),%rax
    9137:	48 89 44 24 08       	mov    %rax,0x8(%rsp)
    913c:	48 83 e8 01          	sub    $0x1,%rax
    9140:	48 89 01             	mov    %rax,(%rcx)
    9143:	0f 84 87 03 00 00    	je     94d0 <__pyx_pw_8funnybug_1solve+0xb60>
    9149:	48 85 ed             	test   %rbp,%rbp
    914c:	74 0b                	je     9159 <__pyx_pw_8funnybug_1solve+0x7e9>
    914e:	48 83 6d 00 01       	subq   $0x1,0x0(%rbp)
    9153:	0f 84 87 03 00 00    	je     94e0 <__pyx_pw_8funnybug_1solve+0xb70>
    9159:	48 8b 74 24 30       	mov    0x30(%rsp),%rsi
    915e:	48 85 f6             	test   %rsi,%rsi
    9161:	74 15                	je     9178 <__pyx_pw_8funnybug_1solve+0x808>
    9163:	48 8b 06             	mov    (%rsi),%rax
    9166:	48 89 44 24 08       	mov    %rax,0x8(%rsp)
    916b:	48 83 e8 01          	sub    $0x1,%rax
    916f:	48 89 06             	mov    %rax,(%rsi)
    9172:	0f 84 78 03 00 00    	je     94f0 <__pyx_pw_8funnybug_1solve+0xb80>
    9178:	48 8b 54 24 18       	mov    0x18(%rsp),%rdx
    917d:	48 85 d2             	test   %rdx,%rdx
    9180:	74 15                	je     9197 <__pyx_pw_8funnybug_1solve+0x827>
    9182:	48 8b 02             	mov    (%rdx),%rax
    9185:	48 89 44 24 08       	mov    %rax,0x8(%rsp)
    918a:	48 83 e8 01          	sub    $0x1,%rax
    918e:	48 89 02             	mov    %rax,(%rdx)
    9191:	0f 84 69 03 00 00    	je     9500 <__pyx_pw_8funnybug_1solve+0xb90>
    9197:	48 85 db             	test   %rbx,%rbx
    919a:	74 0a                	je     91a6 <__pyx_pw_8funnybug_1solve+0x836>
    919c:	48 83 2b 01          	subq   $0x1,(%rbx)
    91a0:	0f 84 aa 02 00 00    	je     9450 <__pyx_pw_8funnybug_1solve+0xae0>
    91a6:	48 8b 5c 24 10       	mov    0x10(%rsp),%rbx
    91ab:	48 85 db             	test   %rbx,%rbx
    91ae:	0f 84 b5 f8 ff ff    	je     8a69 <__pyx_pw_8funnybug_1solve+0xf9>
    91b4:	48 8b 03             	mov    (%rbx),%rax
    91b7:	48 89 44 24 08       	mov    %rax,0x8(%rsp)
    91bc:	48 83 e8 01          	sub    $0x1,%rax
    91c0:	48 89 03             	mov    %rax,(%rbx)
    91c3:	0f 85 a0 f8 ff ff    	jne    8a69 <__pyx_pw_8funnybug_1solve+0xf9>
    91c9:	48 89 df             	mov    %rbx,%rdi
    91cc:	e8 3f a5 ff ff       	call   3710 <_Py_Dealloc@plt>
    91d1:	e9 93 f8 ff ff       	jmp    8a69 <__pyx_pw_8funnybug_1solve+0xf9>
    91d6:	66 2e 0f 1f 84 00 00 	cs nopw 0x0(%rax,%rax,1)
    91dd:	00 00 00 
    91e0:	4c 89 f6             	mov    %r14,%rsi
    91e3:	4c 89 ef             	mov    %r13,%rdi
    91e6:	e8 05 a7 ff ff       	call   38f0 <PyList_Append@plt>
    91eb:	85 c0                	test   %eax,%eax
    91ed:	0f 84 db f9 ff ff    	je     8bce <__pyx_pw_8funnybug_1solve+0x25e>
    91f3:	4d 89 f0             	mov    %r14,%r8
    91f6:	be 81 0a 00 00       	mov    $0xa81,%esi
    91fb:	48 c7 44 24 10 00 00 	movq   $0x0,0x10(%rsp)
    9202:	00 00 
    9204:	31 c9                	xor    %ecx,%ecx
    9206:	45 31 c9             	xor    %r9d,%r9d
    9209:	31 db                	xor    %ebx,%ebx
    920b:	48 c7 44 24 18 00 00 	movq   $0x0,0x18(%rsp)
    9212:	00 00 
    9214:	ba 10 00 00 00       	mov    $0x10,%edx
    9219:	45 31 d2             	xor    %r10d,%r10d
    921c:	31 ed                	xor    %ebp,%ebp
    921e:	48 c7 44 24 30 00 00 	movq   $0x0,0x30(%rsp)
    9225:	00 00 
    9227:	45 31 db             	xor    %r11d,%r11d
    922a:	45 31 e4             	xor    %r12d,%r12d
    922d:	45 31 f6             	xor    %r14d,%r14d
    9230:	48 c7 44 24 28 00 00 	movq   $0x0,0x28(%rsp)
    9237:	00 00 
    9239:	45 31 ff             	xor    %r15d,%r15d
    923c:	48 c7 44 24 20 00 00 	movq   $0x0,0x20(%rsp)
    9243:	00 00 
    9245:	48 c7 44 24 08 00 00 	movq   $0x0,0x8(%rsp)
    924c:	00 00 
    924e:	e9 f8 fd ff ff       	jmp    904b <__pyx_pw_8funnybug_1solve+0x6db>
    9253:	0f 1f 44 00 00       	nopl   0x0(%rax,%rax,1)
    9258:	48 83 7d 10 00       	cmpq   $0x0,0x10(%rbp)
    925d:	0f 84 55 fd ff ff    	je     8fb8 <__pyx_pw_8funnybug_1solve+0x648>
    9263:	48 8b 45 18          	mov    0x18(%rbp),%rax
    9267:	4c 8b 00             	mov    (%rax),%r8
    926a:	49 83 00 01          	addq   $0x1,(%r8)
    926e:	e9 f6 f8 ff ff       	jmp    8b69 <__pyx_pw_8funnybug_1solve+0x1f9>
    9273:	0f 1f 44 00 00       	nopl   0x0(%rax,%rax,1)
    9278:	4c 89 c7             	mov    %r8,%rdi
    927b:	e8 90 a4 ff ff       	call   3710 <_Py_Dealloc@plt>
    9280:	e9 0d f9 ff ff       	jmp    8b92 <__pyx_pw_8funnybug_1solve+0x222>
    9285:	0f 1f 00             	nopl   (%rax)
    9288:	48 8b 06             	mov    (%rsi),%rax
    928b:	48 89 84 24 a0 00 00 	mov    %rax,0xa0(%rsp)
    9292:	00 
    9293:	48 8b 41 10          	mov    0x10(%rcx),%rax
    9297:	48 89 44 24 08       	mov    %rax,0x8(%rsp)
    929c:	48 89 c3             	mov    %rax,%rbx
    929f:	e9 33 fa ff ff       	jmp    8cd7 <__pyx_pw_8funnybug_1solve+0x367>
    92a4:	0f 1f 40 00          	nopl   0x0(%rax)
    92a8:	45 31 ed             	xor    %r13d,%r13d
    92ab:	eb 10                	jmp    92bd <__pyx_pw_8funnybug_1solve+0x94d>
    92ad:	0f 1f 00             	nopl   (%rax)
    92b0:	49 83 c5 01          	add    $0x1,%r13
    92b4:	49 39 dd             	cmp    %rbx,%r13
    92b7:	0f 84 83 07 00 00    	je     9a40 <__pyx_pw_8funnybug_1solve+0x10d0>
    92bd:	4b 8b 74 ee 18       	mov    0x18(%r14,%r13,8),%rsi
    92c2:	4c 89 ff             	mov    %r15,%rdi
    92c5:	e8 c6 d7 ff ff       	call   6a90 <__Pyx_PyUnicode_Equals.constprop.0>
    92ca:	85 c0                	test   %eax,%eax
    92cc:	74 e2                	je     92b0 <__pyx_pw_8funnybug_1solve+0x940>
    92ce:	0f 88 6c 07 00 00    	js     9a40 <__pyx_pw_8funnybug_1solve+0x10d0>
    92d4:	4a 8b 44 ed 00       	mov    0x0(%rbp,%r13,8),%rax
    92d9:	e9 2b fa ff ff       	jmp    8d09 <__pyx_pw_8funnybug_1solve+0x399>
    92de:	66 90                	xchg   %ax,%ax
    92e0:	48 83 7d 10 00       	cmpq   $0x0,0x10(%rbp)
    92e5:	0f 84 cd fc ff ff    	je     8fb8 <__pyx_pw_8funnybug_1solve+0x648>
    92eb:	4c 8b 45 18          	mov    0x18(%rbp),%r8
    92ef:	49 83 00 01          	addq   $0x1,(%r8)
    92f3:	e9 71 f8 ff ff       	jmp    8b69 <__pyx_pw_8funnybug_1solve+0x1f9>
    92f8:	0f 1f 84 00 00 00 00 	nopl   0x0(%rax,%rax,1)
    92ff:	00 
    9300:	4c 89 c7             	mov    %r8,%rdi
    9303:	4c 89 54 24 60       	mov    %r10,0x60(%rsp)
    9308:	89 54 24 58          	mov    %edx,0x58(%rsp)
    930c:	89 74 24 50          	mov    %esi,0x50(%rsp)
    9310:	48 89 4c 24 48       	mov    %rcx,0x48(%rsp)
    9315:	4c 89 4c 24 40       	mov    %r9,0x40(%rsp)
    931a:	4c 89 5c 24 38       	mov    %r11,0x38(%rsp)
    931f:	e8 ec a3 ff ff       	call   3710 <_Py_Dealloc@plt>
    9324:	4c 8b 54 24 60       	mov    0x60(%rsp),%r10
    9329:	8b 54 24 58          	mov    0x58(%rsp),%edx
    932d:	8b 74 24 50          	mov    0x50(%rsp),%esi
    9331:	48 8b 4c 24 48       	mov    0x48(%rsp),%rcx
    9336:	4c 8b 4c 24 40       	mov    0x40(%rsp),%r9
    933b:	4c 8b 5c 24 38       	mov    0x38(%rsp),%r11
    9340:	e9 25 fd ff ff       	jmp    906a <__pyx_pw_8funnybug_1solve+0x6fa>
    9345:	0f 1f 00             	nopl   (%rax)
    9348:	4c 89 df             	mov    %r11,%rdi
    934b:	4c 89 54 24 58       	mov    %r10,0x58(%rsp)
    9350:	89 54 24 50          	mov    %edx,0x50(%rsp)
    9354:	89 74 24 48          	mov    %esi,0x48(%rsp)
    9358:	48 89 4c 24 40       	mov    %rcx,0x40(%rsp)
    935d:	4c 89 4c 24 38       	mov    %r9,0x38(%rsp)
    9362:	e8 a9 a3 ff ff       	call   3710 <_Py_Dealloc@plt>
    9367:	4c 8b 54 24 58       	mov    0x58(%rsp),%r10
    936c:	8b 54 24 50          	mov    0x50(%rsp),%edx
    9370:	8b 74 24 48          	mov    0x48(%rsp),%esi
    9374:	48 8b 4c 24 40       	mov    0x40(%rsp),%rcx
    9379:	4c 8b 4c 24 38       	mov    0x38(%rsp),%r9
    937e:	e9 f6 fc ff ff       	jmp    9079 <__pyx_pw_8funnybug_1solve+0x709>
    9383:	0f 1f 44 00 00       	nopl   0x0(%rax,%rax,1)
    9388:	4c 89 d7             	mov    %r10,%rdi
    938b:	89 54 24 50          	mov    %edx,0x50(%rsp)
    938f:	89 74 24 48          	mov    %esi,0x48(%rsp)
    9393:	48 89 4c 24 40       	mov    %rcx,0x40(%rsp)
    9398:	4c 89 4c 24 38       	mov    %r9,0x38(%rsp)
    939d:	e8 6e a3 ff ff       	call   3710 <_Py_Dealloc@plt>
    93a2:	8b 54 24 50          	mov    0x50(%rsp),%edx
    93a6:	8b 74 24 48          	mov    0x48(%rsp),%esi
    93aa:	48 8b 4c 24 40       	mov    0x40(%rsp),%rcx
    93af:	4c 8b 4c 24 38       	mov    0x38(%rsp),%r9
    93b4:	e9 cf fc ff ff       	jmp    9088 <__pyx_pw_8funnybug_1solve+0x718>
    93b9:	0f 1f 80 00 00 00 00 	nopl   0x0(%rax)
    93c0:	4c 89 cf             	mov    %r9,%rdi
    93c3:	89 54 24 48          	mov    %edx,0x48(%rsp)
    93c7:	89 74 24 40          	mov    %esi,0x40(%rsp)
    93cb:	48 89 4c 24 38       	mov    %rcx,0x38(%rsp)
    93d0:	e8 3b a3 ff ff       	call   3710 <_Py_Dealloc@plt>
    93d5:	8b 54 24 48          	mov    0x48(%rsp),%edx
    93d9:	8b 74 24 40          	mov    0x40(%rsp),%esi
    93dd:	48 8b 4c 24 38       	mov    0x38(%rsp),%rcx
    93e2:	e9 b0 fc ff ff       	jmp    9097 <__pyx_pw_8funnybug_1solve+0x727>
    93e7:	66 0f 1f 84 00 00 00 	nopw   0x0(%rax,%rax,1)
    93ee:	00 00 
    93f0:	48 89 cf             	mov    %rcx,%rdi
    93f3:	89 54 24 40          	mov    %edx,0x40(%rsp)
    93f7:	89 74 24 38          	mov    %esi,0x38(%rsp)
    93fb:	e8 10 a3 ff ff       	call   3710 <_Py_Dealloc@plt>
    9400:	8b 54 24 40          	mov    0x40(%rsp),%edx
    9404:	8b 74 24 38          	mov    0x38(%rsp),%esi
    9408:	e9 99 fc ff ff       	jmp    90a6 <__pyx_pw_8funnybug_1solve+0x736>
    940d:	0f 1f 00             	nopl   (%rax)
    9410:	4c 89 ff             	mov    %r15,%rdi
    9413:	48 89 54 24 38       	mov    %rdx,0x38(%rsp)
    9418:	e8 f3 a2 ff ff       	call   3710 <_Py_Dealloc@plt>
    941d:	4c 8b 7c 24 38       	mov    0x38(%rsp),%r15
    9422:	e9 a6 fc ff ff       	jmp    90cd <__pyx_pw_8funnybug_1solve+0x75d>
    9427:	66 0f 1f 84 00 00 00 	nopw   0x0(%rax,%rax,1)
    942e:	00 00 
    9430:	48 89 cf             	mov    %rcx,%rdi
    9433:	e8 d8 a2 ff ff       	call   3710 <_Py_Dealloc@plt>
    9438:	e9 af fc ff ff       	jmp    90ec <__pyx_pw_8funnybug_1solve+0x77c>
    943d:	0f 1f 00             	nopl   (%rax)
    9440:	4c 89 f7             	mov    %r14,%rdi
    9443:	e8 c8 a2 ff ff       	call   3710 <_Py_Dealloc@plt>
    9448:	e9 ae fc ff ff       	jmp    90fb <__pyx_pw_8funnybug_1solve+0x78b>
    944d:	0f 1f 00             	nopl   (%rax)
    9450:	48 89 df             	mov    %rbx,%rdi
    9453:	e8 b8 a2 ff ff       	call   3710 <_Py_Dealloc@plt>
    9458:	e9 49 fd ff ff       	jmp    91a6 <__pyx_pw_8funnybug_1solve+0x836>
    945d:	0f 1f 00             	nopl   (%rax)
    9460:	4c 89 ef             	mov    %r13,%rdi
    9463:	4c 89 54 24 68       	mov    %r10,0x68(%rsp)
    9468:	4c 89 44 24 60       	mov    %r8,0x60(%rsp)
    946d:	89 54 24 58          	mov    %edx,0x58(%rsp)
    9471:	89 74 24 50          	mov    %esi,0x50(%rsp)
    9475:	48 89 4c 24 48       	mov    %rcx,0x48(%rsp)
    947a:	4c 89 4c 24 40       	mov    %r9,0x40(%rsp)
    947f:	4c 89 5c 24 38       	mov    %r11,0x38(%rsp)
    9484:	e8 87 a2 ff ff       	call   3710 <_Py_Dealloc@plt>
    9489:	4c 8b 54 24 68       	mov    0x68(%rsp),%r10
    948e:	4c 8b 44 24 60       	mov    0x60(%rsp),%r8
    9493:	8b 54 24 58          	mov    0x58(%rsp),%edx
    9497:	8b 74 24 50          	mov    0x50(%rsp),%esi
    949b:	48 8b 4c 24 48       	mov    0x48(%rsp),%rcx
    94a0:	4c 8b 4c 24 40       	mov    0x40(%rsp),%r9
    94a5:	4c 8b 5c 24 38       	mov    0x38(%rsp),%r11
    94aa:	e9 ac fb ff ff       	jmp    905b <__pyx_pw_8funnybug_1solve+0x6eb>
    94af:	90                   	nop
    94b0:	4c 89 e7             	mov    %r12,%rdi
    94b3:	e8 58 a2 ff ff       	call   3710 <_Py_Dealloc@plt>
    94b8:	e9 4e fc ff ff       	jmp    910b <__pyx_pw_8funnybug_1solve+0x79b>
    94bd:	0f 1f 00             	nopl   (%rax)
    94c0:	e8 4b a2 ff ff       	call   3710 <_Py_Dealloc@plt>
    94c5:	e9 60 fc ff ff       	jmp    912a <__pyx_pw_8funnybug_1solve+0x7ba>
    94ca:	66 0f 1f 44 00 00    	nopw   0x0(%rax,%rax,1)
    94d0:	48 89 cf             	mov    %rcx,%rdi
    94d3:	e8 38 a2 ff ff       	call   3710 <_Py_Dealloc@plt>
    94d8:	e9 6c fc ff ff       	jmp    9149 <__pyx_pw_8funnybug_1solve+0x7d9>
    94dd:	0f 1f 00             	nopl   (%rax)
    94e0:	48 89 ef             	mov    %rbp,%rdi
    94e3:	e8 28 a2 ff ff       	call   3710 <_Py_Dealloc@plt>
    94e8:	e9 6c fc ff ff       	jmp    9159 <__pyx_pw_8funnybug_1solve+0x7e9>
    94ed:	0f 1f 00             	nopl   (%rax)
    94f0:	48 89 f7             	mov    %rsi,%rdi
    94f3:	e8 18 a2 ff ff       	call   3710 <_Py_Dealloc@plt>
    94f8:	e9 7b fc ff ff       	jmp    9178 <__pyx_pw_8funnybug_1solve+0x808>
    94fd:	0f 1f 00             	nopl   (%rax)
    9500:	48 89 d7             	mov    %rdx,%rdi
    9503:	e8 08 a2 ff ff       	call   3710 <_Py_Dealloc@plt>
    9508:	e9 8a fc ff ff       	jmp    9197 <__pyx_pw_8funnybug_1solve+0x827>
    950d:	0f 1f 00             	nopl   (%rax)
    9510:	4c 89 f7             	mov    %r14,%rdi
    9513:	e8 f8 a1 ff ff       	call   3710 <_Py_Dealloc@plt>
    9518:	e9 79 f9 ff ff       	jmp    8e96 <__pyx_pw_8funnybug_1solve+0x526>
    951d:	0f 1f 00             	nopl   (%rax)
    9520:	31 d2                	xor    %edx,%edx
    9522:	4c 89 64 24 08       	mov    %r12,0x8(%rsp)
    9527:	4d 89 f4             	mov    %r14,%r12
    952a:	49 89 ee             	mov    %rbp,%r14
    952d:	4c 89 fd             	mov    %r15,%rbp
    9530:	49 89 d7             	mov    %rdx,%r15
    9533:	eb 10                	jmp    9545 <__pyx_pw_8funnybug_1solve+0xbd5>
    9535:	0f 1f 00             	nopl   (%rax)
    9538:	49 83 c7 01          	add    $0x1,%r15
    953c:	4d 39 ef             	cmp    %r13,%r15
    953f:	0f 84 6b 08 00 00    	je     9db0 <__pyx_pw_8funnybug_1solve+0x1440>
    9545:	4b 8b 74 fc 18       	mov    0x18(%r12,%r15,8),%rsi
    954a:	48 89 ef             	mov    %rbp,%rdi
    954d:	e8 3e d5 ff ff       	call   6a90 <__Pyx_PyUnicode_Equals.constprop.0>
    9552:	85 c0                	test   %eax,%eax
    9554:	74 e2                	je     9538 <__pyx_pw_8funnybug_1solve+0xbc8>
    9556:	4c 89 f5             	mov    %r14,%rbp
    9559:	4d 89 e6             	mov    %r12,%r14
    955c:	4c 8b 64 24 08       	mov    0x8(%rsp),%r12
    9561:	0f 88 49 08 00 00    	js     9db0 <__pyx_pw_8funnybug_1solve+0x1440>
    9567:	4a 8b 44 fd 00       	mov    0x0(%rbp,%r15,8),%rax
    956c:	e9 48 f7 ff ff       	jmp    8cb9 <__pyx_pw_8funnybug_1solve+0x349>
    9571:	0f 1f 80 00 00 00 00 	nopl   0x0(%rax)
    9578:	4c 89 cf             	mov    %r9,%rdi
    957b:	e8 90 a1 ff ff       	call   3710 <_Py_Dealloc@plt>
    9580:	e9 97 f9 ff ff       	jmp    8f1c <__pyx_pw_8funnybug_1solve+0x5ac>
    9585:	0f 1f 00             	nopl   (%rax)
    9588:	48 c7 44 24 10 00 00 	movq   $0x0,0x10(%rsp)
    958f:	00 00 
    9591:	31 c9                	xor    %ecx,%ecx
    9593:	45 31 c9             	xor    %r9d,%r9d
    9596:	31 db                	xor    %ebx,%ebx
    9598:	48 c7 44 24 18 00 00 	movq   $0x0,0x18(%rsp)
    959f:	00 00 
    95a1:	45 31 d2             	xor    %r10d,%r10d
    95a4:	31 ed                	xor    %ebp,%ebp
    95a6:	45 31 e4             	xor    %r12d,%r12d
    95a9:	48 c7 44 24 30 00 00 	movq   $0x0,0x30(%rsp)
    95b0:	00 00 
    95b2:	45 31 f6             	xor    %r14d,%r14d
    95b5:	45 31 ff             	xor    %r15d,%r15d
    95b8:	be 76 0a 00 00       	mov    $0xa76,%esi
    95bd:	48 c7 44 24 28 00 00 	movq   $0x0,0x28(%rsp)
    95c4:	00 00 
    95c6:	ba 10 00 00 00       	mov    $0x10,%edx
    95cb:	48 c7 44 24 20 00 00 	movq   $0x0,0x20(%rsp)
    95d2:	00 00 
    95d4:	48 c7 44 24 08 00 00 	movq   $0x0,0x8(%rsp)
    95db:	00 00 
    95dd:	e9 97 fa ff ff       	jmp    9079 <__pyx_pw_8funnybug_1solve+0x709>
    95e2:	66 0f 1f 44 00 00    	nopw   0x0(%rax,%rax,1)
    95e8:	be 7a 0a 00 00       	mov    $0xa7a,%esi
    95ed:	e9 09 fc ff ff       	jmp    91fb <__pyx_pw_8funnybug_1solve+0x88b>
    95f2:	66 0f 1f 44 00 00    	nopw   0x0(%rax,%rax,1)
    95f8:	4c 89 cf             	mov    %r9,%rdi
    95fb:	e8 10 a1 ff ff       	call   3710 <_Py_Dealloc@plt>
    9600:	e9 6c f8 ff ff       	jmp    8e71 <__pyx_pw_8funnybug_1solve+0x501>
    9605:	0f 1f 00             	nopl   (%rax)
    9608:	4c 89 c7             	mov    %r8,%rdi
    960b:	4c 89 4c 24 38       	mov    %r9,0x38(%rsp)
    9610:	e8 fb a0 ff ff       	call   3710 <_Py_Dealloc@plt>
    9615:	4c 8b 4c 24 38       	mov    0x38(%rsp),%r9
    961a:	e9 3f f8 ff ff       	jmp    8e5e <__pyx_pw_8funnybug_1solve+0x4ee>
    961f:	90                   	nop
    9620:	48 85 c9             	test   %rcx,%rcx
    9623:	74 2b                	je     9650 <__pyx_pw_8funnybug_1solve+0xce0>
    9625:	48 83 79 18 00       	cmpq   $0x0,0x18(%rcx)
    962a:	74 24                	je     9650 <__pyx_pw_8funnybug_1solve+0xce0>
    962c:	e8 9f d6 ff ff       	call   6cd0 <__Pyx_PyObject_GetIndex>
    9631:	49 89 c1             	mov    %rax,%r9
    9634:	e9 8a f8 ff ff       	jmp    8ec3 <__pyx_pw_8funnybug_1solve+0x553>
    9639:	48 89 ef             	mov    %rbp,%rdi
    963c:	4c 89 4c 24 18       	mov    %r9,0x18(%rsp)
    9641:	e8 ca a0 ff ff       	call   3710 <_Py_Dealloc@plt>
    9646:	4c 8b 4c 24 18       	mov    0x18(%rsp),%r9
    964b:	e9 6e f7 ff ff       	jmp    8dbe <__pyx_pw_8funnybug_1solve+0x44e>
    9650:	e8 0b f2 ff ff       	call   8860 <__Pyx_PyObject_GetItem_Slow>
    9655:	49 89 c1             	mov    %rax,%r9
    9658:	e9 66 f8 ff ff       	jmp    8ec3 <__pyx_pw_8funnybug_1solve+0x553>
    965d:	48 8b 7c 24 08       	mov    0x8(%rsp),%rdi
    9662:	4c 89 4c 24 18       	mov    %r9,0x18(%rsp)
    9667:	e8 d4 a3 ff ff       	call   3a40 <PyObject_GetIter@plt>
    966c:	4c 8b 4c 24 18       	mov    0x18(%rsp),%r9
    9671:	48 85 c0             	test   %rax,%rax
    9674:	48 89 c5             	mov    %rax,%rbp
    9677:	0f 84 f2 15 00 00    	je     ac6f <__pyx_pw_8funnybug_1solve+0x22ff>
    967d:	48 8b 40 08          	mov    0x8(%rax),%rax
    9681:	48 8b 80 e0 00 00 00 	mov    0xe0(%rax),%rax
    9688:	48 89 44 24 18       	mov    %rax,0x18(%rsp)
    968d:	48 85 c0             	test   %rax,%rax
    9690:	0f 84 a9 15 00 00    	je     ac3f <__pyx_pw_8funnybug_1solve+0x22cf>
    9696:	48 c7 c3 ff ff ff ff 	mov    $0xffffffffffffffff,%rbx
    969d:	e9 5d f7 ff ff       	jmp    8dff <__pyx_pw_8funnybug_1solve+0x48f>
    96a2:	66 0f 1f 44 00 00    	nopw   0x0(%rax,%rax,1)
    96a8:	49 8b 46 08          	mov    0x8(%r14),%rax
    96ac:	31 ff                	xor    %edi,%edi
    96ae:	48 8d 9c 24 b0 00 00 	lea    0xb0(%rsp),%rbx
    96b5:	00 
    96b6:	48 c7 84 24 90 00 00 	movq   $0x0,0x90(%rsp)
    96bd:	00 00 00 00 00 
    96c2:	48 c7 84 24 98 00 00 	movq   $0x0,0x98(%rsp)
    96c9:	00 00 00 00 00 
    96ce:	4e 8d 3c 23          	lea    (%rbx,%r12,1),%r15
    96d2:	4c 8b a0 a8 00 00 00 	mov    0xa8(%rax),%r12
    96d9:	48 8d 84 24 90 00 00 	lea    0x90(%rsp),%rax
    96e0:	00 
    96e1:	48 89 44 24 08       	mov    %rax,0x8(%rsp)
    96e6:	41 81 e4 00 00 00 04 	and    $0x4000000,%r12d
    96ed:	0f 1f 00             	nopl   (%rax)
    96f0:	48 c7 84 24 88 00 00 	movq   $0x0,0x88(%rsp)
    96f7:	00 00 00 00 00 
    96fc:	48 85 ff             	test   %rdi,%rdi
    96ff:	74 0a                	je     970b <__pyx_pw_8funnybug_1solve+0xd9b>
    9701:	48 83 2f 01          	subq   $0x1,(%rdi)
    9705:	0f 84 25 01 00 00    	je     9830 <__pyx_pw_8funnybug_1solve+0xec0>
    970b:	48 c7 84 24 90 00 00 	movq   $0x0,0x90(%rsp)
    9712:	00 00 00 00 00 
    9717:	4d 85 e4             	test   %r12,%r12
    971a:	0f 84 40 02 00 00    	je     9960 <__pyx_pw_8funnybug_1solve+0xff0>
    9720:	48 8b 84 24 98 00 00 	mov    0x98(%rsp),%rax
    9727:	00 
    9728:	49 39 46 10          	cmp    %rax,0x10(%r14)
    972c:	0f 8e 52 0c 00 00    	jle    a384 <__pyx_pw_8funnybug_1solve+0x1a14>
    9732:	49 8b 74 c6 18       	mov    0x18(%r14,%rax,8),%rsi
    9737:	48 8b 7c c5 00       	mov    0x0(%rbp,%rax,8),%rdi
    973c:	48 83 c0 01          	add    $0x1,%rax
    9740:	48 89 84 24 98 00 00 	mov    %rax,0x98(%rsp)
    9747:	00 
    9748:	48 89 b4 24 88 00 00 	mov    %rsi,0x88(%rsp)
    974f:	00 
    9750:	48 89 bc 24 90 00 00 	mov    %rdi,0x90(%rsp)
    9757:	00 
    9758:	49 8b 0f             	mov    (%r15),%rcx
    975b:	48 85 c9             	test   %rcx,%rcx
    975e:	0f 84 ac 05 00 00    	je     9d10 <__pyx_pw_8funnybug_1solve+0x13a0>
    9764:	48 89 ca             	mov    %rcx,%rdx
    9767:	4c 89 f8             	mov    %r15,%rax
    976a:	eb 11                	jmp    977d <__pyx_pw_8funnybug_1solve+0xe0d>
    976c:	0f 1f 40 00          	nopl   0x0(%rax)
    9770:	48 8b 50 08          	mov    0x8(%rax),%rdx
    9774:	48 83 c0 08          	add    $0x8,%rax
    9778:	48 85 d2             	test   %rdx,%rdx
    977b:	74 23                	je     97a0 <__pyx_pw_8funnybug_1solve+0xe30>
    977d:	48 39 32             	cmp    %rsi,(%rdx)
    9780:	75 ee                	jne    9770 <__pyx_pw_8funnybug_1solve+0xe00>
    9782:	48 c7 84 24 90 00 00 	movq   $0x0,0x90(%rsp)
    9789:	00 00 00 00 00 
    978e:	48 29 d8             	sub    %rbx,%rax
    9791:	48 89 bc 04 a0 00 00 	mov    %rdi,0xa0(%rsp,%rax,1)
    9798:	00 
    9799:	31 ff                	xor    %edi,%edi
    979b:	e9 50 ff ff ff       	jmp    96f0 <__pyx_pw_8funnybug_1solve+0xd80>
    97a0:	48 8b 46 08          	mov    0x8(%rsi),%rax
    97a4:	48 83 06 01          	addq   $0x1,(%rsi)
    97a8:	48 83 07 01          	addq   $0x1,(%rdi)
    97ac:	f6 80 ab 00 00 00 10 	testb  $0x10,0xab(%rax)
    97b3:	0f 84 70 05 00 00    	je     9d29 <__pyx_pw_8funnybug_1solve+0x13b9>
    97b9:	4d 89 fd             	mov    %r15,%r13
    97bc:	eb 13                	jmp    97d1 <__pyx_pw_8funnybug_1solve+0xe61>
    97be:	66 90                	xchg   %ax,%ax
    97c0:	49 8b 4d 08          	mov    0x8(%r13),%rcx
    97c4:	49 83 c5 08          	add    $0x8,%r13
    97c8:	48 85 c9             	test   %rcx,%rcx
    97cb:	0f 84 ef 00 00 00    	je     98c0 <__pyx_pw_8funnybug_1solve+0xf50>
    97d1:	48 8b 39             	mov    (%rcx),%rdi
    97d4:	48 8b 46 10          	mov    0x10(%rsi),%rax
    97d8:	48 39 47 10          	cmp    %rax,0x10(%rdi)
    97dc:	75 e2                	jne    97c0 <__pyx_pw_8funnybug_1solve+0xe50>
    97de:	e8 fd a1 ff ff       	call   39e0 <PyUnicode_Compare@plt>
    97e3:	85 c0                	test   %eax,%eax
    97e5:	78 59                	js     9840 <__pyx_pw_8funnybug_1solve+0xed0>
    97e7:	48 8b b4 24 88 00 00 	mov    0x88(%rsp),%rsi
    97ee:	00 
    97ef:	75 cf                	jne    97c0 <__pyx_pw_8funnybug_1solve+0xe50>
    97f1:	48 8b bc 24 90 00 00 	mov    0x90(%rsp),%rdi
    97f8:	00 
    97f9:	4c 89 ea             	mov    %r13,%rdx
    97fc:	48 29 da             	sub    %rbx,%rdx
    97ff:	48 89 bc 14 a0 00 00 	mov    %rdi,0xa0(%rsp,%rdx,1)
    9806:	00 
    9807:	48 85 f6             	test   %rsi,%rsi
    980a:	0f 84 e0 fe ff ff    	je     96f0 <__pyx_pw_8funnybug_1solve+0xd80>
    9810:	48 83 2e 01          	subq   $0x1,(%rsi)
    9814:	0f 85 d6 fe ff ff    	jne    96f0 <__pyx_pw_8funnybug_1solve+0xd80>
    981a:	48 89 f7             	mov    %rsi,%rdi
    981d:	e8 ee 9e ff ff       	call   3710 <_Py_Dealloc@plt>
    9822:	48 8b bc 24 90 00 00 	mov    0x90(%rsp),%rdi
    9829:	00 
    982a:	e9 c1 fe ff ff       	jmp    96f0 <__pyx_pw_8funnybug_1solve+0xd80>
    982f:	90                   	nop
    9830:	e8 db 9e ff ff       	call   3710 <_Py_Dealloc@plt>
    9835:	e9 d1 fe ff ff       	jmp    970b <__pyx_pw_8funnybug_1solve+0xd9b>
    983a:	66 0f 1f 44 00 00    	nopw   0x0(%rax,%rax,1)
    9840:	e8 eb a0 ff ff       	call   3930 <PyErr_Occurred@plt>
    9845:	48 85 c0             	test   %rax,%rax
    9848:	0f 85 d2 00 00 00    	jne    9920 <__pyx_pw_8funnybug_1solve+0xfb0>
    984e:	48 8b b4 24 88 00 00 	mov    0x88(%rsp),%rsi
    9855:	00 
    9856:	e9 65 ff ff ff       	jmp    97c0 <__pyx_pw_8funnybug_1solve+0xe50>
    985b:	0f 1f 44 00 00       	nopl   0x0(%rax,%rax,1)
    9860:	48 c7 44 24 10 00 00 	movq   $0x0,0x10(%rsp)
    9867:	00 00 
    9869:	31 c9                	xor    %ecx,%ecx
    986b:	45 31 c9             	xor    %r9d,%r9d
    986e:	31 db                	xor    %ebx,%ebx
    9870:	48 c7 44 24 18 00 00 	movq   $0x0,0x18(%rsp)
    9877:	00 00 
    9879:	45 31 d2             	xor    %r10d,%r10d
    987c:	45 31 db             	xor    %r11d,%r11d
    987f:	31 ed                	xor    %ebp,%ebp
    9881:	48 c7 44 24 30 00 00 	movq   $0x0,0x30(%rsp)
    9888:	00 00 
    988a:	45 31 e4             	xor    %r12d,%r12d
    988d:	45 31 f6             	xor    %r14d,%r14d
    9890:	45 31 ff             	xor    %r15d,%r15d
    9893:	48 c7 44 24 28 00 00 	movq   $0x0,0x28(%rsp)
    989a:	00 00 
    989c:	be 78 0a 00 00       	mov    $0xa78,%esi
    98a1:	ba 10 00 00 00       	mov    $0x10,%edx
    98a6:	48 c7 44 24 20 00 00 	movq   $0x0,0x20(%rsp)
    98ad:	00 00 
    98af:	48 c7 44 24 08 00 00 	movq   $0x0,0x8(%rsp)
    98b6:	00 00 
    98b8:	e9 8e f7 ff ff       	jmp    904b <__pyx_pw_8funnybug_1solve+0x6db>
    98bd:	0f 1f 00             	nopl   (%rax)
    98c0:	49 39 df             	cmp    %rbx,%r15
    98c3:	0f 84 0b 05 00 00    	je     9dd4 <__pyx_pw_8funnybug_1solve+0x1464>
    98c9:	48 8d 05 10 62 00 00 	lea    0x6210(%rip),%rax        # fae0 <__pyx_mstate_global_static+0x100>
    98d0:	eb 24                	jmp    98f6 <__pyx_pw_8funnybug_1solve+0xf86>
    98d2:	66 0f 1f 44 00 00    	nopw   0x0(%rax,%rax,1)
    98d8:	48 8b 46 10          	mov    0x10(%rsi),%rax
    98dc:	48 39 47 10          	cmp    %rax,0x10(%rdi)
    98e0:	0f 84 30 01 00 00    	je     9a16 <__pyx_pw_8funnybug_1solve+0x10a6>
    98e6:	48 83 c3 08          	add    $0x8,%rbx
    98ea:	49 39 df             	cmp    %rbx,%r15
    98ed:	0f 84 e1 04 00 00    	je     9dd4 <__pyx_pw_8funnybug_1solve+0x1464>
    98f3:	48 8b 03             	mov    (%rbx),%rax
    98f6:	48 8b 38             	mov    (%rax),%rdi
    98f9:	48 39 f7             	cmp    %rsi,%rdi
    98fc:	75 da                	jne    98d8 <__pyx_pw_8funnybug_1solve+0xf68>
    98fe:	48 8b 05 53 56 00 00 	mov    0x5653(%rip),%rax        # ef58 <PyExc_TypeError@Base>
    9905:	48 89 f1             	mov    %rsi,%rcx
    9908:	48 8d 15 c4 2e 00 00 	lea    0x2ec4(%rip),%rdx        # c7d3 <_fini+0xa5b>
    990f:	48 8d 35 32 2c 00 00 	lea    0x2c32(%rip),%rsi        # c548 <_fini+0x7d0>
    9916:	48 8b 38             	mov    (%rax),%rdi
    9919:	31 c0                	xor    %eax,%eax
    991b:	e8 70 a1 ff ff       	call   3a90 <PyErr_Format@plt>
    9920:	48 8b bc 24 88 00 00 	mov    0x88(%rsp),%rdi
    9927:	00 
    9928:	48 85 ff             	test   %rdi,%rdi
    992b:	74 0a                	je     9937 <__pyx_pw_8funnybug_1solve+0xfc7>
    992d:	48 83 2f 01          	subq   $0x1,(%rdi)
    9931:	0f 84 97 0a 00 00    	je     a3ce <__pyx_pw_8funnybug_1solve+0x1a5e>
    9937:	48 8b bc 24 90 00 00 	mov    0x90(%rsp),%rdi
    993e:	00 
    993f:	48 85 ff             	test   %rdi,%rdi
    9942:	74 0a                	je     994e <__pyx_pw_8funnybug_1solve+0xfde>
    9944:	48 83 2f 01          	subq   $0x1,(%rdi)
    9948:	0f 84 76 0a 00 00    	je     a3c4 <__pyx_pw_8funnybug_1solve+0x1a54>
    994e:	be 23 0a 00 00       	mov    $0xa23,%esi
    9953:	e9 f6 f0 ff ff       	jmp    8a4e <__pyx_pw_8funnybug_1solve+0xde>
    9958:	0f 1f 84 00 00 00 00 	nopl   0x0(%rax,%rax,1)
    995f:	00 
    9960:	48 8b 4c 24 08       	mov    0x8(%rsp),%rcx
    9965:	48 8d 94 24 88 00 00 	lea    0x88(%rsp),%rdx
    996c:	00 
    996d:	48 8d b4 24 98 00 00 	lea    0x98(%rsp),%rsi
    9974:	00 
    9975:	4c 89 f7             	mov    %r14,%rdi
    9978:	e8 83 a0 ff ff       	call   3a00 <PyDict_Next@plt>
    997d:	85 c0                	test   %eax,%eax
    997f:	0f 84 73 0e 00 00    	je     a7f8 <__pyx_pw_8funnybug_1solve+0x1e88>
    9985:	48 8b b4 24 88 00 00 	mov    0x88(%rsp),%rsi
    998c:	00 
    998d:	48 8b bc 24 90 00 00 	mov    0x90(%rsp),%rdi
    9994:	00 
    9995:	e9 be fd ff ff       	jmp    9758 <__pyx_pw_8funnybug_1solve+0xde8>
    999a:	66 0f 1f 44 00 00    	nopw   0x0(%rax,%rax,1)
    99a0:	4c 89 cf             	mov    %r9,%rdi
    99a3:	4c 89 e6             	mov    %r12,%rsi
    99a6:	4c 89 4c 24 38       	mov    %r9,0x38(%rsp)
    99ab:	e8 40 9f ff ff       	call   38f0 <PyList_Append@plt>
    99b0:	4c 8b 4c 24 38       	mov    0x38(%rsp),%r9
    99b5:	85 c0                	test   %eax,%eax
    99b7:	0f 89 55 f5 ff ff    	jns    8f12 <__pyx_pw_8funnybug_1solve+0x5a2>
    99bd:	49 89 eb             	mov    %rbp,%r11
    99c0:	48 8b 6c 24 20       	mov    0x20(%rsp),%rbp
    99c5:	4d 89 ca             	mov    %r9,%r10
    99c8:	4d 89 ef             	mov    %r13,%r15
    99cb:	49 89 d8             	mov    %rbx,%r8
    99ce:	be 16 0b 00 00       	mov    $0xb16,%esi
    99d3:	ba 14 00 00 00       	mov    $0x14,%edx
    99d8:	31 c9                	xor    %ecx,%ecx
    99da:	49 89 ed             	mov    %rbp,%r13
    99dd:	45 31 c9             	xor    %r9d,%r9d
    99e0:	48 c7 44 24 10 00 00 	movq   $0x0,0x10(%rsp)
    99e7:	00 00 
    99e9:	31 db                	xor    %ebx,%ebx
    99eb:	31 ed                	xor    %ebp,%ebp
    99ed:	48 c7 44 24 18 00 00 	movq   $0x0,0x18(%rsp)
    99f4:	00 00 
    99f6:	48 c7 44 24 30 00 00 	movq   $0x0,0x30(%rsp)
    99fd:	00 00 
    99ff:	48 c7 44 24 28 00 00 	movq   $0x0,0x28(%rsp)
    9a06:	00 00 
    9a08:	48 c7 44 24 20 00 00 	movq   $0x0,0x20(%rsp)
    9a0f:	00 00 
    9a11:	e9 35 f6 ff ff       	jmp    904b <__pyx_pw_8funnybug_1solve+0x6db>
    9a16:	e8 c5 9f ff ff       	call   39e0 <PyUnicode_Compare@plt>
    9a1b:	85 c0                	test   %eax,%eax
    9a1d:	0f 88 50 05 00 00    	js     9f73 <__pyx_pw_8funnybug_1solve+0x1603>
    9a23:	48 8b b4 24 88 00 00 	mov    0x88(%rsp),%rsi
    9a2a:	00 
    9a2b:	0f 85 b5 fe ff ff    	jne    98e6 <__pyx_pw_8funnybug_1solve+0xf76>
    9a31:	e9 c8 fe ff ff       	jmp    98fe <__pyx_pw_8funnybug_1solve+0xf8e>
    9a36:	66 2e 0f 1f 84 00 00 	cs nopw 0x0(%rax,%rax,1)
    9a3d:	00 00 00 
    9a40:	e8 eb 9e ff ff       	call   3930 <PyErr_Occurred@plt>
    9a45:	48 85 c0             	test   %rax,%rax
    9a48:	0f 85 ad 0a 00 00    	jne    a4fb <__pyx_pw_8funnybug_1solve+0x1b8b>
    9a4e:	48 83 ec 08          	sub    $0x8,%rsp
    9a52:	48 8b 05 ff 54 00 00 	mov    0x54ff(%rip),%rax        # ef58 <PyExc_TypeError@Base>
    9a59:	41 b8 02 00 00 00    	mov    $0x2,%r8d
    9a5f:	48 8d 35 a2 2a 00 00 	lea    0x2aa2(%rip),%rsi        # c508 <_fini+0x790>
    9a66:	6a 01                	push   $0x1
    9a68:	4c 8d 0d b1 2c 00 00 	lea    0x2cb1(%rip),%r9        # c720 <_fini+0x9a8>
    9a6f:	48 8d 0d 47 2d 00 00 	lea    0x2d47(%rip),%rcx        # c7bd <_fini+0xa45>
    9a76:	48 8b 38             	mov    (%rax),%rdi
    9a79:	48 8d 15 53 2d 00 00 	lea    0x2d53(%rip),%rdx        # c7d3 <_fini+0xa5b>
    9a80:	31 c0                	xor    %eax,%eax
    9a82:	e8 09 a0 ff ff       	call   3a90 <PyErr_Format@plt>
    9a87:	5f                   	pop    %rdi
    9a88:	be 1e 0a 00 00       	mov    $0xa1e,%esi
    9a8d:	41 58                	pop    %r8
    9a8f:	e9 ba ef ff ff       	jmp    8a4e <__pyx_pw_8funnybug_1solve+0xde>
    9a94:	49 89 eb             	mov    %rbp,%r11
    9a97:	48 8b 6c 24 20       	mov    0x20(%rsp),%rbp
    9a9c:	4d 89 ef             	mov    %r13,%r15
    9a9f:	31 c9                	xor    %ecx,%ecx
    9aa1:	48 c7 44 24 10 00 00 	movq   $0x0,0x10(%rsp)
    9aa8:	00 00 
    9aaa:	45 31 c9             	xor    %r9d,%r9d
    9aad:	45 31 d2             	xor    %r10d,%r10d
    9ab0:	31 db                	xor    %ebx,%ebx
    9ab2:	49 89 ed             	mov    %rbp,%r13
    9ab5:	4d 89 f0             	mov    %r14,%r8
    9ab8:	31 ed                	xor    %ebp,%ebp
    9aba:	be 07 0b 00 00       	mov    $0xb07,%esi
    9abf:	48 c7 44 24 18 00 00 	movq   $0x0,0x18(%rsp)
    9ac6:	00 00 
    9ac8:	ba 13 00 00 00       	mov    $0x13,%edx
    9acd:	48 c7 44 24 30 00 00 	movq   $0x0,0x30(%rsp)
    9ad4:	00 00 
    9ad6:	48 c7 44 24 28 00 00 	movq   $0x0,0x28(%rsp)
    9add:	00 00 
    9adf:	48 c7 44 24 20 00 00 	movq   $0x0,0x20(%rsp)
    9ae6:	00 00 
    9ae8:	e9 5e f5 ff ff       	jmp    904b <__pyx_pw_8funnybug_1solve+0x6db>
    9aed:	4c 39 f8             	cmp    %r15,%rax
    9af0:	0f 8e e2 08 00 00    	jle    a3d8 <__pyx_pw_8funnybug_1solve+0x1a68>
    9af6:	4e 8b 64 fd 18       	mov    0x18(%rbp,%r15,8),%r12
    9afb:	49 83 c7 01          	add    $0x1,%r15
    9aff:	49 83 04 24 01       	addq   $0x1,(%r12)
    9b04:	e9 46 f3 ff ff       	jmp    8e4f <__pyx_pw_8funnybug_1solve+0x4df>
    9b09:	49 89 eb             	mov    %rbp,%r11
    9b0c:	48 8b 6c 24 20       	mov    0x20(%rsp),%rbp
    9b11:	49 89 d8             	mov    %rbx,%r8
    9b14:	4d 89 ca             	mov    %r9,%r10
    9b17:	4d 89 ef             	mov    %r13,%r15
    9b1a:	31 c9                	xor    %ecx,%ecx
    9b1c:	45 31 c9             	xor    %r9d,%r9d
    9b1f:	31 db                	xor    %ebx,%ebx
    9b21:	49 89 ed             	mov    %rbp,%r13
    9b24:	be 14 0b 00 00       	mov    $0xb14,%esi
    9b29:	31 ed                	xor    %ebp,%ebp
    9b2b:	48 c7 44 24 10 00 00 	movq   $0x0,0x10(%rsp)
    9b32:	00 00 
    9b34:	48 c7 44 24 18 00 00 	movq   $0x0,0x18(%rsp)
    9b3b:	00 00 
    9b3d:	ba 14 00 00 00       	mov    $0x14,%edx
    9b42:	48 c7 44 24 30 00 00 	movq   $0x0,0x30(%rsp)
    9b49:	00 00 
    9b4b:	48 c7 44 24 28 00 00 	movq   $0x0,0x28(%rsp)
    9b52:	00 00 
    9b54:	48 c7 44 24 20 00 00 	movq   $0x0,0x20(%rsp)
    9b5b:	00 00 
    9b5d:	e9 e9 f4 ff ff       	jmp    904b <__pyx_pw_8funnybug_1solve+0x6db>
    9b62:	48 8b 05 df 5e 00 00 	mov    0x5edf(%rip),%rax        # fa48 <__pyx_mstate_global_static+0x68>
    9b69:	48 89 44 24 38       	mov    %rax,0x38(%rsp)
    9b6e:	48 8b 81 90 00 00 00 	mov    0x90(%rcx),%rax
    9b75:	48 3b 05 f4 53 00 00 	cmp    0x53f4(%rip),%rax        # ef70 <PyObject_GenericGetAttr@Base>
    9b7c:	0f 85 85 0a 00 00    	jne    a607 <__pyx_pw_8funnybug_1solve+0x1c97>
    9b82:	4c 8b 91 08 01 00 00 	mov    0x108(%rcx),%r10
    9b89:	4d 85 d2             	test   %r10,%r10
    9b8c:	0f 84 f2 09 00 00    	je     a584 <__pyx_pw_8funnybug_1solve+0x1c14>
    9b92:	48 8b 74 24 38       	mov    0x38(%rsp),%rsi
    9b97:	48 89 cf             	mov    %rcx,%rdi
    9b9a:	4c 89 4c 24 50       	mov    %r9,0x50(%rsp)
    9b9f:	48 89 4c 24 48       	mov    %rcx,0x48(%rsp)
    9ba4:	e8 07 9e ff ff       	call   39b0 <_PyType_Lookup@plt>
    9ba9:	48 8b 4c 24 48       	mov    0x48(%rsp),%rcx
    9bae:	4c 8b 4c 24 50       	mov    0x50(%rsp),%r9
    9bb3:	48 85 c0             	test   %rax,%rax
    9bb6:	49 89 c0             	mov    %rax,%r8
    9bb9:	0f 84 74 09 00 00    	je     a533 <__pyx_pw_8funnybug_1solve+0x1bc3>
    9bbf:	48 83 00 01          	addq   $0x1,(%rax)
    9bc3:	48 8b 40 08          	mov    0x8(%rax),%rax
    9bc7:	f6 80 aa 00 00 00 02 	testb  $0x2,0xaa(%rax)
    9bce:	0f 85 27 02 00 00    	jne    9dfb <__pyx_pw_8funnybug_1solve+0x148b>
    9bd4:	48 8b 80 10 01 00 00 	mov    0x110(%rax),%rax
    9bdb:	48 89 44 24 48       	mov    %rax,0x48(%rsp)
    9be0:	48 85 c0             	test   %rax,%rax
    9be3:	0f 84 f9 07 00 00    	je     a3e2 <__pyx_pw_8funnybug_1solve+0x1a72>
    9be9:	4c 89 c7             	mov    %r8,%rdi
    9bec:	48 89 4c 24 68       	mov    %rcx,0x68(%rsp)
    9bf1:	4c 89 4c 24 60       	mov    %r9,0x60(%rsp)
    9bf6:	4c 89 44 24 58       	mov    %r8,0x58(%rsp)
    9bfb:	e8 40 9a ff ff       	call   3640 <PyDescr_IsData@plt>
    9c00:	4c 8b 44 24 58       	mov    0x58(%rsp),%r8
    9c05:	4c 8b 4c 24 60       	mov    0x60(%rsp),%r9
    9c0a:	85 c0                	test   %eax,%eax
    9c0c:	89 44 24 50          	mov    %eax,0x50(%rsp)
    9c10:	48 8b 4c 24 68       	mov    0x68(%rsp),%rcx
    9c15:	75 37                	jne    9c4e <__pyx_pw_8funnybug_1solve+0x12de>
    9c17:	4c 89 cf             	mov    %r9,%rdi
    9c1a:	48 89 4c 24 68       	mov    %rcx,0x68(%rsp)
    9c1f:	4c 89 44 24 60       	mov    %r8,0x60(%rsp)
    9c24:	4c 89 4c 24 58       	mov    %r9,0x58(%rsp)
    9c29:	e8 f2 9d ff ff       	call   3a20 <_PyObject_GetDictPtr@plt>
    9c2e:	4c 8b 4c 24 58       	mov    0x58(%rsp),%r9
    9c33:	4c 8b 44 24 60       	mov    0x60(%rsp),%r8
    9c38:	48 85 c0             	test   %rax,%rax
    9c3b:	48 8b 4c 24 68       	mov    0x68(%rsp),%rcx
    9c40:	74 0c                	je     9c4e <__pyx_pw_8funnybug_1solve+0x12de>
    9c42:	48 8b 38             	mov    (%rax),%rdi
    9c45:	48 85 ff             	test   %rdi,%rdi
    9c48:	0f 85 f9 01 00 00    	jne    9e47 <__pyx_pw_8funnybug_1solve+0x14d7>
    9c4e:	4c 89 4c 24 50       	mov    %r9,0x50(%rsp)
    9c53:	49 8b 51 08          	mov    0x8(%r9),%rdx
    9c57:	4c 89 ce             	mov    %r9,%rsi
    9c5a:	4c 89 c7             	mov    %r8,%rdi
    9c5d:	4c 89 44 24 38       	mov    %r8,0x38(%rsp)
    9c62:	48 8b 44 24 48       	mov    0x48(%rsp),%rax
    9c67:	ff d0                	call   *%rax
    9c69:	4c 8b 44 24 38       	mov    0x38(%rsp),%r8
    9c6e:	4c 8b 4c 24 50       	mov    0x50(%rsp),%r9
    9c73:	49 89 c3             	mov    %rax,%r11
    9c76:	49 83 28 01          	subq   $0x1,(%r8)
    9c7a:	0f 84 ac 09 00 00    	je     a62c <__pyx_pw_8funnybug_1solve+0x1cbc>
    9c80:	4d 85 db             	test   %r11,%r11
    9c83:	0f 84 e0 09 00 00    	je     a669 <__pyx_pw_8funnybug_1solve+0x1cf9>
    9c89:	48 8b 05 a0 52 00 00 	mov    0x52a0(%rip),%rax        # ef30 <PyMethod_Type@Base>
    9c90:	49 39 43 08          	cmp    %rax,0x8(%r11)
    9c94:	0f 84 30 02 00 00    	je     9eca <__pyx_pw_8funnybug_1solve+0x155a>
    9c9a:	48 8b 74 24 40       	mov    0x40(%rsp),%rsi
    9c9f:	4c 89 df             	mov    %r11,%rdi
    9ca2:	48 ba 01 00 00 00 00 	movabs $0x8000000000000001,%rdx
    9ca9:	00 00 80 
    9cac:	4c 89 4c 24 48       	mov    %r9,0x48(%rsp)
    9cb1:	4c 89 5c 24 38       	mov    %r11,0x38(%rsp)
    9cb6:	48 c7 84 24 b0 00 00 	movq   $0x0,0xb0(%rsp)
    9cbd:	00 00 00 00 00 
    9cc2:	4c 89 a4 24 b8 00 00 	mov    %r12,0xb8(%rsp)
    9cc9:	00 
    9cca:	e8 91 ca ff ff       	call   6760 <__Pyx_PyObject_FastCallDict.constprop.0>
    9ccf:	4c 8b 5c 24 38       	mov    0x38(%rsp),%r11
    9cd4:	4c 8b 4c 24 48       	mov    0x48(%rsp),%r9
    9cd9:	49 89 c2             	mov    %rax,%r10
    9cdc:	49 83 2b 01          	subq   $0x1,(%r11)
    9ce0:	0f 84 92 0b 00 00    	je     a878 <__pyx_pw_8funnybug_1solve+0x1f08>
    9ce6:	4d 85 d2             	test   %r10,%r10
    9ce9:	0f 84 c3 08 00 00    	je     a5b2 <__pyx_pw_8funnybug_1solve+0x1c42>
    9cef:	49 83 2a 01          	subq   $0x1,(%r10)
    9cf3:	0f 85 19 f2 ff ff    	jne    8f12 <__pyx_pw_8funnybug_1solve+0x5a2>
    9cf9:	4c 89 d7             	mov    %r10,%rdi
    9cfc:	4c 89 4c 24 38       	mov    %r9,0x38(%rsp)
    9d01:	e8 0a 9a ff ff       	call   3710 <_Py_Dealloc@plt>
    9d06:	4c 8b 4c 24 38       	mov    0x38(%rsp),%r9
    9d0b:	e9 02 f2 ff ff       	jmp    8f12 <__pyx_pw_8funnybug_1solve+0x5a2>
    9d10:	48 8b 46 08          	mov    0x8(%rsi),%rax
    9d14:	48 83 06 01          	addq   $0x1,(%rsi)
    9d18:	48 83 07 01          	addq   $0x1,(%rdi)
    9d1c:	f6 80 ab 00 00 00 10 	testb  $0x10,0xab(%rax)
    9d23:	0f 85 97 fb ff ff    	jne    98c0 <__pyx_pw_8funnybug_1solve+0xf50>
    9d29:	48 8b 05 28 52 00 00 	mov    0x5228(%rip),%rax        # ef58 <PyExc_TypeError@Base>
    9d30:	48 8d 15 9c 2a 00 00 	lea    0x2a9c(%rip),%rdx        # c7d3 <_fini+0xa5b>
    9d37:	48 8d 35 42 28 00 00 	lea    0x2842(%rip),%rsi        # c580 <_fini+0x808>
    9d3e:	48 8b 38             	mov    (%rax),%rdi
    9d41:	31 c0                	xor    %eax,%eax
    9d43:	e8 48 9d ff ff       	call   3a90 <PyErr_Format@plt>
    9d48:	e9 d3 fb ff ff       	jmp    9920 <__pyx_pw_8funnybug_1solve+0xfb0>
    9d4d:	48 c7 44 24 10 00 00 	movq   $0x0,0x10(%rsp)
    9d54:	00 00 
    9d56:	31 c9                	xor    %ecx,%ecx
    9d58:	45 31 c9             	xor    %r9d,%r9d
    9d5b:	31 db                	xor    %ebx,%ebx
    9d5d:	48 c7 44 24 18 00 00 	movq   $0x0,0x18(%rsp)
    9d64:	00 00 
    9d66:	45 31 d2             	xor    %r10d,%r10d
    9d69:	45 31 db             	xor    %r11d,%r11d
    9d6c:	31 ed                	xor    %ebp,%ebp
    9d6e:	48 c7 44 24 30 00 00 	movq   $0x0,0x30(%rsp)
    9d75:	00 00 
    9d77:	45 31 c0             	xor    %r8d,%r8d
    9d7a:	45 31 e4             	xor    %r12d,%r12d
    9d7d:	45 31 f6             	xor    %r14d,%r14d
    9d80:	48 c7 44 24 28 00 00 	movq   $0x0,0x28(%rsp)
    9d87:	00 00 
    9d89:	be 78 0a 00 00       	mov    $0xa78,%esi
    9d8e:	ba 10 00 00 00       	mov    $0x10,%edx
    9d93:	48 c7 44 24 20 00 00 	movq   $0x0,0x20(%rsp)
    9d9a:	00 00 
    9d9c:	48 c7 44 24 08 00 00 	movq   $0x0,0x8(%rsp)
    9da3:	00 00 
    9da5:	e9 a1 f2 ff ff       	jmp    904b <__pyx_pw_8funnybug_1solve+0x6db>
    9daa:	66 0f 1f 44 00 00    	nopw   0x0(%rax,%rax,1)
    9db0:	48 c7 84 24 a0 00 00 	movq   $0x0,0xa0(%rsp)
    9db7:	00 00 00 00 00 
    9dbc:	e8 6f 9b ff ff       	call   3930 <PyErr_Occurred@plt>
    9dc1:	48 85 c0             	test   %rax,%rax
    9dc4:	0f 84 45 ec ff ff    	je     8a0f <__pyx_pw_8funnybug_1solve+0x9f>
    9dca:	be 14 0a 00 00       	mov    $0xa14,%esi
    9dcf:	e9 7a ec ff ff       	jmp    8a4e <__pyx_pw_8funnybug_1solve+0xde>
    9dd4:	48 8b 05 7d 51 00 00 	mov    0x517d(%rip),%rax        # ef58 <PyExc_TypeError@Base>
    9ddb:	48 89 f1             	mov    %rsi,%rcx
    9dde:	48 8d 15 ee 29 00 00 	lea    0x29ee(%rip),%rdx        # c7d3 <_fini+0xa5b>
    9de5:	48 8d 35 bc 27 00 00 	lea    0x27bc(%rip),%rsi        # c5a8 <_fini+0x830>
    9dec:	48 8b 38             	mov    (%rax),%rdi
    9def:	31 c0                	xor    %eax,%eax
    9df1:	e8 9a 9c ff ff       	call   3a90 <PyErr_Format@plt>
    9df6:	e9 25 fb ff ff       	jmp    9920 <__pyx_pw_8funnybug_1solve+0xfb0>
    9dfb:	4c 89 cf             	mov    %r9,%rdi
    9dfe:	48 89 4c 24 58       	mov    %rcx,0x58(%rsp)
    9e03:	4c 89 44 24 50       	mov    %r8,0x50(%rsp)
    9e08:	4c 89 4c 24 48       	mov    %r9,0x48(%rsp)
    9e0d:	e8 0e 9c ff ff       	call   3a20 <_PyObject_GetDictPtr@plt>
    9e12:	4c 8b 4c 24 48       	mov    0x48(%rsp),%r9
    9e17:	4c 8b 44 24 50       	mov    0x50(%rsp),%r8
    9e1c:	48 85 c0             	test   %rax,%rax
    9e1f:	48 8b 4c 24 58       	mov    0x58(%rsp),%rcx
    9e24:	0f 84 d4 00 00 00    	je     9efe <__pyx_pw_8funnybug_1solve+0x158e>
    9e2a:	48 8b 38             	mov    (%rax),%rdi
    9e2d:	c7 44 24 50 01 00 00 	movl   $0x1,0x50(%rsp)
    9e34:	00 
    9e35:	48 c7 44 24 48 00 00 	movq   $0x0,0x48(%rsp)
    9e3c:	00 00 
    9e3e:	48 85 ff             	test   %rdi,%rdi
    9e41:	0f 84 b7 00 00 00    	je     9efe <__pyx_pw_8funnybug_1solve+0x158e>
    9e47:	48 83 07 01          	addq   $0x1,(%rdi)
    9e4b:	48 8b 74 24 38       	mov    0x38(%rsp),%rsi
    9e50:	4c 89 4c 24 68       	mov    %r9,0x68(%rsp)
    9e55:	48 8b 56 18          	mov    0x18(%rsi),%rdx
    9e59:	4c 89 44 24 60       	mov    %r8,0x60(%rsp)
    9e5e:	48 89 7c 24 58       	mov    %rdi,0x58(%rsp)
    9e63:	48 89 4c 24 70       	mov    %rcx,0x70(%rsp)
    9e68:	e8 d3 9a ff ff       	call   3940 <_PyDict_GetItem_KnownHash@plt>
    9e6d:	48 8b 7c 24 58       	mov    0x58(%rsp),%rdi
    9e72:	4c 8b 44 24 60       	mov    0x60(%rsp),%r8
    9e77:	48 85 c0             	test   %rax,%rax
    9e7a:	4c 8b 4c 24 68       	mov    0x68(%rsp),%r9
    9e7f:	49 89 c3             	mov    %rax,%r11
    9e82:	0f 84 a1 05 00 00    	je     a429 <__pyx_pw_8funnybug_1solve+0x1ab9>
    9e88:	48 83 00 01          	addq   $0x1,(%rax)
    9e8c:	48 83 2f 01          	subq   $0x1,(%rdi)
    9e90:	0f 84 16 08 00 00    	je     a6ac <__pyx_pw_8funnybug_1solve+0x1d3c>
    9e96:	4d 85 c0             	test   %r8,%r8
    9e99:	0f 84 ea fd ff ff    	je     9c89 <__pyx_pw_8funnybug_1solve+0x1319>
    9e9f:	49 83 28 01          	subq   $0x1,(%r8)
    9ea3:	0f 85 e0 fd ff ff    	jne    9c89 <__pyx_pw_8funnybug_1solve+0x1319>
    9ea9:	4c 89 c7             	mov    %r8,%rdi
    9eac:	4c 89 5c 24 48       	mov    %r11,0x48(%rsp)
    9eb1:	4c 89 4c 24 38       	mov    %r9,0x38(%rsp)
    9eb6:	e8 55 98 ff ff       	call   3710 <_Py_Dealloc@plt>
    9ebb:	4c 8b 4c 24 38       	mov    0x38(%rsp),%r9
    9ec0:	4c 8b 5c 24 48       	mov    0x48(%rsp),%r11
    9ec5:	e9 bf fd ff ff       	jmp    9c89 <__pyx_pw_8funnybug_1solve+0x1319>
    9eca:	4d 3b 4b 18          	cmp    0x18(%r11),%r9
    9ece:	0f 85 c6 fd ff ff    	jne    9c9a <__pyx_pw_8funnybug_1solve+0x132a>
    9ed4:	4d 8b 43 10          	mov    0x10(%r11),%r8
    9ed8:	49 83 00 01          	addq   $0x1,(%r8)
    9edc:	49 83 2b 01          	subq   $0x1,(%r11)
    9ee0:	75 1c                	jne    9efe <__pyx_pw_8funnybug_1solve+0x158e>
    9ee2:	4c 89 df             	mov    %r11,%rdi
    9ee5:	4c 89 4c 24 48       	mov    %r9,0x48(%rsp)
    9eea:	4c 89 44 24 38       	mov    %r8,0x38(%rsp)
    9eef:	e8 1c 98 ff ff       	call   3710 <_Py_Dealloc@plt>
    9ef4:	4c 8b 4c 24 48       	mov    0x48(%rsp),%r9
    9ef9:	4c 8b 44 24 38       	mov    0x38(%rsp),%r8
    9efe:	48 8b 74 24 40       	mov    0x40(%rsp),%rsi
    9f03:	4c 89 c7             	mov    %r8,%rdi
    9f06:	48 ba 02 00 00 00 00 	movabs $0x8000000000000002,%rdx
    9f0d:	00 00 80 
    9f10:	4c 89 8c 24 b8 00 00 	mov    %r9,0xb8(%rsp)
    9f17:	00 
    9f18:	4c 89 4c 24 48       	mov    %r9,0x48(%rsp)
    9f1d:	4c 89 44 24 38       	mov    %r8,0x38(%rsp)
    9f22:	48 c7 84 24 b0 00 00 	movq   $0x0,0xb0(%rsp)
    9f29:	00 00 00 00 00 
    9f2e:	4c 89 a4 24 c0 00 00 	mov    %r12,0xc0(%rsp)
    9f35:	00 
    9f36:	e8 25 c8 ff ff       	call   6760 <__Pyx_PyObject_FastCallDict.constprop.0>
    9f3b:	4c 8b 44 24 38       	mov    0x38(%rsp),%r8
    9f40:	4c 8b 4c 24 48       	mov    0x48(%rsp),%r9
    9f45:	49 89 c2             	mov    %rax,%r10
    9f48:	49 83 28 01          	subq   $0x1,(%r8)
    9f4c:	0f 85 94 fd ff ff    	jne    9ce6 <__pyx_pw_8funnybug_1solve+0x1376>
    9f52:	4c 89 c7             	mov    %r8,%rdi
    9f55:	4c 89 4c 24 38       	mov    %r9,0x38(%rsp)
    9f5a:	48 89 44 24 48       	mov    %rax,0x48(%rsp)
    9f5f:	e8 ac 97 ff ff       	call   3710 <_Py_Dealloc@plt>
    9f64:	4c 8b 4c 24 38       	mov    0x38(%rsp),%r9
    9f69:	4c 8b 54 24 48       	mov    0x48(%rsp),%r10
    9f6e:	e9 73 fd ff ff       	jmp    9ce6 <__pyx_pw_8funnybug_1solve+0x1376>
    9f73:	e8 b8 99 ff ff       	call   3930 <PyErr_Occurred@plt>
    9f78:	48 85 c0             	test   %rax,%rax
    9f7b:	0f 85 9f f9 ff ff    	jne    9920 <__pyx_pw_8funnybug_1solve+0xfb0>
    9f81:	48 8b b4 24 88 00 00 	mov    0x88(%rsp),%rsi
    9f88:	00 
    9f89:	e9 58 f9 ff ff       	jmp    98e6 <__pyx_pw_8funnybug_1solve+0xf76>
    9f8e:	48 8b 7c 24 20       	mov    0x20(%rsp),%rdi
    9f93:	48 8b 44 24 30       	mov    0x30(%rsp),%rax
    9f98:	4c 89 4c 24 18       	mov    %r9,0x18(%rsp)
    9f9d:	ff d0                	call   *%rax
    9f9f:	4c 8b 4c 24 18       	mov    0x18(%rsp),%r9
    9fa4:	48 85 c0             	test   %rax,%rax
    9fa7:	48 89 44 24 08       	mov    %rax,0x8(%rsp)
    9fac:	0f 85 fc ed ff ff    	jne    8dae <__pyx_pw_8funnybug_1solve+0x43e>
    9fb2:	48 89 6c 24 08       	mov    %rbp,0x8(%rsp)
    9fb7:	4d 89 cf             	mov    %r9,%r15
    9fba:	48 8b 6c 24 20       	mov    0x20(%rsp),%rbp
    9fbf:	e8 6c 99 ff ff       	call   3930 <PyErr_Occurred@plt>
    9fc4:	48 89 c7             	mov    %rax,%rdi
    9fc7:	48 85 c0             	test   %rax,%rax
    9fca:	74 18                	je     9fe4 <__pyx_pw_8funnybug_1solve+0x1674>
    9fcc:	48 8b 05 e5 4f 00 00 	mov    0x4fe5(%rip),%rax        # efb8 <PyExc_StopIteration@Base>
    9fd3:	48 8b 30             	mov    (%rax),%rsi
    9fd6:	48 39 f7             	cmp    %rsi,%rdi
    9fd9:	0f 85 45 18 00 00    	jne    b824 <__pyx_pw_8funnybug_1solve+0x2eb4>
    9fdf:	e8 fc 98 ff ff       	call   38e0 <PyErr_Clear@plt>
    9fe4:	48 83 6d 00 01       	subq   $0x1,0x0(%rbp)
    9fe9:	0f 84 7c 08 00 00    	je     a86b <__pyx_pw_8funnybug_1solve+0x1efb>
    9fef:	49 83 45 00 01       	addq   $0x1,0x0(%r13)
    9ff4:	49 83 7d 10 00       	cmpq   $0x0,0x10(%r13)
    9ff9:	0f 8e 8e 18 00 00    	jle    b88d <__pyx_pw_8funnybug_1solve+0x2f1d>
    9fff:	49 8b 45 18          	mov    0x18(%r13),%rax
    a003:	48 8b 7c 24 10       	mov    0x10(%rsp),%rdi
    a008:	48 c7 44 24 30 00 00 	movq   $0x0,0x30(%rsp)
    a00f:	00 00 
    a011:	48 c7 44 24 50 01 00 	movq   $0x1,0x50(%rsp)
    a018:	00 00 
    a01a:	4c 8b 20             	mov    (%rax),%r12
    a01d:	4c 89 6c 24 18       	mov    %r13,0x18(%rsp)
    a022:	48 c7 44 24 28 00 00 	movq   $0x0,0x28(%rsp)
    a029:	00 00 
    a02b:	49 83 04 24 01       	addq   $0x1,(%r12)
    a030:	48 3b 3d 51 4f 00 00 	cmp    0x4f51(%rip),%rdi        # ef88 <_Py_TrueStruct@Base>
    a037:	0f 94 c0             	sete   %al
    a03a:	0f 94 c2             	sete   %dl
    a03d:	48 3b 3d 1c 4f 00 00 	cmp    0x4f1c(%rip),%rdi        # ef60 <_Py_FalseStruct@Base>
    a044:	4c 89 7c 24 40       	mov    %r15,0x40(%rsp)
    a049:	0f b6 c0             	movzbl %al,%eax
    a04c:	89 44 24 70          	mov    %eax,0x70(%rsp)
    a050:	0f 94 c0             	sete   %al
    a053:	09 d0                	or     %edx,%eax
    a055:	48 3b 3d 24 4f 00 00 	cmp    0x4f24(%rip),%rdi        # ef80 <_Py_NoneStruct@Base>
    a05c:	0f 94 c2             	sete   %dl
    a05f:	31 ed                	xor    %ebp,%ebp
    a061:	09 d0                	or     %edx,%eax
    a063:	48 89 eb             	mov    %rbp,%rbx
    a066:	88 44 24 68          	mov    %al,0x68(%rsp)
    a06a:	48 8d 84 24 b8 00 00 	lea    0xb8(%rsp),%rax
    a071:	00 
    a072:	48 89 44 24 78       	mov    %rax,0x78(%rsp)
    a077:	80 7c 24 68 00       	cmpb   $0x0,0x68(%rsp)
    a07c:	8b 44 24 70          	mov    0x70(%rsp),%eax
    a080:	0f 84 88 07 00 00    	je     a80e <__pyx_pw_8funnybug_1solve+0x1e9e>
    a086:	4c 89 e7             	mov    %r12,%rdi
    a089:	85 c0                	test   %eax,%eax
    a08b:	0f 84 6b 06 00 00    	je     a6fc <__pyx_pw_8funnybug_1solve+0x1d8c>
    a091:	e8 7a 95 ff ff       	call   3610 <PySet_New@plt>
    a096:	49 89 c7             	mov    %rax,%r15
    a099:	48 85 c0             	test   %rax,%rax
    a09c:	0f 84 3d 1b 00 00    	je     bbdf <__pyx_pw_8funnybug_1solve+0x326f>
    a0a2:	bf 01 00 00 00       	mov    $0x1,%edi
    a0a7:	e8 54 98 ff ff       	call   3900 <PyTuple_New@plt>
    a0ac:	48 89 c5             	mov    %rax,%rbp
    a0af:	48 85 c0             	test   %rax,%rax
    a0b2:	0f 84 dc 1a 00 00    	je     bb94 <__pyx_pw_8funnybug_1solve+0x3224>
    a0b8:	4c 89 78 18          	mov    %r15,0x18(%rax)
    a0bc:	e8 2f 99 ff ff       	call   39f0 <PyDict_New@plt>
    a0c1:	49 89 c7             	mov    %rax,%r15
    a0c4:	48 85 c0             	test   %rax,%rax
    a0c7:	0f 84 7c 1a 00 00    	je     bb49 <__pyx_pw_8funnybug_1solve+0x31d9>
    a0cd:	49 8b 44 24 08       	mov    0x8(%r12),%rax
    a0d2:	48 8b 35 a7 59 00 00 	mov    0x59a7(%rip),%rsi        # fa80 <__pyx_mstate_global_static+0xa0>
    a0d9:	4c 89 e7             	mov    %r12,%rdi
    a0dc:	48 8b 80 90 00 00 00 	mov    0x90(%rax),%rax
    a0e3:	48 85 c0             	test   %rax,%rax
    a0e6:	0f 84 e6 1b 00 00    	je     bcd2 <__pyx_pw_8funnybug_1solve+0x3362>
    a0ec:	ff d0                	call   *%rax
    a0ee:	49 89 c5             	mov    %rax,%r13
    a0f1:	4d 85 ed             	test   %r13,%r13
    a0f4:	0f 84 8d 1b 00 00    	je     bc87 <__pyx_pw_8funnybug_1solve+0x3317>
    a0fa:	48 8b 35 cf 59 00 00 	mov    0x59cf(%rip),%rsi        # fad0 <__pyx_mstate_global_static+0xf0>
    a101:	4c 89 ea             	mov    %r13,%rdx
    a104:	4c 89 ff             	mov    %r15,%rdi
    a107:	e8 54 99 ff ff       	call   3a60 <PyDict_SetItem@plt>
    a10c:	85 c0                	test   %eax,%eax
    a10e:	0f 88 48 18 00 00    	js     b95c <__pyx_pw_8funnybug_1solve+0x2fec>
    a114:	49 83 6d 00 01       	subq   $0x1,0x0(%r13)
    a119:	0f 84 dc 08 00 00    	je     a9fb <__pyx_pw_8funnybug_1solve+0x208b>
    a11f:	4c 8b 35 72 5a 00 00 	mov    0x5a72(%rip),%r14        # fb98 <__pyx_builtin_max>
    a126:	49 8b 46 08          	mov    0x8(%r14),%rax
    a12a:	4c 8b a8 80 00 00 00 	mov    0x80(%rax),%r13
    a131:	4d 85 ed             	test   %r13,%r13
    a134:	0f 84 8d 14 00 00    	je     b5c7 <__pyx_pw_8funnybug_1solve+0x2c57>
    a13a:	48 8d 3d af 21 00 00 	lea    0x21af(%rip),%rdi        # c2f0 <_fini+0x578>
    a141:	e8 1a 95 ff ff       	call   3660 <Py_EnterRecursiveCall@plt>
    a146:	85 c0                	test   %eax,%eax
    a148:	0f 85 2e 14 00 00    	jne    b57c <__pyx_pw_8funnybug_1solve+0x2c0c>
    a14e:	4c 89 f7             	mov    %r14,%rdi
    a151:	4c 89 fa             	mov    %r15,%rdx
    a154:	48 89 ee             	mov    %rbp,%rsi
    a157:	41 ff d5             	call   *%r13
    a15a:	49 89 c6             	mov    %rax,%r14
    a15d:	e8 ee 97 ff ff       	call   3950 <Py_LeaveRecursiveCall@plt>
    a162:	4d 85 f6             	test   %r14,%r14
    a165:	0f 84 ab 13 00 00    	je     b516 <__pyx_pw_8funnybug_1solve+0x2ba6>
    a16b:	48 89 ef             	mov    %rbp,%rdi
    a16e:	e8 5d b7 ff ff       	call   58d0 <_Py_DECREF>
    a173:	4c 89 ff             	mov    %r15,%rdi
    a176:	e8 55 b7 ff ff       	call   58d0 <_Py_DECREF>
    a17b:	4c 89 74 24 48       	mov    %r14,0x48(%rsp)
    a180:	48 8b 4c 24 28       	mov    0x28(%rsp),%rcx
    a185:	48 85 c9             	test   %rcx,%rcx
    a188:	74 15                	je     a19f <__pyx_pw_8funnybug_1solve+0x182f>
    a18a:	48 8b 01             	mov    (%rcx),%rax
    a18d:	48 89 44 24 20       	mov    %rax,0x20(%rsp)
    a192:	48 83 e8 01          	sub    $0x1,%rax
    a196:	48 89 01             	mov    %rax,(%rcx)
    a199:	0f 84 01 0a 00 00    	je     aba0 <__pyx_pw_8funnybug_1solve+0x2230>
    a19f:	31 ff                	xor    %edi,%edi
    a1a1:	e8 2a 94 ff ff       	call   35d0 <PyList_New@plt>
    a1a6:	48 89 44 24 28       	mov    %rax,0x28(%rsp)
    a1ab:	48 85 c0             	test   %rax,%rax
    a1ae:	0f 84 0a 13 00 00    	je     b4be <__pyx_pw_8funnybug_1solve+0x2b4e>
    a1b4:	48 85 db             	test   %rbx,%rbx
    a1b7:	74 08                	je     a1c1 <__pyx_pw_8funnybug_1solve+0x1851>
    a1b9:	48 89 df             	mov    %rbx,%rdi
    a1bc:	e8 0f b7 ff ff       	call   58d0 <_Py_DECREF>
    a1c1:	4c 8b 3d 90 59 00 00 	mov    0x5990(%rip),%r15        # fb58 <__pyx_mstate_global_static+0x178>
    a1c8:	49 8b 44 24 08       	mov    0x8(%r12),%rax
    a1cd:	49 83 07 01          	addq   $0x1,(%r15)
    a1d1:	48 3b 05 70 4d 00 00 	cmp    0x4d70(%rip),%rax        # ef48 <PyTuple_Type@Base>
    a1d8:	74 0d                	je     a1e7 <__pyx_pw_8funnybug_1solve+0x1877>
    a1da:	48 3b 05 17 4e 00 00 	cmp    0x4e17(%rip),%rax        # eff8 <PyList_Type@Base>
    a1e1:	0f 85 3a 17 00 00    	jne    b921 <__pyx_pw_8funnybug_1solve+0x2fb1>
    a1e7:	49 83 04 24 01       	addq   $0x1,(%r12)
    a1ec:	4c 89 e5             	mov    %r12,%rbp
    a1ef:	48 c7 44 24 58 00 00 	movq   $0x0,0x58(%rsp)
    a1f6:	00 00 
    a1f8:	48 c7 44 24 20 00 00 	movq   $0x0,0x20(%rsp)
    a1ff:	00 00 
    a201:	48 8b 5c 24 30       	mov    0x30(%rsp),%rbx
    a206:	4c 8b 44 24 40       	mov    0x40(%rsp),%r8
    a20b:	4d 89 e5             	mov    %r12,%r13
    a20e:	49 89 ee             	mov    %rbp,%r14
    a211:	4d 89 fc             	mov    %r15,%r12
    a214:	48 83 7c 24 58 00    	cmpq   $0x0,0x58(%rsp)
    a21a:	0f 85 6e 0b 00 00    	jne    ad8e <__pyx_pw_8funnybug_1solve+0x241e>
    a220:	49 8b 46 10          	mov    0x10(%r14),%rax
    a224:	48 8b 3d cd 4d 00 00 	mov    0x4dcd(%rip),%rdi        # eff8 <PyList_Type@Base>
    a22b:	49 39 7e 08          	cmp    %rdi,0x8(%r14)
    a22f:	0f 85 64 12 00 00    	jne    b499 <__pyx_pw_8funnybug_1solve+0x2b29>
    a235:	48 8b 7c 24 20       	mov    0x20(%rsp),%rdi
    a23a:	48 39 f8             	cmp    %rdi,%rax
    a23d:	0f 8e 46 12 00 00    	jle    b489 <__pyx_pw_8funnybug_1solve+0x2b19>
    a243:	49 8b 46 18          	mov    0x18(%r14),%rax
    a247:	48 8b 2c f8          	mov    (%rax,%rdi,8),%rbp
    a24b:	48 83 c7 01          	add    $0x1,%rdi
    a24f:	48 89 7c 24 20       	mov    %rdi,0x20(%rsp)
    a254:	48 83 45 00 01       	addq   $0x1,0x0(%rbp)
    a259:	48 85 db             	test   %rbx,%rbx
    a25c:	74 0a                	je     a268 <__pyx_pw_8funnybug_1solve+0x18f8>
    a25e:	48 83 2b 01          	subq   $0x1,(%rbx)
    a262:	0f 84 d9 0b 00 00    	je     ae41 <__pyx_pw_8funnybug_1solve+0x24d1>
    a268:	49 83 07 01          	addq   $0x1,(%r15)
    a26c:	4d 85 c0             	test   %r8,%r8
    a26f:	74 0a                	je     a27b <__pyx_pw_8funnybug_1solve+0x190b>
    a271:	49 83 28 01          	subq   $0x1,(%r8)
    a275:	0f 84 18 09 00 00    	je     ab93 <__pyx_pw_8funnybug_1solve+0x2223>
    a27b:	48 8b 35 de 58 00 00 	mov    0x58de(%rip),%rsi        # fb60 <__pyx_mstate_global_static+0x180>
    a282:	4c 89 ff             	mov    %r15,%rdi
    a285:	e8 96 b7 ff ff       	call   5a20 <__Pyx_PyInt_AddObjC.constprop.0>
    a28a:	49 89 c7             	mov    %rax,%r15
    a28d:	48 85 c0             	test   %rax,%rax
    a290:	0f 84 7f 07 00 00    	je     aa15 <__pyx_pw_8funnybug_1solve+0x20a5>
    a296:	49 83 2c 24 01       	subq   $0x1,(%r12)
    a29b:	0f 84 22 07 00 00    	je     a9c3 <__pyx_pw_8funnybug_1solve+0x2053>
    a2a1:	48 8b 74 24 48       	mov    0x48(%rsp),%rsi
    a2a6:	ba 02 00 00 00       	mov    $0x2,%edx
    a2ab:	48 89 ef             	mov    %rbp,%rdi
    a2ae:	e8 9d 94 ff ff       	call   3750 <PyObject_RichCompare@plt>
    a2b3:	48 89 c3             	mov    %rax,%rbx
    a2b6:	48 85 c0             	test   %rax,%rax
    a2b9:	0f 84 6b 19 00 00    	je     bc2a <__pyx_pw_8funnybug_1solve+0x32ba>
    a2bf:	48 3b 05 c2 4c 00 00 	cmp    0x4cc2(%rip),%rax        # ef88 <_Py_TrueStruct@Base>
    a2c6:	0f 94 c0             	sete   %al
    a2c9:	48 3b 1d 90 4c 00 00 	cmp    0x4c90(%rip),%rbx        # ef60 <_Py_FalseStruct@Base>
    a2d0:	0f 94 c2             	sete   %dl
    a2d3:	08 c2                	or     %al,%dl
    a2d5:	0f 85 15 05 00 00    	jne    a7f0 <__pyx_pw_8funnybug_1solve+0x1e80>
    a2db:	48 3b 1d 9e 4c 00 00 	cmp    0x4c9e(%rip),%rbx        # ef80 <_Py_NoneStruct@Base>
    a2e2:	0f 84 08 05 00 00    	je     a7f0 <__pyx_pw_8funnybug_1solve+0x1e80>
    a2e8:	48 89 df             	mov    %rbx,%rdi
    a2eb:	e8 b0 96 ff ff       	call   39a0 <PyObject_IsTrue@plt>
    a2f0:	85 c0                	test   %eax,%eax
    a2f2:	0f 88 d0 13 00 00    	js     b6c8 <__pyx_pw_8funnybug_1solve+0x2d58>
    a2f8:	48 83 2b 01          	subq   $0x1,(%rbx)
    a2fc:	0f 84 7c 08 00 00    	je     ab7e <__pyx_pw_8funnybug_1solve+0x220e>
    a302:	85 c0                	test   %eax,%eax
    a304:	0f 84 8f 05 00 00    	je     a899 <__pyx_pw_8funnybug_1solve+0x1f29>
    a30a:	48 8b 7c 24 28       	mov    0x28(%rsp),%rdi
    a30f:	48 8b 57 20          	mov    0x20(%rdi),%rdx
    a313:	48 8b 47 10          	mov    0x10(%rdi),%rax
    a317:	48 89 d1             	mov    %rdx,%rcx
    a31a:	48 d1 f9             	sar    %rcx
    a31d:	48 39 c8             	cmp    %rcx,%rax
    a320:	0f 8e 2f 13 00 00    	jle    b655 <__pyx_pw_8funnybug_1solve+0x2ce5>
    a326:	48 39 d0             	cmp    %rdx,%rax
    a329:	0f 8d 26 13 00 00    	jge    b655 <__pyx_pw_8funnybug_1solve+0x2ce5>
    a32f:	48 8b 57 18          	mov    0x18(%rdi),%rdx
    a333:	48 83 45 00 01       	addq   $0x1,0x0(%rbp)
    a338:	48 89 2c c2          	mov    %rbp,(%rdx,%rax,8)
    a33c:	48 83 c0 01          	add    $0x1,%rax
    a340:	48 89 47 10          	mov    %rax,0x10(%rdi)
    a344:	4d 89 e0             	mov    %r12,%r8
    a347:	48 89 eb             	mov    %rbp,%rbx
    a34a:	4d 89 fc             	mov    %r15,%r12
    a34d:	e9 c2 fe ff ff       	jmp    a214 <__pyx_pw_8funnybug_1solve+0x18a4>
    a352:	48 8b 4c 24 28       	mov    0x28(%rsp),%rcx
    a357:	48 39 c8             	cmp    %rcx,%rax
    a35a:	0f 8e ed 02 00 00    	jle    a64d <__pyx_pw_8funnybug_1solve+0x1cdd>
    a360:	48 8b 7c 24 20       	mov    0x20(%rsp),%rdi
    a365:	48 89 c8             	mov    %rcx,%rax
    a368:	48 83 c0 01          	add    $0x1,%rax
    a36c:	48 8b 4c cf 18       	mov    0x18(%rdi,%rcx,8),%rcx
    a371:	48 89 44 24 28       	mov    %rax,0x28(%rsp)
    a376:	48 83 01 01          	addq   $0x1,(%rcx)
    a37a:	48 89 4c 24 08       	mov    %rcx,0x8(%rsp)
    a37f:	e9 2a ea ff ff       	jmp    8dae <__pyx_pw_8funnybug_1solve+0x43e>
    a384:	48 8b bc 24 88 00 00 	mov    0x88(%rsp),%rdi
    a38b:	00 
    a38c:	48 85 ff             	test   %rdi,%rdi
    a38f:	0f 84 cf e8 ff ff    	je     8c64 <__pyx_pw_8funnybug_1solve+0x2f4>
    a395:	48 83 2f 01          	subq   $0x1,(%rdi)
    a399:	0f 84 c0 02 00 00    	je     a65f <__pyx_pw_8funnybug_1solve+0x1cef>
    a39f:	48 8b bc 24 90 00 00 	mov    0x90(%rsp),%rdi
    a3a6:	00 
    a3a7:	48 85 ff             	test   %rdi,%rdi
    a3aa:	0f 84 b4 e8 ff ff    	je     8c64 <__pyx_pw_8funnybug_1solve+0x2f4>
    a3b0:	48 83 2f 01          	subq   $0x1,(%rdi)
    a3b4:	0f 85 aa e8 ff ff    	jne    8c64 <__pyx_pw_8funnybug_1solve+0x2f4>
    a3ba:	e8 51 93 ff ff       	call   3710 <_Py_Dealloc@plt>
    a3bf:	e9 a0 e8 ff ff       	jmp    8c64 <__pyx_pw_8funnybug_1solve+0x2f4>
    a3c4:	e8 47 93 ff ff       	call   3710 <_Py_Dealloc@plt>
    a3c9:	e9 80 f5 ff ff       	jmp    994e <__pyx_pw_8funnybug_1solve+0xfde>
    a3ce:	e8 3d 93 ff ff       	call   3710 <_Py_Dealloc@plt>
    a3d3:	e9 5f f5 ff ff       	jmp    9937 <__pyx_pw_8funnybug_1solve+0xfc7>
    a3d8:	4c 89 44 24 38       	mov    %r8,0x38(%rsp)
    a3dd:	e9 b2 eb ff ff       	jmp    8f94 <__pyx_pw_8funnybug_1solve+0x624>
    a3e2:	4c 89 cf             	mov    %r9,%rdi
    a3e5:	48 89 4c 24 60       	mov    %rcx,0x60(%rsp)
    a3ea:	4c 89 44 24 58       	mov    %r8,0x58(%rsp)
    a3ef:	4c 89 4c 24 50       	mov    %r9,0x50(%rsp)
    a3f4:	e8 27 96 ff ff       	call   3a20 <_PyObject_GetDictPtr@plt>
    a3f9:	4c 8b 4c 24 50       	mov    0x50(%rsp),%r9
    a3fe:	4c 8b 44 24 58       	mov    0x58(%rsp),%r8
    a403:	48 85 c0             	test   %rax,%rax
    a406:	48 8b 4c 24 60       	mov    0x60(%rsp),%rcx
    a40b:	74 14                	je     a421 <__pyx_pw_8funnybug_1solve+0x1ab1>
    a40d:	48 8b 38             	mov    (%rax),%rdi
    a410:	c7 44 24 50 00 00 00 	movl   $0x0,0x50(%rsp)
    a417:	00 
    a418:	48 85 ff             	test   %rdi,%rdi
    a41b:	0f 85 26 fa ff ff    	jne    9e47 <__pyx_pw_8funnybug_1solve+0x14d7>
    a421:	4d 89 c3             	mov    %r8,%r11
    a424:	e9 71 f8 ff ff       	jmp    9c9a <__pyx_pw_8funnybug_1solve+0x132a>
    a429:	e8 b2 94 ff ff       	call   38e0 <PyErr_Clear@plt>
    a42e:	48 8b 7c 24 58       	mov    0x58(%rsp),%rdi
    a433:	4c 8b 44 24 60       	mov    0x60(%rsp),%r8
    a438:	4c 8b 4c 24 68       	mov    0x68(%rsp),%r9
    a43d:	48 8b 4c 24 70       	mov    0x70(%rsp),%rcx
    a442:	48 83 2f 01          	subq   $0x1,(%rdi)
    a446:	0f 84 88 02 00 00    	je     a6d4 <__pyx_pw_8funnybug_1solve+0x1d64>
    a44c:	8b 74 24 50          	mov    0x50(%rsp),%esi
    a450:	85 f6                	test   %esi,%esi
    a452:	0f 85 a6 fa ff ff    	jne    9efe <__pyx_pw_8funnybug_1solve+0x158e>
    a458:	48 83 7c 24 48 00    	cmpq   $0x0,0x48(%rsp)
    a45e:	0f 85 ea f7 ff ff    	jne    9c4e <__pyx_pw_8funnybug_1solve+0x12de>
    a464:	4d 85 c0             	test   %r8,%r8
    a467:	75 b8                	jne    a421 <__pyx_pw_8funnybug_1solve+0x1ab1>
    a469:	49 89 eb             	mov    %rbp,%r11
    a46c:	48 8b 51 18          	mov    0x18(%rcx),%rdx
    a470:	48 8b 6c 24 20       	mov    0x20(%rsp),%rbp
    a475:	4d 89 ef             	mov    %r13,%r15
    a478:	48 8b 05 31 4b 00 00 	mov    0x4b31(%rip),%rax        # efb0 <PyExc_AttributeError@Base>
    a47f:	48 8b 4c 24 38       	mov    0x38(%rsp),%rcx
    a484:	4c 89 4c 24 50       	mov    %r9,0x50(%rsp)
    a489:	48 8d 35 48 21 00 00 	lea    0x2148(%rip),%rsi        # c5d8 <_fini+0x860>
    a490:	48 89 5c 24 48       	mov    %rbx,0x48(%rsp)
    a495:	49 89 ed             	mov    %rbp,%r13
    a498:	31 db                	xor    %ebx,%ebx
    a49a:	31 ed                	xor    %ebp,%ebp
    a49c:	48 8b 38             	mov    (%rax),%rdi
    a49f:	31 c0                	xor    %eax,%eax
    a4a1:	4c 89 5c 24 40       	mov    %r11,0x40(%rsp)
    a4a6:	e8 e5 95 ff ff       	call   3a90 <PyErr_Format@plt>
    a4ab:	4c 8b 5c 24 40       	mov    0x40(%rsp),%r11
    a4b0:	4c 8b 44 24 48       	mov    0x48(%rsp),%r8
    a4b5:	48 c7 44 24 10 00 00 	movq   $0x0,0x10(%rsp)
    a4bc:	00 00 
    a4be:	48 c7 44 24 18 00 00 	movq   $0x0,0x18(%rsp)
    a4c5:	00 00 
    a4c7:	4c 8b 54 24 50       	mov    0x50(%rsp),%r10
    a4cc:	31 c9                	xor    %ecx,%ecx
    a4ce:	45 31 c9             	xor    %r9d,%r9d
    a4d1:	48 c7 44 24 30 00 00 	movq   $0x0,0x30(%rsp)
    a4d8:	00 00 
    a4da:	be 16 0b 00 00       	mov    $0xb16,%esi
    a4df:	ba 14 00 00 00       	mov    $0x14,%edx
    a4e4:	48 c7 44 24 28 00 00 	movq   $0x0,0x28(%rsp)
    a4eb:	00 00 
    a4ed:	48 c7 44 24 20 00 00 	movq   $0x0,0x20(%rsp)
    a4f4:	00 00 
    a4f6:	e9 50 eb ff ff       	jmp    904b <__pyx_pw_8funnybug_1solve+0x6db>
    a4fb:	be 1c 0a 00 00       	mov    $0xa1c,%esi
    a500:	e9 49 e5 ff ff       	jmp    8a4e <__pyx_pw_8funnybug_1solve+0xde>
    a505:	4c 89 f7             	mov    %r14,%rdi
    a508:	4c 89 4c 24 18       	mov    %r9,0x18(%rsp)
    a50d:	e8 fe 91 ff ff       	call   3710 <_Py_Dealloc@plt>
    a512:	4c 8b 4c 24 18       	mov    0x18(%rsp),%r9
    a517:	e9 8d ea ff ff       	jmp    8fa9 <__pyx_pw_8funnybug_1solve+0x639>
    a51c:	48 89 ef             	mov    %rbp,%rdi
    a51f:	4c 89 4c 24 18       	mov    %r9,0x18(%rsp)
    a524:	e8 e7 91 ff ff       	call   3710 <_Py_Dealloc@plt>
    a529:	4c 8b 4c 24 18       	mov    0x18(%rsp),%r9
    a52e:	e9 6c ea ff ff       	jmp    8f9f <__pyx_pw_8funnybug_1solve+0x62f>
    a533:	4c 89 cf             	mov    %r9,%rdi
    a536:	48 89 4c 24 58       	mov    %rcx,0x58(%rsp)
    a53b:	4c 89 4c 24 48       	mov    %r9,0x48(%rsp)
    a540:	48 89 44 24 50       	mov    %rax,0x50(%rsp)
    a545:	e8 d6 94 ff ff       	call   3a20 <_PyObject_GetDictPtr@plt>
    a54a:	4c 8b 4c 24 48       	mov    0x48(%rsp),%r9
    a54f:	4c 8b 44 24 50       	mov    0x50(%rsp),%r8
    a554:	48 85 c0             	test   %rax,%rax
    a557:	48 8b 4c 24 58       	mov    0x58(%rsp),%rcx
    a55c:	0f 84 07 ff ff ff    	je     a469 <__pyx_pw_8funnybug_1solve+0x1af9>
    a562:	48 8b 38             	mov    (%rax),%rdi
    a565:	48 85 ff             	test   %rdi,%rdi
    a568:	0f 84 fb fe ff ff    	je     a469 <__pyx_pw_8funnybug_1solve+0x1af9>
    a56e:	48 c7 44 24 48 00 00 	movq   $0x0,0x48(%rsp)
    a575:	00 00 
    a577:	c7 44 24 50 00 00 00 	movl   $0x0,0x50(%rsp)
    a57e:	00 
    a57f:	e9 c3 f8 ff ff       	jmp    9e47 <__pyx_pw_8funnybug_1solve+0x14d7>
    a584:	48 89 cf             	mov    %rcx,%rdi
    a587:	4c 89 54 24 58       	mov    %r10,0x58(%rsp)
    a58c:	4c 89 4c 24 50       	mov    %r9,0x50(%rsp)
    a591:	48 89 4c 24 48       	mov    %rcx,0x48(%rsp)
    a596:	e8 05 93 ff ff       	call   38a0 <PyType_Ready@plt>
    a59b:	48 8b 4c 24 48       	mov    0x48(%rsp),%rcx
    a5a0:	4c 8b 4c 24 50       	mov    0x50(%rsp),%r9
    a5a5:	85 c0                	test   %eax,%eax
    a5a7:	4c 8b 54 24 58       	mov    0x58(%rsp),%r10
    a5ac:	0f 89 e0 f5 ff ff    	jns    9b92 <__pyx_pw_8funnybug_1solve+0x1222>
    a5b2:	48 c7 44 24 10 00 00 	movq   $0x0,0x10(%rsp)
    a5b9:	00 00 
    a5bb:	49 89 eb             	mov    %rbp,%r11
    a5be:	49 89 d8             	mov    %rbx,%r8
    a5c1:	31 c9                	xor    %ecx,%ecx
    a5c3:	48 c7 44 24 18 00 00 	movq   $0x0,0x18(%rsp)
    a5ca:	00 00 
    a5cc:	48 8b 6c 24 20       	mov    0x20(%rsp),%rbp
    a5d1:	31 db                	xor    %ebx,%ebx
    a5d3:	48 c7 44 24 30 00 00 	movq   $0x0,0x30(%rsp)
    a5da:	00 00 
    a5dc:	48 c7 44 24 28 00 00 	movq   $0x0,0x28(%rsp)
    a5e3:	00 00 
    a5e5:	4c 89 54 24 20       	mov    %r10,0x20(%rsp)
    a5ea:	4d 89 ca             	mov    %r9,%r10
    a5ed:	45 31 c9             	xor    %r9d,%r9d
    a5f0:	4d 89 ef             	mov    %r13,%r15
    a5f3:	be 16 0b 00 00       	mov    $0xb16,%esi
    a5f8:	49 89 ed             	mov    %rbp,%r13
    a5fb:	ba 14 00 00 00       	mov    $0x14,%edx
    a600:	31 ed                	xor    %ebp,%ebp
    a602:	e9 44 ea ff ff       	jmp    904b <__pyx_pw_8funnybug_1solve+0x6db>
    a607:	48 8b 74 24 38       	mov    0x38(%rsp),%rsi
    a60c:	4c 89 cf             	mov    %r9,%rdi
    a60f:	4c 89 4c 24 38       	mov    %r9,0x38(%rsp)
    a614:	48 85 c0             	test   %rax,%rax
    a617:	0f 84 10 06 00 00    	je     ac2d <__pyx_pw_8funnybug_1solve+0x22bd>
    a61d:	ff d0                	call   *%rax
    a61f:	4c 8b 4c 24 38       	mov    0x38(%rsp),%r9
    a624:	49 89 c3             	mov    %rax,%r11
    a627:	e9 54 f6 ff ff       	jmp    9c80 <__pyx_pw_8funnybug_1solve+0x1310>
    a62c:	4c 89 c7             	mov    %r8,%rdi
    a62f:	4c 89 4c 24 38       	mov    %r9,0x38(%rsp)
    a634:	48 89 44 24 48       	mov    %rax,0x48(%rsp)
    a639:	e8 d2 90 ff ff       	call   3710 <_Py_Dealloc@plt>
    a63e:	4c 8b 4c 24 38       	mov    0x38(%rsp),%r9
    a643:	4c 8b 5c 24 48       	mov    0x48(%rsp),%r11
    a648:	e9 33 f6 ff ff       	jmp    9c80 <__pyx_pw_8funnybug_1solve+0x1310>
    a64d:	48 89 6c 24 08       	mov    %rbp,0x8(%rsp)
    a652:	4d 89 cf             	mov    %r9,%r15
    a655:	48 8b 6c 24 20       	mov    0x20(%rsp),%rbp
    a65a:	e9 85 f9 ff ff       	jmp    9fe4 <__pyx_pw_8funnybug_1solve+0x1674>
    a65f:	e8 ac 90 ff ff       	call   3710 <_Py_Dealloc@plt>
    a664:	e9 36 fd ff ff       	jmp    a39f <__pyx_pw_8funnybug_1solve+0x1a2f>
    a669:	4c 89 5c 24 28       	mov    %r11,0x28(%rsp)
    a66e:	49 89 d8             	mov    %rbx,%r8
    a671:	49 89 eb             	mov    %rbp,%r11
    a674:	4d 89 ca             	mov    %r9,%r10
    a677:	48 8b 6c 24 20       	mov    0x20(%rsp),%rbp
    a67c:	31 c9                	xor    %ecx,%ecx
    a67e:	45 31 c9             	xor    %r9d,%r9d
    a681:	31 db                	xor    %ebx,%ebx
    a683:	48 c7 44 24 10 00 00 	movq   $0x0,0x10(%rsp)
    a68a:	00 00 
    a68c:	48 c7 44 24 18 00 00 	movq   $0x0,0x18(%rsp)
    a693:	00 00 
    a695:	48 c7 44 24 30 00 00 	movq   $0x0,0x30(%rsp)
    a69c:	00 00 
    a69e:	48 c7 44 24 20 00 00 	movq   $0x0,0x20(%rsp)
    a6a5:	00 00 
    a6a7:	e9 44 ff ff ff       	jmp    a5f0 <__pyx_pw_8funnybug_1solve+0x1c80>
    a6ac:	4c 89 5c 24 50       	mov    %r11,0x50(%rsp)
    a6b1:	4c 89 4c 24 48       	mov    %r9,0x48(%rsp)
    a6b6:	4c 89 44 24 38       	mov    %r8,0x38(%rsp)
    a6bb:	e8 50 90 ff ff       	call   3710 <_Py_Dealloc@plt>
    a6c0:	4c 8b 5c 24 50       	mov    0x50(%rsp),%r11
    a6c5:	4c 8b 4c 24 48       	mov    0x48(%rsp),%r9
    a6ca:	4c 8b 44 24 38       	mov    0x38(%rsp),%r8
    a6cf:	e9 c2 f7 ff ff       	jmp    9e96 <__pyx_pw_8funnybug_1solve+0x1526>
    a6d4:	48 89 4c 24 68       	mov    %rcx,0x68(%rsp)
    a6d9:	4c 89 4c 24 60       	mov    %r9,0x60(%rsp)
    a6de:	4c 89 44 24 58       	mov    %r8,0x58(%rsp)
    a6e3:	e8 28 90 ff ff       	call   3710 <_Py_Dealloc@plt>
    a6e8:	48 8b 4c 24 68       	mov    0x68(%rsp),%rcx
    a6ed:	4c 8b 4c 24 60       	mov    0x60(%rsp),%r9
    a6f2:	4c 8b 44 24 58       	mov    0x58(%rsp),%r8
    a6f7:	e9 50 fd ff ff       	jmp    a44c <__pyx_pw_8funnybug_1solve+0x1adc>
    a6fc:	e8 0f 8f ff ff       	call   3610 <PySet_New@plt>
    a701:	49 89 c5             	mov    %rax,%r13
    a704:	48 85 c0             	test   %rax,%rax
    a707:	0f 84 3d 13 00 00    	je     ba4a <__pyx_pw_8funnybug_1solve+0x30da>
    a70d:	bf 01 00 00 00       	mov    $0x1,%edi
    a712:	e8 e9 91 ff ff       	call   3900 <PyTuple_New@plt>
    a717:	49 89 c7             	mov    %rax,%r15
    a71a:	48 85 c0             	test   %rax,%rax
    a71d:	0f 84 dc 12 00 00    	je     b9ff <__pyx_pw_8funnybug_1solve+0x308f>
    a723:	4c 89 68 18          	mov    %r13,0x18(%rax)
    a727:	e8 c4 92 ff ff       	call   39f0 <PyDict_New@plt>
    a72c:	49 89 c5             	mov    %rax,%r13
    a72f:	48 85 c0             	test   %rax,%rax
    a732:	0f 84 7c 12 00 00    	je     b9b4 <__pyx_pw_8funnybug_1solve+0x3044>
    a738:	49 8b 44 24 08       	mov    0x8(%r12),%rax
    a73d:	48 8b 35 3c 53 00 00 	mov    0x533c(%rip),%rsi        # fa80 <__pyx_mstate_global_static+0xa0>
    a744:	4c 89 e7             	mov    %r12,%rdi
    a747:	48 8b 80 90 00 00 00 	mov    0x90(%rax),%rax
    a74e:	48 85 c0             	test   %rax,%rax
    a751:	0f 84 50 12 00 00    	je     b9a7 <__pyx_pw_8funnybug_1solve+0x3037>
    a757:	ff d0                	call   *%rax
    a759:	48 89 c5             	mov    %rax,%rbp
    a75c:	48 85 ed             	test   %rbp,%rbp
    a75f:	0f 84 5d 13 00 00    	je     bac2 <__pyx_pw_8funnybug_1solve+0x3152>
    a765:	48 8b 35 64 53 00 00 	mov    0x5364(%rip),%rsi        # fad0 <__pyx_mstate_global_static+0xf0>
    a76c:	48 89 ea             	mov    %rbp,%rdx
    a76f:	4c 89 ef             	mov    %r13,%rdi
    a772:	e8 e9 92 ff ff       	call   3a60 <PyDict_SetItem@plt>
    a777:	85 c0                	test   %eax,%eax
    a779:	0f 88 16 13 00 00    	js     ba95 <__pyx_pw_8funnybug_1solve+0x3125>
    a77f:	48 83 6d 00 01       	subq   $0x1,0x0(%rbp)
    a784:	0f 84 7e 02 00 00    	je     aa08 <__pyx_pw_8funnybug_1solve+0x2098>
    a78a:	48 8b 2d ff 53 00 00 	mov    0x53ff(%rip),%rbp        # fb90 <__pyx_builtin_min>
    a791:	48 8b 45 08          	mov    0x8(%rbp),%rax
    a795:	4c 8b b0 80 00 00 00 	mov    0x80(%rax),%r14
    a79c:	4d 85 f6             	test   %r14,%r14
    a79f:	0f 84 68 13 00 00    	je     bb0d <__pyx_pw_8funnybug_1solve+0x319d>
    a7a5:	48 8d 3d 44 1b 00 00 	lea    0x1b44(%rip),%rdi        # c2f0 <_fini+0x578>
    a7ac:	e8 af 8e ff ff       	call   3660 <Py_EnterRecursiveCall@plt>
    a7b1:	85 c0                	test   %eax,%eax
    a7b3:	0f 85 ce 0f 00 00    	jne    b787 <__pyx_pw_8funnybug_1solve+0x2e17>
    a7b9:	4c 89 ea             	mov    %r13,%rdx
    a7bc:	4c 89 fe             	mov    %r15,%rsi
    a7bf:	48 89 ef             	mov    %rbp,%rdi
    a7c2:	41 ff d6             	call   *%r14
    a7c5:	49 89 c6             	mov    %rax,%r14
    a7c8:	e8 83 91 ff ff       	call   3950 <Py_LeaveRecursiveCall@plt>
    a7cd:	4d 85 f6             	test   %r14,%r14
    a7d0:	0f 84 4f 0f 00 00    	je     b725 <__pyx_pw_8funnybug_1solve+0x2db5>
    a7d6:	4c 89 ff             	mov    %r15,%rdi
    a7d9:	e8 f2 b0 ff ff       	call   58d0 <_Py_DECREF>
    a7de:	4c 89 ef             	mov    %r13,%rdi
    a7e1:	e8 ea b0 ff ff       	call   58d0 <_Py_DECREF>
    a7e6:	4c 89 74 24 48       	mov    %r14,0x48(%rsp)
    a7eb:	e9 90 f9 ff ff       	jmp    a180 <__pyx_pw_8funnybug_1solve+0x1810>
    a7f0:	0f b6 c0             	movzbl %al,%eax
    a7f3:	e9 00 fb ff ff       	jmp    a2f8 <__pyx_pw_8funnybug_1solve+0x1988>
    a7f8:	48 8b bc 24 88 00 00 	mov    0x88(%rsp),%rdi
    a7ff:	00 
    a800:	48 85 ff             	test   %rdi,%rdi
    a803:	0f 85 8c fb ff ff    	jne    a395 <__pyx_pw_8funnybug_1solve+0x1a25>
    a809:	e9 91 fb ff ff       	jmp    a39f <__pyx_pw_8funnybug_1solve+0x1a2f>
    a80e:	48 8b 7c 24 10       	mov    0x10(%rsp),%rdi
    a813:	e8 88 91 ff ff       	call   39a0 <PyObject_IsTrue@plt>
    a818:	85 c0                	test   %eax,%eax
    a81a:	0f 89 66 f8 ff ff    	jns    a086 <__pyx_pw_8funnybug_1solve+0x1716>
    a820:	4c 8b 6c 24 18       	mov    0x18(%rsp),%r13
    a825:	4c 89 64 24 20       	mov    %r12,0x20(%rsp)
    a82a:	48 89 dd             	mov    %rbx,%rbp
    a82d:	31 c9                	xor    %ecx,%ecx
    a82f:	4c 8b 74 24 40       	mov    0x40(%rsp),%r14
    a834:	4c 8b 64 24 38       	mov    0x38(%rsp),%r12
    a839:	45 31 c9             	xor    %r9d,%r9d
    a83c:	45 31 d2             	xor    %r10d,%r10d
    a83f:	4d 89 ef             	mov    %r13,%r15
    a842:	be 4f 0b 00 00       	mov    $0xb4f,%esi
    a847:	ba 17 00 00 00       	mov    $0x17,%edx
    a84c:	45 31 db             	xor    %r11d,%r11d
    a84f:	48 c7 44 24 10 00 00 	movq   $0x0,0x10(%rsp)
    a856:	00 00 
    a858:	45 31 c0             	xor    %r8d,%r8d
    a85b:	31 db                	xor    %ebx,%ebx
    a85d:	48 c7 44 24 18 00 00 	movq   $0x0,0x18(%rsp)
    a864:	00 00 
    a866:	e9 e0 e7 ff ff       	jmp    904b <__pyx_pw_8funnybug_1solve+0x6db>
    a86b:	48 89 ef             	mov    %rbp,%rdi
    a86e:	e8 9d 8e ff ff       	call   3710 <_Py_Dealloc@plt>
    a873:	e9 77 f7 ff ff       	jmp    9fef <__pyx_pw_8funnybug_1solve+0x167f>
    a878:	4c 89 df             	mov    %r11,%rdi
    a87b:	4c 89 54 24 48       	mov    %r10,0x48(%rsp)
    a880:	4c 89 4c 24 38       	mov    %r9,0x38(%rsp)
    a885:	e8 86 8e ff ff       	call   3710 <_Py_Dealloc@plt>
    a88a:	4c 8b 54 24 48       	mov    0x48(%rsp),%r10
    a88f:	4c 8b 4c 24 38       	mov    0x38(%rsp),%r9
    a894:	e9 4d f4 ff ff       	jmp    9ce6 <__pyx_pw_8funnybug_1solve+0x1376>
    a899:	48 8b 44 24 18       	mov    0x18(%rsp),%rax
    a89e:	48 83 00 01          	addq   $0x1,(%rax)
    a8a2:	48 83 78 10 00       	cmpq   $0x0,0x10(%rax)
    a8a7:	0f 8e 07 01 00 00    	jle    a9b4 <__pyx_pw_8funnybug_1solve+0x2044>
    a8ad:	48 c7 44 24 30 00 00 	movq   $0x0,0x30(%rsp)
    a8b4:	00 00 
    a8b6:	48 89 6c 24 40       	mov    %rbp,0x40(%rsp)
    a8bb:	4c 89 74 24 60       	mov    %r14,0x60(%rsp)
    a8c0:	48 8b 44 24 18       	mov    0x18(%rsp),%rax
    a8c5:	48 8b 4c 24 30       	mov    0x30(%rsp),%rcx
    a8ca:	4c 89 ef             	mov    %r13,%rdi
    a8cd:	48 8b 40 18          	mov    0x18(%rax),%rax
    a8d1:	4c 8b 2c c8          	mov    (%rax,%rcx,8),%r13
    a8d5:	48 83 c1 01          	add    $0x1,%rcx
    a8d9:	48 89 4c 24 30       	mov    %rcx,0x30(%rsp)
    a8de:	49 83 45 00 01       	addq   $0x1,0x0(%r13)
    a8e3:	48 83 2f 01          	subq   $0x1,(%rdi)
    a8e7:	0f 84 04 01 00 00    	je     a9f1 <__pyx_pw_8funnybug_1solve+0x2081>
    a8ed:	49 8b 45 08          	mov    0x8(%r13),%rax
    a8f1:	48 8b 35 20 52 00 00 	mov    0x5220(%rip),%rsi        # fb18 <__pyx_mstate_global_static+0x138>
    a8f8:	4c 89 ef             	mov    %r13,%rdi
    a8fb:	48 8b 80 90 00 00 00 	mov    0x90(%rax),%rax
    a902:	48 85 c0             	test   %rax,%rax
    a905:	0f 84 c7 01 00 00    	je     aad2 <__pyx_pw_8funnybug_1solve+0x2162>
    a90b:	ff d0                	call   *%rax
    a90d:	49 89 c6             	mov    %rax,%r14
    a910:	4d 85 f6             	test   %r14,%r14
    a913:	0f 84 59 01 00 00    	je     aa72 <__pyx_pw_8funnybug_1solve+0x2102>
    a919:	48 8b 05 10 46 00 00 	mov    0x4610(%rip),%rax        # ef30 <PyMethod_Type@Base>
    a920:	49 39 46 08          	cmp    %rax,0x8(%r14)
    a924:	0f 85 b5 01 00 00    	jne    aadf <__pyx_pw_8funnybug_1solve+0x216f>
    a92a:	49 8b 5e 18          	mov    0x18(%r14),%rbx
    a92e:	48 85 db             	test   %rbx,%rbx
    a931:	0f 84 a8 01 00 00    	je     aadf <__pyx_pw_8funnybug_1solve+0x216f>
    a937:	49 8b 6e 10          	mov    0x10(%r14),%rbp
    a93b:	48 83 03 01          	addq   $0x1,(%rbx)
    a93f:	48 83 45 00 01       	addq   $0x1,0x0(%rbp)
    a944:	49 83 2e 01          	subq   $0x1,(%r14)
    a948:	0f 84 96 00 00 00    	je     a9e4 <__pyx_pw_8funnybug_1solve+0x2074>
    a94e:	48 8d b4 24 b0 00 00 	lea    0xb0(%rsp),%rsi
    a955:	00 
    a956:	ba 02 00 00 00       	mov    $0x2,%edx
    a95b:	48 89 ef             	mov    %rbp,%rdi
    a95e:	48 89 9c 24 b0 00 00 	mov    %rbx,0xb0(%rsp)
    a965:	00 
    a966:	4c 89 a4 24 b8 00 00 	mov    %r12,0xb8(%rsp)
    a96d:	00 
    a96e:	e8 ed bd ff ff       	call   6760 <__Pyx_PyObject_FastCallDict.constprop.0>
    a973:	48 83 2b 01          	subq   $0x1,(%rbx)
    a977:	49 89 c6             	mov    %rax,%r14
    a97a:	0f 84 f1 01 00 00    	je     ab71 <__pyx_pw_8funnybug_1solve+0x2201>
    a980:	4d 85 f6             	test   %r14,%r14
    a983:	0f 84 87 01 00 00    	je     ab10 <__pyx_pw_8funnybug_1solve+0x21a0>
    a989:	48 83 6d 00 01       	subq   $0x1,0x0(%rbp)
    a98e:	74 4a                	je     a9da <__pyx_pw_8funnybug_1solve+0x206a>
    a990:	49 83 2e 01          	subq   $0x1,(%r14)
    a994:	74 3a                	je     a9d0 <__pyx_pw_8funnybug_1solve+0x2060>
    a996:	48 8b 44 24 18       	mov    0x18(%rsp),%rax
    a99b:	48 8b 7c 24 30       	mov    0x30(%rsp),%rdi
    a9a0:	48 39 78 10          	cmp    %rdi,0x10(%rax)
    a9a4:	0f 8f 16 ff ff ff    	jg     a8c0 <__pyx_pw_8funnybug_1solve+0x1f50>
    a9aa:	48 8b 6c 24 40       	mov    0x40(%rsp),%rbp
    a9af:	4c 8b 74 24 60       	mov    0x60(%rsp),%r14
    a9b4:	48 8b 7c 24 18       	mov    0x18(%rsp),%rdi
    a9b9:	e8 12 af ff ff       	call   58d0 <_Py_DECREF>
    a9be:	e9 81 f9 ff ff       	jmp    a344 <__pyx_pw_8funnybug_1solve+0x19d4>
    a9c3:	4c 89 e7             	mov    %r12,%rdi
    a9c6:	e8 45 8d ff ff       	call   3710 <_Py_Dealloc@plt>
    a9cb:	e9 d1 f8 ff ff       	jmp    a2a1 <__pyx_pw_8funnybug_1solve+0x1931>
    a9d0:	4c 89 f7             	mov    %r14,%rdi
    a9d3:	e8 38 8d ff ff       	call   3710 <_Py_Dealloc@plt>
    a9d8:	eb bc                	jmp    a996 <__pyx_pw_8funnybug_1solve+0x2026>
    a9da:	48 89 ef             	mov    %rbp,%rdi
    a9dd:	e8 2e 8d ff ff       	call   3710 <_Py_Dealloc@plt>
    a9e2:	eb ac                	jmp    a990 <__pyx_pw_8funnybug_1solve+0x2020>
    a9e4:	4c 89 f7             	mov    %r14,%rdi
    a9e7:	e8 24 8d ff ff       	call   3710 <_Py_Dealloc@plt>
    a9ec:	e9 5d ff ff ff       	jmp    a94e <__pyx_pw_8funnybug_1solve+0x1fde>
    a9f1:	e8 1a 8d ff ff       	call   3710 <_Py_Dealloc@plt>
    a9f6:	e9 f2 fe ff ff       	jmp    a8ed <__pyx_pw_8funnybug_1solve+0x1f7d>
    a9fb:	4c 89 ef             	mov    %r13,%rdi
    a9fe:	e8 0d 8d ff ff       	call   3710 <_Py_Dealloc@plt>
    aa03:	e9 17 f7 ff ff       	jmp    a11f <__pyx_pw_8funnybug_1solve+0x17af>
    aa08:	48 89 ef             	mov    %rbp,%rdi
    aa0b:	e8 00 8d ff ff       	call   3710 <_Py_Dealloc@plt>
    aa10:	e9 75 fd ff ff       	jmp    a78a <__pyx_pw_8funnybug_1solve+0x1e1a>
    aa15:	48 8b 5c 24 28       	mov    0x28(%rsp),%rbx
    aa1a:	4c 8b 7c 24 48       	mov    0x48(%rsp),%r15
    aa1f:	4d 89 f2             	mov    %r14,%r10
    aa22:	4d 89 e0             	mov    %r12,%r8
    aa25:	4c 89 6c 24 20       	mov    %r13,0x20(%rsp)
    aa2a:	4c 8b 6c 24 18       	mov    0x18(%rsp),%r13
    aa2f:	4d 89 e6             	mov    %r12,%r14
    aa32:	31 c9                	xor    %ecx,%ecx
    aa34:	48 89 6c 24 30       	mov    %rbp,0x30(%rsp)
    aa39:	4c 8b 64 24 38       	mov    0x38(%rsp),%r12
    aa3e:	48 89 dd             	mov    %rbx,%rbp
    aa41:	45 31 c9             	xor    %r9d,%r9d
    aa44:	4c 89 7c 24 28       	mov    %r15,0x28(%rsp)
    aa49:	45 31 db             	xor    %r11d,%r11d
    aa4c:	31 db                	xor    %ebx,%ebx
    aa4e:	4d 89 ef             	mov    %r13,%r15
    aa51:	48 c7 44 24 10 00 00 	movq   $0x0,0x10(%rsp)
    aa58:	00 00 
    aa5a:	be c9 0b 00 00       	mov    $0xbc9,%esi
    aa5f:	ba 19 00 00 00       	mov    $0x19,%edx
    aa64:	48 c7 44 24 18 00 00 	movq   $0x0,0x18(%rsp)
    aa6b:	00 00 
    aa6d:	e9 d9 e5 ff ff       	jmp    904b <__pyx_pw_8funnybug_1solve+0x6db>
    aa72:	48 8b 5c 24 28       	mov    0x28(%rsp),%rbx
    aa77:	4c 89 6c 24 20       	mov    %r13,0x20(%rsp)
    aa7c:	4d 89 f8             	mov    %r15,%r8
    aa7f:	31 c9                	xor    %ecx,%ecx
    aa81:	4c 8b 6c 24 18       	mov    0x18(%rsp),%r13
    aa86:	4c 8b 7c 24 48       	mov    0x48(%rsp),%r15
    aa8b:	45 31 db             	xor    %r11d,%r11d
    aa8e:	4c 89 74 24 18       	mov    %r14,0x18(%rsp)
    aa93:	48 8b 44 24 40       	mov    0x40(%rsp),%rax
    aa98:	4d 89 e6             	mov    %r12,%r14
    aa9b:	48 89 dd             	mov    %rbx,%rbp
    aa9e:	4c 8b 54 24 60       	mov    0x60(%rsp),%r10
    aaa3:	4c 89 7c 24 28       	mov    %r15,0x28(%rsp)
    aaa8:	4c 8b 64 24 38       	mov    0x38(%rsp),%r12
    aaad:	4d 89 e9             	mov    %r13,%r9
    aab0:	31 db                	xor    %ebx,%ebx
    aab2:	48 89 44 24 30       	mov    %rax,0x30(%rsp)
    aab7:	4d 89 ef             	mov    %r13,%r15
    aaba:	be 10 0c 00 00       	mov    $0xc10,%esi
    aabf:	ba 1e 00 00 00       	mov    $0x1e,%edx
    aac4:	48 c7 44 24 10 00 00 	movq   $0x0,0x10(%rsp)
    aacb:	00 00 
    aacd:	e9 79 e5 ff ff       	jmp    904b <__pyx_pw_8funnybug_1solve+0x6db>
    aad2:	e8 f9 8f ff ff       	call   3ad0 <PyObject_GetAttr@plt>
    aad7:	49 89 c6             	mov    %rax,%r14
    aada:	e9 31 fe ff ff       	jmp    a910 <__pyx_pw_8funnybug_1solve+0x1fa0>
    aadf:	48 8b 74 24 78       	mov    0x78(%rsp),%rsi
    aae4:	4c 89 f7             	mov    %r14,%rdi
    aae7:	ba 01 00 00 00       	mov    $0x1,%edx
    aaec:	4c 89 f5             	mov    %r14,%rbp
    aaef:	48 c7 84 24 b0 00 00 	movq   $0x0,0xb0(%rsp)
    aaf6:	00 00 00 00 00 
    aafb:	4c 89 a4 24 b8 00 00 	mov    %r12,0xb8(%rsp)
    ab02:	00 
    ab03:	e8 58 bc ff ff       	call   6760 <__Pyx_PyObject_FastCallDict.constprop.0>
    ab08:	49 89 c6             	mov    %rax,%r14
    ab0b:	e9 70 fe ff ff       	jmp    a980 <__pyx_pw_8funnybug_1solve+0x2010>
    ab10:	48 8b 5c 24 28       	mov    0x28(%rsp),%rbx
    ab15:	4c 89 6c 24 20       	mov    %r13,0x20(%rsp)
    ab1a:	4d 89 f8             	mov    %r15,%r8
    ab1d:	48 89 e9             	mov    %rbp,%rcx
    ab20:	4c 8b 6c 24 18       	mov    0x18(%rsp),%r13
    ab25:	4c 8b 7c 24 48       	mov    0x48(%rsp),%r15
    ab2a:	45 31 db             	xor    %r11d,%r11d
    ab2d:	4c 89 74 24 18       	mov    %r14,0x18(%rsp)
    ab32:	48 8b 44 24 40       	mov    0x40(%rsp),%rax
    ab37:	4d 89 e6             	mov    %r12,%r14
    ab3a:	48 89 dd             	mov    %rbx,%rbp
    ab3d:	4c 8b 54 24 60       	mov    0x60(%rsp),%r10
    ab42:	4c 89 7c 24 28       	mov    %r15,0x28(%rsp)
    ab47:	4c 8b 64 24 38       	mov    0x38(%rsp),%r12
    ab4c:	4d 89 e9             	mov    %r13,%r9
    ab4f:	31 db                	xor    %ebx,%ebx
    ab51:	48 89 44 24 30       	mov    %rax,0x30(%rsp)
    ab56:	4d 89 ef             	mov    %r13,%r15
    ab59:	be 24 0c 00 00       	mov    $0xc24,%esi
    ab5e:	ba 1e 00 00 00       	mov    $0x1e,%edx
    ab63:	48 c7 44 24 10 00 00 	movq   $0x0,0x10(%rsp)
    ab6a:	00 00 
    ab6c:	e9 da e4 ff ff       	jmp    904b <__pyx_pw_8funnybug_1solve+0x6db>
    ab71:	48 89 df             	mov    %rbx,%rdi
    ab74:	e8 97 8b ff ff       	call   3710 <_Py_Dealloc@plt>
    ab79:	e9 02 fe ff ff       	jmp    a980 <__pyx_pw_8funnybug_1solve+0x2010>
    ab7e:	48 89 df             	mov    %rbx,%rdi
    ab81:	89 44 24 30          	mov    %eax,0x30(%rsp)
    ab85:	e8 86 8b ff ff       	call   3710 <_Py_Dealloc@plt>
    ab8a:	8b 44 24 30          	mov    0x30(%rsp),%eax
    ab8e:	e9 6f f7 ff ff       	jmp    a302 <__pyx_pw_8funnybug_1solve+0x1992>
    ab93:	4c 89 c7             	mov    %r8,%rdi
    ab96:	e8 75 8b ff ff       	call   3710 <_Py_Dealloc@plt>
    ab9b:	e9 db f6 ff ff       	jmp    a27b <__pyx_pw_8funnybug_1solve+0x190b>
    aba0:	48 89 cf             	mov    %rcx,%rdi
    aba3:	e8 68 8b ff ff       	call   3710 <_Py_Dealloc@plt>
    aba8:	e9 f2 f5 ff ff       	jmp    a19f <__pyx_pw_8funnybug_1solve+0x182f>
    abad:	4c 89 4c 24 18       	mov    %r9,0x18(%rsp)
    abb2:	e8 09 b0 ff ff       	call   5bc0 <__Pyx_PyErr_GivenExceptionMatches.part.0>
    abb7:	4c 8b 4c 24 18       	mov    0x18(%rsp),%r9
    abbc:	85 c0                	test   %eax,%eax
    abbe:	0f 85 c1 e3 ff ff    	jne    8f85 <__pyx_pw_8funnybug_1solve+0x615>
    abc4:	49 89 eb             	mov    %rbp,%r11
    abc7:	48 8b 6c 24 20       	mov    0x20(%rsp),%rbp
    abcc:	4d 89 cf             	mov    %r9,%r15
    abcf:	4d 89 f0             	mov    %r14,%r8
    abd2:	48 c7 44 24 10 00 00 	movq   $0x0,0x10(%rsp)
    abd9:	00 00 
    abdb:	4d 89 fe             	mov    %r15,%r14
    abde:	31 c9                	xor    %ecx,%ecx
    abe0:	31 db                	xor    %ebx,%ebx
    abe2:	4d 89 ef             	mov    %r13,%r15
    abe5:	4c 8b 64 24 38       	mov    0x38(%rsp),%r12
    abea:	49 89 ed             	mov    %rbp,%r13
    abed:	45 31 c9             	xor    %r9d,%r9d
    abf0:	48 c7 44 24 18 00 00 	movq   $0x0,0x18(%rsp)
    abf7:	00 00 
    abf9:	45 31 d2             	xor    %r10d,%r10d
    abfc:	31 ed                	xor    %ebp,%ebp
    abfe:	be fd 0a 00 00       	mov    $0xafd,%esi
    ac03:	48 c7 44 24 30 00 00 	movq   $0x0,0x30(%rsp)
    ac0a:	00 00 
    ac0c:	ba 13 00 00 00       	mov    $0x13,%edx
    ac11:	48 c7 44 24 28 00 00 	movq   $0x0,0x28(%rsp)
    ac18:	00 00 
    ac1a:	48 c7 44 24 20 00 00 	movq   $0x0,0x20(%rsp)
    ac21:	00 00 
    ac23:	e9 23 e4 ff ff       	jmp    904b <__pyx_pw_8funnybug_1solve+0x6db>
    ac28:	e8 53 8b ff ff       	call   3780 <__stack_chk_fail@plt>
    ac2d:	e8 9e 8e ff ff       	call   3ad0 <PyObject_GetAttr@plt>
    ac32:	4c 8b 4c 24 38       	mov    0x38(%rsp),%r9
    ac37:	49 89 c3             	mov    %rax,%r11
    ac3a:	e9 41 f0 ff ff       	jmp    9c80 <__pyx_pw_8funnybug_1solve+0x1310>
    ac3f:	49 89 eb             	mov    %rbp,%r11
    ac42:	48 8b 6c 24 20       	mov    0x20(%rsp),%rbp
    ac47:	4d 89 f0             	mov    %r14,%r8
    ac4a:	4d 89 ef             	mov    %r13,%r15
    ac4d:	4d 89 ce             	mov    %r9,%r14
    ac50:	4c 8b 64 24 38       	mov    0x38(%rsp),%r12
    ac55:	be d6 0a 00 00       	mov    $0xad6,%esi
    ac5a:	31 c9                	xor    %ecx,%ecx
    ac5c:	49 89 ed             	mov    %rbp,%r13
    ac5f:	ba 13 00 00 00       	mov    $0x13,%edx
    ac64:	45 31 c9             	xor    %r9d,%r9d
    ac67:	45 31 d2             	xor    %r10d,%r10d
    ac6a:	e9 71 ed ff ff       	jmp    99e0 <__pyx_pw_8funnybug_1solve+0x1070>
    ac6f:	48 8b 6c 24 20       	mov    0x20(%rsp),%rbp
    ac74:	4d 89 cf             	mov    %r9,%r15
    ac77:	4d 89 f0             	mov    %r14,%r8
    ac7a:	4c 8b 64 24 38       	mov    0x38(%rsp),%r12
    ac7f:	4d 89 fe             	mov    %r15,%r14
    ac82:	49 89 c3             	mov    %rax,%r11
    ac85:	4d 89 ef             	mov    %r13,%r15
    ac88:	31 c9                	xor    %ecx,%ecx
    ac8a:	49 89 ed             	mov    %rbp,%r13
    ac8d:	45 31 c9             	xor    %r9d,%r9d
    ac90:	45 31 d2             	xor    %r10d,%r10d
    ac93:	31 db                	xor    %ebx,%ebx
    ac95:	48 c7 44 24 10 00 00 	movq   $0x0,0x10(%rsp)
    ac9c:	00 00 
    ac9e:	31 ed                	xor    %ebp,%ebp
    aca0:	be d4 0a 00 00       	mov    $0xad4,%esi
    aca5:	ba 13 00 00 00       	mov    $0x13,%edx
    acaa:	48 c7 44 24 18 00 00 	movq   $0x0,0x18(%rsp)
    acb1:	00 00 
    acb3:	48 c7 44 24 30 00 00 	movq   $0x0,0x30(%rsp)
    acba:	00 00 
    acbc:	48 c7 44 24 28 00 00 	movq   $0x0,0x28(%rsp)
    acc3:	00 00 
    acc5:	48 c7 44 24 20 00 00 	movq   $0x0,0x20(%rsp)
    accc:	00 00 
    acce:	e9 78 e3 ff ff       	jmp    904b <__pyx_pw_8funnybug_1solve+0x6db>
    acd3:	4d 89 ef             	mov    %r13,%r15
    acd6:	be 96 0a 00 00       	mov    $0xa96,%esi
    acdb:	49 89 ed             	mov    %rbp,%r13
    acde:	ba 12 00 00 00       	mov    $0x12,%edx
    ace3:	48 c7 44 24 10 00 00 	movq   $0x0,0x10(%rsp)
    acea:	00 00 
    acec:	31 c9                	xor    %ecx,%ecx
    acee:	45 31 c9             	xor    %r9d,%r9d
    acf1:	31 db                	xor    %ebx,%ebx
    acf3:	48 c7 44 24 18 00 00 	movq   $0x0,0x18(%rsp)
    acfa:	00 00 
    acfc:	45 31 d2             	xor    %r10d,%r10d
    acff:	45 31 db             	xor    %r11d,%r11d
    ad02:	31 ed                	xor    %ebp,%ebp
    ad04:	48 c7 44 24 30 00 00 	movq   $0x0,0x30(%rsp)
    ad0b:	00 00 
    ad0d:	45 31 c0             	xor    %r8d,%r8d
    ad10:	45 31 e4             	xor    %r12d,%r12d
    ad13:	45 31 f6             	xor    %r14d,%r14d
    ad16:	48 c7 44 24 28 00 00 	movq   $0x0,0x28(%rsp)
    ad1d:	00 00 
    ad1f:	48 c7 44 24 20 00 00 	movq   $0x0,0x20(%rsp)
    ad26:	00 00 
    ad28:	48 c7 44 24 08 00 00 	movq   $0x0,0x8(%rsp)
    ad2f:	00 00 
    ad31:	e9 15 e3 ff ff       	jmp    904b <__pyx_pw_8funnybug_1solve+0x6db>
    ad36:	48 c7 44 24 10 00 00 	movq   $0x0,0x10(%rsp)
    ad3d:	00 00 
    ad3f:	31 c9                	xor    %ecx,%ecx
    ad41:	45 31 c9             	xor    %r9d,%r9d
    ad44:	31 db                	xor    %ebx,%ebx
    ad46:	48 c7 44 24 18 00 00 	movq   $0x0,0x18(%rsp)
    ad4d:	00 00 
    ad4f:	45 31 d2             	xor    %r10d,%r10d
    ad52:	45 31 e4             	xor    %r12d,%r12d
    ad55:	45 31 f6             	xor    %r14d,%r14d
    ad58:	48 c7 44 24 30 00 00 	movq   $0x0,0x30(%rsp)
    ad5f:	00 00 
    ad61:	4d 89 ef             	mov    %r13,%r15
    ad64:	be 94 0a 00 00       	mov    $0xa94,%esi
    ad69:	ba 12 00 00 00       	mov    $0x12,%edx
    ad6e:	48 c7 44 24 28 00 00 	movq   $0x0,0x28(%rsp)
    ad75:	00 00 
    ad77:	48 c7 44 24 20 00 00 	movq   $0x0,0x20(%rsp)
    ad7e:	00 00 
    ad80:	48 c7 44 24 08 00 00 	movq   $0x0,0x8(%rsp)
    ad87:	00 00 
    ad89:	e9 eb e2 ff ff       	jmp    9079 <__pyx_pw_8funnybug_1solve+0x709>
    ad8e:	4c 89 44 24 30       	mov    %r8,0x30(%rsp)
    ad93:	48 8b 44 24 58       	mov    0x58(%rsp),%rax
    ad98:	4c 89 f7             	mov    %r14,%rdi
    ad9b:	ff d0                	call   *%rax
    ad9d:	4c 8b 44 24 30       	mov    0x30(%rsp),%r8
    ada2:	48 85 c0             	test   %rax,%rax
    ada5:	48 89 c5             	mov    %rax,%rbp
    ada8:	0f 85 ab f4 ff ff    	jne    a259 <__pyx_pw_8funnybug_1solve+0x18e9>
    adae:	4c 89 44 24 40       	mov    %r8,0x40(%rsp)
    adb3:	4d 89 ec             	mov    %r13,%r12
    adb6:	4c 89 f5             	mov    %r14,%rbp
    adb9:	e8 72 8b ff ff       	call   3930 <PyErr_Occurred@plt>
    adbe:	48 89 c7             	mov    %rax,%rdi
    adc1:	48 85 c0             	test   %rax,%rax
    adc4:	74 18                	je     adde <__pyx_pw_8funnybug_1solve+0x246e>
    adc6:	48 8b 05 eb 41 00 00 	mov    0x41eb(%rip),%rax        # efb8 <PyExc_StopIteration@Base>
    adcd:	48 8b 30             	mov    (%rax),%rsi
    add0:	48 39 f7             	cmp    %rsi,%rdi
    add3:	0f 85 d9 0a 00 00    	jne    b8b2 <__pyx_pw_8funnybug_1solve+0x2f42>
    add9:	e8 02 8b ff ff       	call   38e0 <PyErr_Clear@plt>
    adde:	48 89 ef             	mov    %rbp,%rdi
    ade1:	e8 ea aa ff ff       	call   58d0 <_Py_DECREF>
    ade6:	4c 89 ff             	mov    %r15,%rdi
    ade9:	e8 e2 aa ff ff       	call   58d0 <_Py_DECREF>
    adee:	48 8b 44 24 18       	mov    0x18(%rsp),%rax
    adf3:	48 8b 4c 24 50       	mov    0x50(%rsp),%rcx
    adf8:	48 39 48 10          	cmp    %rcx,0x10(%rax)
    adfc:	7e 64                	jle    ae62 <__pyx_pw_8funnybug_1solve+0x24f2>
    adfe:	48 8b 44 24 18       	mov    0x18(%rsp),%rax
    ae03:	48 8b 7c 24 50       	mov    0x50(%rsp),%rdi
    ae08:	48 8b 40 18          	mov    0x18(%rax),%rax
    ae0c:	48 8b 2c f8          	mov    (%rax,%rdi,8),%rbp
    ae10:	48 83 c7 01          	add    $0x1,%rdi
    ae14:	48 89 7c 24 50       	mov    %rdi,0x50(%rsp)
    ae19:	48 83 45 00 01       	addq   $0x1,0x0(%rbp)
    ae1e:	49 83 2c 24 01       	subq   $0x1,(%r12)
    ae23:	74 33                	je     ae58 <__pyx_pw_8funnybug_1solve+0x24e8>
    ae25:	48 8b 44 24 48       	mov    0x48(%rsp),%rax
    ae2a:	48 89 5c 24 30       	mov    %rbx,0x30(%rsp)
    ae2f:	49 89 ec             	mov    %rbp,%r12
    ae32:	48 8b 5c 24 28       	mov    0x28(%rsp),%rbx
    ae37:	48 89 44 24 28       	mov    %rax,0x28(%rsp)
    ae3c:	e9 36 f2 ff ff       	jmp    a077 <__pyx_pw_8funnybug_1solve+0x1707>
    ae41:	48 89 df             	mov    %rbx,%rdi
    ae44:	4c 89 44 24 30       	mov    %r8,0x30(%rsp)
    ae49:	e8 c2 88 ff ff       	call   3710 <_Py_Dealloc@plt>
    ae4e:	4c 8b 44 24 30       	mov    0x30(%rsp),%r8
    ae53:	e9 10 f4 ff ff       	jmp    a268 <__pyx_pw_8funnybug_1solve+0x18f8>
    ae58:	4c 89 e7             	mov    %r12,%rdi
    ae5b:	e8 b0 88 ff ff       	call   3710 <_Py_Dealloc@plt>
    ae60:	eb c3                	jmp    ae25 <__pyx_pw_8funnybug_1solve+0x24b5>
    ae62:	4c 8b 7c 24 48       	mov    0x48(%rsp),%r15
    ae67:	4c 8b 74 24 40       	mov    0x40(%rsp),%r14
    ae6c:	4c 89 64 24 20       	mov    %r12,0x20(%rsp)
    ae71:	49 89 dc             	mov    %rbx,%r12
    ae74:	4c 89 64 24 30       	mov    %r12,0x30(%rsp)
    ae79:	48 8b 5c 24 28       	mov    0x28(%rsp),%rbx
    ae7e:	49 89 c5             	mov    %rax,%r13
    ae81:	4c 89 7c 24 28       	mov    %r15,0x28(%rsp)
    ae86:	48 89 dd             	mov    %rbx,%rbp
    ae89:	4c 89 ef             	mov    %r13,%rdi
    ae8c:	45 31 e4             	xor    %r12d,%r12d
    ae8f:	45 31 ff             	xor    %r15d,%r15d
    ae92:	e8 39 aa ff ff       	call   58d0 <_Py_DECREF>
    ae97:	48 8b 05 7a 4b 00 00 	mov    0x4b7a(%rip),%rax        # fa18 <__pyx_mstate_global_static+0x38>
    ae9e:	31 c9                	xor    %ecx,%ecx
    aea0:	4c 89 6c 24 40       	mov    %r13,0x40(%rsp)
    aea5:	4c 89 74 24 10       	mov    %r14,0x10(%rsp)
    aeaa:	48 8d bc 24 b8 00 00 	lea    0xb8(%rsp),%rdi
    aeb1:	00 
    aeb2:	48 83 00 01          	addq   $0x1,(%rax)
    aeb6:	49 83 45 00 01       	addq   $0x1,0x0(%r13)
    aebb:	48 89 7c 24 18       	mov    %rdi,0x18(%rsp)
    aec0:	4c 89 e7             	mov    %r12,%rdi
    aec3:	49 89 c4             	mov    %rax,%r12
    aec6:	48 89 6c 24 48       	mov    %rbp,0x48(%rsp)
    aecb:	48 89 cd             	mov    %rcx,%rbp
    aece:	48 8b 44 24 40       	mov    0x40(%rsp),%rax
    aed3:	4c 39 78 10          	cmp    %r15,0x10(%rax)
    aed7:	0f 8e d1 00 00 00    	jle    afae <__pyx_pw_8funnybug_1solve+0x263e>
    aedd:	48 8b 40 18          	mov    0x18(%rax),%rax
    aee1:	4a 8b 1c f8          	mov    (%rax,%r15,8),%rbx
    aee5:	48 83 03 01          	addq   $0x1,(%rbx)
    aee9:	48 85 ff             	test   %rdi,%rdi
    aeec:	74 05                	je     aef3 <__pyx_pw_8funnybug_1solve+0x2583>
    aeee:	e8 dd a9 ff ff       	call   58d0 <_Py_DECREF>
    aef3:	48 89 df             	mov    %rbx,%rdi
    aef6:	e8 95 8a ff ff       	call   3990 <PyObject_Size@plt>
    aefb:	48 83 f8 ff          	cmp    $0xffffffffffffffff,%rax
    aeff:	0f 84 bd 02 00 00    	je     b1c2 <__pyx_pw_8funnybug_1solve+0x2852>
    af05:	48 83 f8 02          	cmp    $0x2,%rax
    af09:	0f 84 ff 01 00 00    	je     b10e <__pyx_pw_8funnybug_1solve+0x279e>
    af0f:	48 8b 43 08          	mov    0x8(%rbx),%rax
    af13:	48 3b 05 de 40 00 00 	cmp    0x40de(%rip),%rax        # eff8 <PyList_Type@Base>
    af1a:	0f 84 b3 01 00 00    	je     b0d3 <__pyx_pw_8funnybug_1solve+0x2763>
    af20:	48 3b 05 21 40 00 00 	cmp    0x4021(%rip),%rax        # ef48 <PyTuple_Type@Base>
    af27:	0f 84 91 01 00 00    	je     b0be <__pyx_pw_8funnybug_1solve+0x274e>
    af2d:	4c 8b 68 70          	mov    0x70(%rax),%r13
    af31:	48 8b 40 68          	mov    0x68(%rax),%rax
    af35:	4d 85 ed             	test   %r13,%r13
    af38:	0f 84 63 01 00 00    	je     b0a1 <__pyx_pw_8funnybug_1solve+0x2731>
    af3e:	49 83 7d 08 00       	cmpq   $0x0,0x8(%r13)
    af43:	0f 84 58 01 00 00    	je     b0a1 <__pyx_pw_8funnybug_1solve+0x2731>
    af49:	31 ff                	xor    %edi,%edi
    af4b:	e8 30 89 ff ff       	call   3880 <PyLong_FromSsize_t@plt>
    af50:	49 89 c6             	mov    %rax,%r14
    af53:	48 85 c0             	test   %rax,%rax
    af56:	0f 84 1c 01 00 00    	je     b078 <__pyx_pw_8funnybug_1solve+0x2708>
    af5c:	48 89 c6             	mov    %rax,%rsi
    af5f:	48 89 df             	mov    %rbx,%rdi
    af62:	41 ff 55 08          	call   *0x8(%r13)
    af66:	49 83 2e 01          	subq   $0x1,(%r14)
    af6a:	49 89 c5             	mov    %rax,%r13
    af6d:	0f 84 f8 00 00 00    	je     b06b <__pyx_pw_8funnybug_1solve+0x26fb>
    af73:	4d 85 ed             	test   %r13,%r13
    af76:	0f 84 b1 00 00 00    	je     b02d <__pyx_pw_8funnybug_1solve+0x26bd>
    af7c:	4c 89 ee             	mov    %r13,%rsi
    af7f:	4c 89 e7             	mov    %r12,%rdi
    af82:	e8 09 87 ff ff       	call   3690 <PyNumber_InPlaceAdd@plt>
    af87:	49 89 c6             	mov    %rax,%r14
    af8a:	48 85 c0             	test   %rax,%rax
    af8d:	74 5d                	je     afec <__pyx_pw_8funnybug_1solve+0x267c>
    af8f:	4c 89 ef             	mov    %r13,%rdi
    af92:	49 83 c7 01          	add    $0x1,%r15
    af96:	e8 35 a9 ff ff       	call   58d0 <_Py_DECREF>
    af9b:	4c 89 e7             	mov    %r12,%rdi
    af9e:	4d 89 f4             	mov    %r14,%r12
    afa1:	e8 2a a9 ff ff       	call   58d0 <_Py_DECREF>
    afa6:	48 89 df             	mov    %rbx,%rdi
    afa9:	e9 20 ff ff ff       	jmp    aece <__pyx_pw_8funnybug_1solve+0x255e>
    afae:	4c 8b 6c 24 40       	mov    0x40(%rsp),%r13
    afb3:	4c 89 e3             	mov    %r12,%rbx
    afb6:	4c 89 64 24 18       	mov    %r12,0x18(%rsp)
    afbb:	49 89 fc             	mov    %rdi,%r12
    afbe:	4c 8b 74 24 10       	mov    0x10(%rsp),%r14
    afc3:	48 89 6c 24 10       	mov    %rbp,0x10(%rsp)
    afc8:	4c 89 ef             	mov    %r13,%rdi
    afcb:	48 8b 6c 24 48       	mov    0x48(%rsp),%rbp
    afd0:	4d 89 ef             	mov    %r13,%r15
    afd3:	e8 f8 a8 ff ff       	call   58d0 <_Py_DECREF>
    afd8:	48 83 03 01          	addq   $0x1,(%rbx)
    afdc:	48 89 da             	mov    %rbx,%rdx
    afdf:	4c 89 e3             	mov    %r12,%rbx
    afe2:	4c 8b 64 24 38       	mov    0x38(%rsp),%r12
    afe7:	e9 d4 e0 ff ff       	jmp    90c0 <__pyx_pw_8funnybug_1solve+0x750>
    afec:	4d 89 e8             	mov    %r13,%r8
    afef:	4c 8b 6c 24 40       	mov    0x40(%rsp),%r13
    aff4:	4c 89 64 24 18       	mov    %r12,0x18(%rsp)
    aff9:	49 89 c3             	mov    %rax,%r11
    affc:	4c 8b 74 24 10       	mov    0x10(%rsp),%r14
    b001:	4d 89 c2             	mov    %r8,%r10
    b004:	48 89 6c 24 10       	mov    %rbp,0x10(%rsp)
    b009:	31 c9                	xor    %ecx,%ecx
    b00b:	48 8b 6c 24 48       	mov    0x48(%rsp),%rbp
    b010:	4c 8b 64 24 38       	mov    0x38(%rsp),%r12
    b015:	45 31 c9             	xor    %r9d,%r9d
    b018:	45 31 c0             	xor    %r8d,%r8d
    b01b:	4d 89 ef             	mov    %r13,%r15
    b01e:	be d3 0c 00 00       	mov    $0xcd3,%esi
    b023:	ba 28 00 00 00       	mov    $0x28,%edx
    b028:	e9 1e e0 ff ff       	jmp    904b <__pyx_pw_8funnybug_1solve+0x6db>
    b02d:	4c 89 64 24 18       	mov    %r12,0x18(%rsp)
    b032:	4c 8b 74 24 10       	mov    0x10(%rsp),%r14
    b037:	4d 89 e8             	mov    %r13,%r8
    b03a:	31 c9                	xor    %ecx,%ecx
    b03c:	48 89 6c 24 10       	mov    %rbp,0x10(%rsp)
    b041:	4c 8b 6c 24 40       	mov    0x40(%rsp),%r13
    b046:	45 31 c9             	xor    %r9d,%r9d
    b049:	45 31 d2             	xor    %r10d,%r10d
    b04c:	48 8b 6c 24 48       	mov    0x48(%rsp),%rbp
    b051:	45 31 db             	xor    %r11d,%r11d
    b054:	4c 8b 64 24 38       	mov    0x38(%rsp),%r12
    b059:	4d 89 ef             	mov    %r13,%r15
    b05c:	be d1 0c 00 00       	mov    $0xcd1,%esi
    b061:	ba 28 00 00 00       	mov    $0x28,%edx
    b066:	e9 e0 df ff ff       	jmp    904b <__pyx_pw_8funnybug_1solve+0x6db>
    b06b:	4c 89 f7             	mov    %r14,%rdi
    b06e:	e8 9d 86 ff ff       	call   3710 <_Py_Dealloc@plt>
    b073:	e9 fb fe ff ff       	jmp    af73 <__pyx_pw_8funnybug_1solve+0x2603>
    b078:	4d 89 f3             	mov    %r14,%r11
    b07b:	4c 89 64 24 18       	mov    %r12,0x18(%rsp)
    b080:	4c 8b 74 24 10       	mov    0x10(%rsp),%r14
    b085:	31 c9                	xor    %ecx,%ecx
    b087:	48 89 6c 24 10       	mov    %rbp,0x10(%rsp)
    b08c:	4c 8b 6c 24 40       	mov    0x40(%rsp),%r13
    b091:	45 31 c9             	xor    %r9d,%r9d
    b094:	45 31 d2             	xor    %r10d,%r10d
    b097:	48 8b 6c 24 48       	mov    0x48(%rsp),%rbp
    b09c:	45 31 c0             	xor    %r8d,%r8d
    b09f:	eb b3                	jmp    b054 <__pyx_pw_8funnybug_1solve+0x26e4>
    b0a1:	48 85 c0             	test   %rax,%rax
    b0a4:	74 45                	je     b0eb <__pyx_pw_8funnybug_1solve+0x277b>
    b0a6:	48 8b 40 18          	mov    0x18(%rax),%rax
    b0aa:	48 85 c0             	test   %rax,%rax
    b0ad:	74 3c                	je     b0eb <__pyx_pw_8funnybug_1solve+0x277b>
    b0af:	31 f6                	xor    %esi,%esi
    b0b1:	48 89 df             	mov    %rbx,%rdi
    b0b4:	ff d0                	call   *%rax
    b0b6:	49 89 c5             	mov    %rax,%r13
    b0b9:	e9 b5 fe ff ff       	jmp    af73 <__pyx_pw_8funnybug_1solve+0x2603>
    b0be:	48 83 7b 10 00       	cmpq   $0x0,0x10(%rbx)
    b0c3:	74 26                	je     b0eb <__pyx_pw_8funnybug_1solve+0x277b>
    b0c5:	4c 8b 6b 18          	mov    0x18(%rbx),%r13
    b0c9:	49 83 45 00 01       	addq   $0x1,0x0(%r13)
    b0ce:	e9 a9 fe ff ff       	jmp    af7c <__pyx_pw_8funnybug_1solve+0x260c>
    b0d3:	48 83 7b 10 00       	cmpq   $0x0,0x10(%rbx)
    b0d8:	74 11                	je     b0eb <__pyx_pw_8funnybug_1solve+0x277b>
    b0da:	48 8b 43 18          	mov    0x18(%rbx),%rax
    b0de:	4c 8b 28             	mov    (%rax),%r13
    b0e1:	49 83 45 00 01       	addq   $0x1,0x0(%r13)
    b0e6:	e9 91 fe ff ff       	jmp    af7c <__pyx_pw_8funnybug_1solve+0x260c>
    b0eb:	31 ff                	xor    %edi,%edi
    b0ed:	e8 8e 87 ff ff       	call   3880 <PyLong_FromSsize_t@plt>
    b0f2:	49 89 c6             	mov    %rax,%r14
    b0f5:	48 85 c0             	test   %rax,%rax
    b0f8:	0f 84 7a ff ff ff    	je     b078 <__pyx_pw_8funnybug_1solve+0x2708>
    b0fe:	48 89 c6             	mov    %rax,%rsi
    b101:	48 89 df             	mov    %rbx,%rdi
    b104:	e8 c7 86 ff ff       	call   37d0 <PyObject_GetItem@plt>
    b109:	e9 58 fe ff ff       	jmp    af66 <__pyx_pw_8funnybug_1solve+0x25f6>
    b10e:	48 8b 35 13 49 00 00 	mov    0x4913(%rip),%rsi        # fa28 <__pyx_mstate_global_static+0x48>
    b115:	48 89 df             	mov    %rbx,%rdi
    b118:	e8 e3 86 ff ff       	call   3800 <PySequence_Contains@plt>
    b11d:	85 c0                	test   %eax,%eax
    b11f:	0f 88 6b 02 00 00    	js     b390 <__pyx_pw_8funnybug_1solve+0x2a20>
    b125:	83 e8 01             	sub    $0x1,%eax
    b128:	0f 84 93 01 00 00    	je     b2c1 <__pyx_pw_8funnybug_1solve+0x2951>
    b12e:	48 85 ed             	test   %rbp,%rbp
    b131:	0f 84 20 01 00 00    	je     b257 <__pyx_pw_8funnybug_1solve+0x28e7>
    b137:	48 8b 43 08          	mov    0x8(%rbx),%rax
    b13b:	48 89 ee             	mov    %rbp,%rsi
    b13e:	48 89 df             	mov    %rbx,%rdi
    b141:	48 8b 50 70          	mov    0x70(%rax),%rdx
    b145:	48 8b 40 68          	mov    0x68(%rax),%rax
    b149:	48 85 d2             	test   %rdx,%rdx
    b14c:	0f 84 ec 00 00 00    	je     b23e <__pyx_pw_8funnybug_1solve+0x28ce>
    b152:	48 8b 52 08          	mov    0x8(%rdx),%rdx
    b156:	48 85 d2             	test   %rdx,%rdx
    b159:	0f 84 df 00 00 00    	je     b23e <__pyx_pw_8funnybug_1solve+0x28ce>
    b15f:	ff d2                	call   *%rdx
    b161:	49 89 c5             	mov    %rax,%r13
    b164:	4d 85 ed             	test   %r13,%r13
    b167:	0f 84 93 00 00 00    	je     b200 <__pyx_pw_8funnybug_1solve+0x2890>
    b16d:	4c 89 ee             	mov    %r13,%rsi
    b170:	4c 89 e7             	mov    %r12,%rdi
    b173:	e8 18 85 ff ff       	call   3690 <PyNumber_InPlaceAdd@plt>
    b178:	49 89 c6             	mov    %rax,%r14
    b17b:	48 85 c0             	test   %rax,%rax
    b17e:	0f 85 0b fe ff ff    	jne    af8f <__pyx_pw_8funnybug_1solve+0x261f>
    b184:	4d 89 e8             	mov    %r13,%r8
    b187:	4c 8b 6c 24 40       	mov    0x40(%rsp),%r13
    b18c:	4c 89 64 24 18       	mov    %r12,0x18(%rsp)
    b191:	49 89 c3             	mov    %rax,%r11
    b194:	4c 8b 74 24 10       	mov    0x10(%rsp),%r14
    b199:	4c 8b 64 24 38       	mov    0x38(%rsp),%r12
    b19e:	31 c9                	xor    %ecx,%ecx
    b1a0:	45 31 c9             	xor    %r9d,%r9d
    b1a3:	48 89 6c 24 10       	mov    %rbp,0x10(%rsp)
    b1a8:	45 31 d2             	xor    %r10d,%r10d
    b1ab:	48 8b 6c 24 48       	mov    0x48(%rsp),%rbp
    b1b0:	4d 89 ef             	mov    %r13,%r15
    b1b3:	be b9 0c 00 00       	mov    $0xcb9,%esi
    b1b8:	ba 26 00 00 00       	mov    $0x26,%edx
    b1bd:	e9 89 de ff ff       	jmp    904b <__pyx_pw_8funnybug_1solve+0x6db>
    b1c2:	4c 8b 6c 24 40       	mov    0x40(%rsp),%r13
    b1c7:	4c 89 64 24 18       	mov    %r12,0x18(%rsp)
    b1cc:	be 76 0c 00 00       	mov    $0xc76,%esi
    b1d1:	ba 23 00 00 00       	mov    $0x23,%edx
    b1d6:	4c 8b 74 24 10       	mov    0x10(%rsp),%r14
    b1db:	4c 8b 64 24 38       	mov    0x38(%rsp),%r12
    b1e0:	48 89 6c 24 10       	mov    %rbp,0x10(%rsp)
    b1e5:	48 8b 6c 24 48       	mov    0x48(%rsp),%rbp
    b1ea:	4d 89 ef             	mov    %r13,%r15
    b1ed:	31 c9                	xor    %ecx,%ecx
    b1ef:	45 31 c9             	xor    %r9d,%r9d
    b1f2:	45 31 d2             	xor    %r10d,%r10d
    b1f5:	45 31 db             	xor    %r11d,%r11d
    b1f8:	45 31 c0             	xor    %r8d,%r8d
    b1fb:	e9 4b de ff ff       	jmp    904b <__pyx_pw_8funnybug_1solve+0x6db>
    b200:	4d 89 e8             	mov    %r13,%r8
    b203:	4c 8b 6c 24 40       	mov    0x40(%rsp),%r13
    b208:	4c 89 64 24 18       	mov    %r12,0x18(%rsp)
    b20d:	31 c9                	xor    %ecx,%ecx
    b20f:	4c 8b 74 24 10       	mov    0x10(%rsp),%r14
    b214:	4c 8b 64 24 38       	mov    0x38(%rsp),%r12
    b219:	45 31 c9             	xor    %r9d,%r9d
    b21c:	45 31 d2             	xor    %r10d,%r10d
    b21f:	48 89 6c 24 10       	mov    %rbp,0x10(%rsp)
    b224:	45 31 db             	xor    %r11d,%r11d
    b227:	48 8b 6c 24 48       	mov    0x48(%rsp),%rbp
    b22c:	4d 89 ef             	mov    %r13,%r15
    b22f:	be b7 0c 00 00       	mov    $0xcb7,%esi
    b234:	ba 26 00 00 00       	mov    $0x26,%edx
    b239:	e9 0d de ff ff       	jmp    904b <__pyx_pw_8funnybug_1solve+0x6db>
    b23e:	48 85 c0             	test   %rax,%rax
    b241:	74 71                	je     b2b4 <__pyx_pw_8funnybug_1solve+0x2944>
    b243:	48 83 78 18 00       	cmpq   $0x0,0x18(%rax)
    b248:	74 6a                	je     b2b4 <__pyx_pw_8funnybug_1solve+0x2944>
    b24a:	e8 81 ba ff ff       	call   6cd0 <__Pyx_PyObject_GetIndex>
    b24f:	49 89 c5             	mov    %rax,%r13
    b252:	e9 0d ff ff ff       	jmp    b164 <__pyx_pw_8funnybug_1solve+0x27f4>
    b257:	48 8b 05 92 3d 00 00 	mov    0x3d92(%rip),%rax        # eff0 <PyExc_UnboundLocalError@Base>
    b25e:	4c 8b 6c 24 40       	mov    0x40(%rsp),%r13
    b263:	48 8d 15 5b 15 00 00 	lea    0x155b(%rip),%rdx        # c7c5 <_fini+0xa4d>
    b26a:	48 8d 35 8f 13 00 00 	lea    0x138f(%rip),%rsi        # c600 <_fini+0x888>
    b271:	4c 89 64 24 18       	mov    %r12,0x18(%rsp)
    b276:	4c 8b 74 24 10       	mov    0x10(%rsp),%r14
    b27b:	48 8b 38             	mov    (%rax),%rdi
    b27e:	31 c0                	xor    %eax,%eax
    b280:	48 89 6c 24 10       	mov    %rbp,0x10(%rsp)
    b285:	4d 89 ef             	mov    %r13,%r15
    b288:	48 8b 6c 24 48       	mov    0x48(%rsp),%rbp
    b28d:	e8 fe 87 ff ff       	call   3a90 <PyErr_Format@plt>
    b292:	4c 8b 64 24 38       	mov    0x38(%rsp),%r12
    b297:	31 c9                	xor    %ecx,%ecx
    b299:	45 31 c9             	xor    %r9d,%r9d
    b29c:	45 31 d2             	xor    %r10d,%r10d
    b29f:	45 31 db             	xor    %r11d,%r11d
    b2a2:	45 31 c0             	xor    %r8d,%r8d
    b2a5:	be b6 0c 00 00       	mov    $0xcb6,%esi
    b2aa:	ba 26 00 00 00       	mov    $0x26,%edx
    b2af:	e9 97 dd ff ff       	jmp    904b <__pyx_pw_8funnybug_1solve+0x6db>
    b2b4:	e8 a7 d5 ff ff       	call   8860 <__Pyx_PyObject_GetItem_Slow>
    b2b9:	49 89 c5             	mov    %rax,%r13
    b2bc:	e9 a3 fe ff ff       	jmp    b164 <__pyx_pw_8funnybug_1solve+0x27f4>
    b2c1:	48 8b 43 08          	mov    0x8(%rbx),%rax
    b2c5:	48 8b 35 ec 47 00 00 	mov    0x47ec(%rip),%rsi        # fab8 <__pyx_mstate_global_static+0xd8>
    b2cc:	48 89 df             	mov    %rbx,%rdi
    b2cf:	48 8b 80 90 00 00 00 	mov    0x90(%rax),%rax
    b2d6:	48 85 c0             	test   %rax,%rax
    b2d9:	0f 84 9d 01 00 00    	je     b47c <__pyx_pw_8funnybug_1solve+0x2b0c>
    b2df:	ff d0                	call   *%rax
    b2e1:	49 89 c5             	mov    %rax,%r13
    b2e4:	4d 85 ed             	test   %r13,%r13
    b2e7:	0f 84 51 01 00 00    	je     b43e <__pyx_pw_8funnybug_1solve+0x2ace>
    b2ed:	48 8b 05 3c 3c 00 00 	mov    0x3c3c(%rip),%rax        # ef30 <PyMethod_Type@Base>
    b2f4:	49 39 45 08          	cmp    %rax,0x8(%r13)
    b2f8:	0f 85 0b 01 00 00    	jne    b409 <__pyx_pw_8funnybug_1solve+0x2a99>
    b2fe:	4d 8b 4d 18          	mov    0x18(%r13),%r9
    b302:	4d 85 c9             	test   %r9,%r9
    b305:	0f 84 fe 00 00 00    	je     b409 <__pyx_pw_8funnybug_1solve+0x2a99>
    b30b:	49 8b 4d 10          	mov    0x10(%r13),%rcx
    b30f:	49 83 01 01          	addq   $0x1,(%r9)
    b313:	4c 89 ef             	mov    %r13,%rdi
    b316:	4c 89 4c 24 58       	mov    %r9,0x58(%rsp)
    b31b:	48 83 01 01          	addq   $0x1,(%rcx)
    b31f:	48 89 4c 24 50       	mov    %rcx,0x50(%rsp)
    b324:	e8 a7 a5 ff ff       	call   58d0 <_Py_DECREF>
    b329:	4c 8b 4c 24 58       	mov    0x58(%rsp),%r9
    b32e:	48 8b 05 f3 46 00 00 	mov    0x46f3(%rip),%rax        # fa28 <__pyx_mstate_global_static+0x48>
    b335:	48 8d b4 24 b0 00 00 	lea    0xb0(%rsp),%rsi
    b33c:	00 
    b33d:	48 8b 7c 24 50       	mov    0x50(%rsp),%rdi
    b342:	ba 02 00 00 00       	mov    $0x2,%edx
    b347:	4c 89 8c 24 b0 00 00 	mov    %r9,0xb0(%rsp)
    b34e:	00 
    b34f:	48 89 84 24 b8 00 00 	mov    %rax,0xb8(%rsp)
    b356:	00 
    b357:	e8 04 b4 ff ff       	call   6760 <__Pyx_PyObject_FastCallDict.constprop.0>
    b35c:	48 8b 7c 24 58       	mov    0x58(%rsp),%rdi
    b361:	49 89 c6             	mov    %rax,%r14
    b364:	e8 67 a5 ff ff       	call   58d0 <_Py_DECREF>
    b369:	4c 8b 6c 24 50       	mov    0x50(%rsp),%r13
    b36e:	4d 85 f6             	test   %r14,%r14
    b371:	74 55                	je     b3c8 <__pyx_pw_8funnybug_1solve+0x2a58>
    b373:	4c 89 ef             	mov    %r13,%rdi
    b376:	e8 55 a5 ff ff       	call   58d0 <_Py_DECREF>
    b37b:	48 85 ed             	test   %rbp,%rbp
    b37e:	74 40                	je     b3c0 <__pyx_pw_8funnybug_1solve+0x2a50>
    b380:	48 89 ef             	mov    %rbp,%rdi
    b383:	4c 89 f5             	mov    %r14,%rbp
    b386:	e8 45 a5 ff ff       	call   58d0 <_Py_DECREF>
    b38b:	e9 a7 fd ff ff       	jmp    b137 <__pyx_pw_8funnybug_1solve+0x27c7>
    b390:	4c 8b 6c 24 40       	mov    0x40(%rsp),%r13
    b395:	4c 89 64 24 18       	mov    %r12,0x18(%rsp)
    b39a:	be 81 0c 00 00       	mov    $0xc81,%esi
    b39f:	ba 24 00 00 00       	mov    $0x24,%edx
    b3a4:	4c 8b 74 24 10       	mov    0x10(%rsp),%r14
    b3a9:	4c 8b 64 24 38       	mov    0x38(%rsp),%r12
    b3ae:	48 89 6c 24 10       	mov    %rbp,0x10(%rsp)
    b3b3:	4d 89 ef             	mov    %r13,%r15
    b3b6:	48 8b 6c 24 48       	mov    0x48(%rsp),%rbp
    b3bb:	e9 2d fe ff ff       	jmp    b1ed <__pyx_pw_8funnybug_1solve+0x287d>
    b3c0:	4c 89 f5             	mov    %r14,%rbp
    b3c3:	e9 6f fd ff ff       	jmp    b137 <__pyx_pw_8funnybug_1solve+0x27c7>
    b3c8:	4d 89 e8             	mov    %r13,%r8
    b3cb:	4c 8b 6c 24 40       	mov    0x40(%rsp),%r13
    b3d0:	4c 89 64 24 18       	mov    %r12,0x18(%rsp)
    b3d5:	4d 89 f3             	mov    %r14,%r11
    b3d8:	4d 89 c2             	mov    %r8,%r10
    b3db:	4c 8b 74 24 10       	mov    0x10(%rsp),%r14
    b3e0:	4c 8b 64 24 38       	mov    0x38(%rsp),%r12
    b3e5:	31 c9                	xor    %ecx,%ecx
    b3e7:	48 89 6c 24 10       	mov    %rbp,0x10(%rsp)
    b3ec:	45 31 c9             	xor    %r9d,%r9d
    b3ef:	48 8b 6c 24 48       	mov    0x48(%rsp),%rbp
    b3f4:	45 31 c0             	xor    %r8d,%r8d
    b3f7:	4d 89 ef             	mov    %r13,%r15
    b3fa:	be 9f 0c 00 00       	mov    $0xc9f,%esi
    b3ff:	ba 25 00 00 00       	mov    $0x25,%edx
    b404:	e9 42 dc ff ff       	jmp    904b <__pyx_pw_8funnybug_1solve+0x6db>
    b409:	48 8b 05 18 46 00 00 	mov    0x4618(%rip),%rax        # fa28 <__pyx_mstate_global_static+0x48>
    b410:	48 8b 74 24 18       	mov    0x18(%rsp),%rsi
    b415:	ba 01 00 00 00       	mov    $0x1,%edx
    b41a:	4c 89 ef             	mov    %r13,%rdi
    b41d:	48 c7 84 24 b0 00 00 	movq   $0x0,0xb0(%rsp)
    b424:	00 00 00 00 00 
    b429:	48 89 84 24 b8 00 00 	mov    %rax,0xb8(%rsp)
    b430:	00 
    b431:	e8 2a b3 ff ff       	call   6760 <__Pyx_PyObject_FastCallDict.constprop.0>
    b436:	49 89 c6             	mov    %rax,%r14
    b439:	e9 30 ff ff ff       	jmp    b36e <__pyx_pw_8funnybug_1solve+0x29fe>
    b43e:	4d 89 e8             	mov    %r13,%r8
    b441:	4c 8b 6c 24 40       	mov    0x40(%rsp),%r13
    b446:	4c 89 64 24 18       	mov    %r12,0x18(%rsp)
    b44b:	31 c9                	xor    %ecx,%ecx
    b44d:	4c 8b 74 24 10       	mov    0x10(%rsp),%r14
    b452:	4c 8b 64 24 38       	mov    0x38(%rsp),%r12
    b457:	45 31 c9             	xor    %r9d,%r9d
    b45a:	45 31 d2             	xor    %r10d,%r10d
    b45d:	48 89 6c 24 10       	mov    %rbp,0x10(%rsp)
    b462:	45 31 db             	xor    %r11d,%r11d
    b465:	48 8b 6c 24 48       	mov    0x48(%rsp),%rbp
    b46a:	4d 89 ef             	mov    %r13,%r15
    b46d:	be 8b 0c 00 00       	mov    $0xc8b,%esi
    b472:	ba 25 00 00 00       	mov    $0x25,%edx
    b477:	e9 cf db ff ff       	jmp    904b <__pyx_pw_8funnybug_1solve+0x6db>
    b47c:	e8 4f 86 ff ff       	call   3ad0 <PyObject_GetAttr@plt>
    b481:	49 89 c5             	mov    %rax,%r13
    b484:	e9 5b fe ff ff       	jmp    b2e4 <__pyx_pw_8funnybug_1solve+0x2974>
    b489:	4c 89 44 24 40       	mov    %r8,0x40(%rsp)
    b48e:	4d 89 ec             	mov    %r13,%r12
    b491:	4c 89 f5             	mov    %r14,%rbp
    b494:	e9 45 f9 ff ff       	jmp    adde <__pyx_pw_8funnybug_1solve+0x246e>
    b499:	48 8b 4c 24 20       	mov    0x20(%rsp),%rcx
    b49e:	48 39 c8             	cmp    %rcx,%rax
    b4a1:	7e e6                	jle    b489 <__pyx_pw_8funnybug_1solve+0x2b19>
    b4a3:	49 8b 6c ce 18       	mov    0x18(%r14,%rcx,8),%rbp
    b4a8:	48 89 c8             	mov    %rcx,%rax
    b4ab:	48 83 c0 01          	add    $0x1,%rax
    b4af:	48 83 45 00 01       	addq   $0x1,0x0(%rbp)
    b4b4:	48 89 44 24 20       	mov    %rax,0x20(%rsp)
    b4b9:	e9 9b ed ff ff       	jmp    a259 <__pyx_pw_8funnybug_1solve+0x18e9>
    b4be:	4c 8b 6c 24 18       	mov    0x18(%rsp),%r13
    b4c3:	4c 8b 7c 24 48       	mov    0x48(%rsp),%r15
    b4c8:	48 89 dd             	mov    %rbx,%rbp
    b4cb:	31 c9                	xor    %ecx,%ecx
    b4cd:	4c 89 64 24 20       	mov    %r12,0x20(%rsp)
    b4d2:	48 8b 5c 24 28       	mov    0x28(%rsp),%rbx
    b4d7:	45 31 c9             	xor    %r9d,%r9d
    b4da:	45 31 d2             	xor    %r10d,%r10d
    b4dd:	4c 89 7c 24 28       	mov    %r15,0x28(%rsp)
    b4e2:	4c 8b 74 24 40       	mov    0x40(%rsp),%r14
    b4e7:	45 31 db             	xor    %r11d,%r11d
    b4ea:	45 31 c0             	xor    %r8d,%r8d
    b4ed:	4c 8b 64 24 38       	mov    0x38(%rsp),%r12
    b4f2:	4d 89 ef             	mov    %r13,%r15
    b4f5:	be 83 0b 00 00       	mov    $0xb83,%esi
    b4fa:	ba 18 00 00 00       	mov    $0x18,%edx
    b4ff:	48 c7 44 24 10 00 00 	movq   $0x0,0x10(%rsp)
    b506:	00 00 
    b508:	48 c7 44 24 18 00 00 	movq   $0x0,0x18(%rsp)
    b50f:	00 00 
    b511:	e9 35 db ff ff       	jmp    904b <__pyx_pw_8funnybug_1solve+0x6db>
    b516:	48 89 6c 24 10       	mov    %rbp,0x10(%rsp)
    b51b:	4c 8b 6c 24 18       	mov    0x18(%rsp),%r13
    b520:	48 89 dd             	mov    %rbx,%rbp
    b523:	4c 89 74 24 18       	mov    %r14,0x18(%rsp)
    b528:	4c 8b 74 24 40       	mov    0x40(%rsp),%r14
    b52d:	4c 89 7c 24 48       	mov    %r15,0x48(%rsp)
    b532:	4c 89 64 24 20       	mov    %r12,0x20(%rsp)
    b537:	e8 f4 83 ff ff       	call   3930 <PyErr_Occurred@plt>
    b53c:	4c 8b 54 24 10       	mov    0x10(%rsp),%r10
    b541:	4c 8b 5c 24 48       	mov    0x48(%rsp),%r11
    b546:	48 85 c0             	test   %rax,%rax
    b549:	48 89 c3             	mov    %rax,%rbx
    b54c:	0f 84 b1 00 00 00    	je     b603 <__pyx_pw_8funnybug_1solve+0x2c93>
    b552:	48 c7 44 24 10 00 00 	movq   $0x0,0x10(%rsp)
    b559:	00 00 
    b55b:	31 c9                	xor    %ecx,%ecx
    b55d:	45 31 c9             	xor    %r9d,%r9d
    b560:	31 db                	xor    %ebx,%ebx
    b562:	4c 8b 64 24 38       	mov    0x38(%rsp),%r12
    b567:	45 31 c0             	xor    %r8d,%r8d
    b56a:	4d 89 ef             	mov    %r13,%r15
    b56d:	be 5e 0b 00 00       	mov    $0xb5e,%esi
    b572:	ba 17 00 00 00       	mov    $0x17,%edx
    b577:	e9 cf da ff ff       	jmp    904b <__pyx_pw_8funnybug_1solve+0x6db>
    b57c:	4c 8b 6c 24 18       	mov    0x18(%rsp),%r13
    b581:	4c 89 64 24 20       	mov    %r12,0x20(%rsp)
    b586:	4d 89 fb             	mov    %r15,%r11
    b589:	49 89 ea             	mov    %rbp,%r10
    b58c:	4c 8b 74 24 40       	mov    0x40(%rsp),%r14
    b591:	48 89 dd             	mov    %rbx,%rbp
    b594:	4c 8b 64 24 38       	mov    0x38(%rsp),%r12
    b599:	31 c9                	xor    %ecx,%ecx
    b59b:	4d 89 ef             	mov    %r13,%r15
    b59e:	be 5e 0b 00 00       	mov    $0xb5e,%esi
    b5a3:	ba 17 00 00 00       	mov    $0x17,%edx
    b5a8:	45 31 c9             	xor    %r9d,%r9d
    b5ab:	48 c7 44 24 10 00 00 	movq   $0x0,0x10(%rsp)
    b5b2:	00 00 
    b5b4:	45 31 c0             	xor    %r8d,%r8d
    b5b7:	31 db                	xor    %ebx,%ebx
    b5b9:	48 c7 44 24 18 00 00 	movq   $0x0,0x18(%rsp)
    b5c0:	00 00 
    b5c2:	e9 84 da ff ff       	jmp    904b <__pyx_pw_8funnybug_1solve+0x6db>
    b5c7:	4c 89 f7             	mov    %r14,%rdi
    b5ca:	4c 89 fa             	mov    %r15,%rdx
    b5cd:	48 89 ee             	mov    %rbp,%rsi
    b5d0:	e8 9b 84 ff ff       	call   3a70 <PyObject_Call@plt>
    b5d5:	49 89 c6             	mov    %rax,%r14
    b5d8:	48 85 c0             	test   %rax,%rax
    b5db:	0f 85 8a eb ff ff    	jne    a16b <__pyx_pw_8funnybug_1solve+0x17fb>
    b5e1:	4c 8b 6c 24 18       	mov    0x18(%rsp),%r13
    b5e6:	49 89 ea             	mov    %rbp,%r10
    b5e9:	4c 89 64 24 20       	mov    %r12,0x20(%rsp)
    b5ee:	4d 89 fb             	mov    %r15,%r11
    b5f1:	48 89 44 24 18       	mov    %rax,0x18(%rsp)
    b5f6:	4c 8b 74 24 40       	mov    0x40(%rsp),%r14
    b5fb:	48 89 dd             	mov    %rbx,%rbp
    b5fe:	e9 4f ff ff ff       	jmp    b552 <__pyx_pw_8funnybug_1solve+0x2be2>
    b603:	48 8b 05 1e 39 00 00 	mov    0x391e(%rip),%rax        # ef28 <PyExc_SystemError@Base>
    b60a:	48 8d 35 ff 0c 00 00 	lea    0xcff(%rip),%rsi        # c310 <_fini+0x598>
    b611:	4c 89 54 24 48       	mov    %r10,0x48(%rsp)
    b616:	4d 89 ef             	mov    %r13,%r15
    b619:	4c 89 5c 24 40       	mov    %r11,0x40(%rsp)
    b61e:	48 8b 38             	mov    (%rax),%rdi
    b621:	e8 7a 81 ff ff       	call   37a0 <PyErr_SetString@plt>
    b626:	4c 8b 64 24 38       	mov    0x38(%rsp),%r12
    b62b:	31 c9                	xor    %ecx,%ecx
    b62d:	45 31 c9             	xor    %r9d,%r9d
    b630:	4c 8b 5c 24 40       	mov    0x40(%rsp),%r11
    b635:	4c 8b 54 24 48       	mov    0x48(%rsp),%r10
    b63a:	45 31 c0             	xor    %r8d,%r8d
    b63d:	be 5e 0b 00 00       	mov    $0xb5e,%esi
    b642:	48 c7 44 24 10 00 00 	movq   $0x0,0x10(%rsp)
    b649:	00 00 
    b64b:	ba 17 00 00 00       	mov    $0x17,%edx
    b650:	e9 f6 d9 ff ff       	jmp    904b <__pyx_pw_8funnybug_1solve+0x6db>
    b655:	48 8b 7c 24 28       	mov    0x28(%rsp),%rdi
    b65a:	48 89 ee             	mov    %rbp,%rsi
    b65d:	e8 8e 82 ff ff       	call   38f0 <PyList_Append@plt>
    b662:	83 c0 01             	add    $0x1,%eax
    b665:	0f 85 d9 ec ff ff    	jne    a344 <__pyx_pw_8funnybug_1solve+0x19d4>
    b66b:	48 8b 5c 24 28       	mov    0x28(%rsp),%rbx
    b670:	4c 89 6c 24 20       	mov    %r13,0x20(%rsp)
    b675:	4d 89 f8             	mov    %r15,%r8
    b678:	4d 89 f2             	mov    %r14,%r10
    b67b:	4c 8b 7c 24 48       	mov    0x48(%rsp),%r15
    b680:	4c 8b 6c 24 18       	mov    0x18(%rsp),%r13
    b685:	4d 89 e6             	mov    %r12,%r14
    b688:	48 89 6c 24 30       	mov    %rbp,0x30(%rsp)
    b68d:	4c 8b 64 24 38       	mov    0x38(%rsp),%r12
    b692:	48 89 dd             	mov    %rbx,%rbp
    b695:	be e2 0b 00 00       	mov    $0xbe2,%esi
    b69a:	ba 1b 00 00 00       	mov    $0x1b,%edx
    b69f:	4c 89 7c 24 28       	mov    %r15,0x28(%rsp)
    b6a4:	4d 89 ef             	mov    %r13,%r15
    b6a7:	48 c7 44 24 10 00 00 	movq   $0x0,0x10(%rsp)
    b6ae:	00 00 
    b6b0:	31 c9                	xor    %ecx,%ecx
    b6b2:	45 31 c9             	xor    %r9d,%r9d
    b6b5:	31 db                	xor    %ebx,%ebx
    b6b7:	48 c7 44 24 18 00 00 	movq   $0x0,0x18(%rsp)
    b6be:	00 00 
    b6c0:	45 31 db             	xor    %r11d,%r11d
    b6c3:	e9 83 d9 ff ff       	jmp    904b <__pyx_pw_8funnybug_1solve+0x6db>
    b6c8:	4c 89 6c 24 20       	mov    %r13,0x20(%rsp)
    b6cd:	49 89 d9             	mov    %rbx,%r9
    b6d0:	4c 8b 6c 24 18       	mov    0x18(%rsp),%r13
    b6d5:	4d 89 f8             	mov    %r15,%r8
    b6d8:	48 8b 5c 24 28       	mov    0x28(%rsp),%rbx
    b6dd:	4c 8b 7c 24 48       	mov    0x48(%rsp),%r15
    b6e2:	4d 89 f2             	mov    %r14,%r10
    b6e5:	31 c9                	xor    %ecx,%ecx
    b6e7:	48 89 6c 24 30       	mov    %rbp,0x30(%rsp)
    b6ec:	4d 89 e6             	mov    %r12,%r14
    b6ef:	be d7 0b 00 00       	mov    $0xbd7,%esi
    b6f4:	45 31 db             	xor    %r11d,%r11d
    b6f7:	4c 89 7c 24 28       	mov    %r15,0x28(%rsp)
    b6fc:	48 89 dd             	mov    %rbx,%rbp
    b6ff:	4d 89 ef             	mov    %r13,%r15
    b702:	31 db                	xor    %ebx,%ebx
    b704:	48 c7 44 24 10 00 00 	movq   $0x0,0x10(%rsp)
    b70b:	00 00 
    b70d:	4c 8b 64 24 38       	mov    0x38(%rsp),%r12
    b712:	ba 1a 00 00 00       	mov    $0x1a,%edx
    b717:	48 c7 44 24 18 00 00 	movq   $0x0,0x18(%rsp)
    b71e:	00 00 
    b720:	e9 26 d9 ff ff       	jmp    904b <__pyx_pw_8funnybug_1solve+0x6db>
    b725:	4c 89 6c 24 10       	mov    %r13,0x10(%rsp)
    b72a:	4c 8b 6c 24 18       	mov    0x18(%rsp),%r13
    b72f:	48 89 dd             	mov    %rbx,%rbp
    b732:	4c 89 74 24 18       	mov    %r14,0x18(%rsp)
    b737:	4c 8b 74 24 40       	mov    0x40(%rsp),%r14
    b73c:	4c 89 7c 24 48       	mov    %r15,0x48(%rsp)
    b741:	4c 89 64 24 20       	mov    %r12,0x20(%rsp)
    b746:	e8 e5 81 ff ff       	call   3930 <PyErr_Occurred@plt>
    b74b:	4c 8b 4c 24 10       	mov    0x10(%rsp),%r9
    b750:	4c 8b 5c 24 48       	mov    0x48(%rsp),%r11
    b755:	48 85 c0             	test   %rax,%rax
    b758:	48 89 c3             	mov    %rax,%rbx
    b75b:	74 75                	je     b7d2 <__pyx_pw_8funnybug_1solve+0x2e62>
    b75d:	48 c7 44 24 10 00 00 	movq   $0x0,0x10(%rsp)
    b764:	00 00 
    b766:	31 c9                	xor    %ecx,%ecx
    b768:	45 31 d2             	xor    %r10d,%r10d
    b76b:	31 db                	xor    %ebx,%ebx
    b76d:	4c 8b 64 24 38       	mov    0x38(%rsp),%r12
    b772:	45 31 c0             	xor    %r8d,%r8d
    b775:	4d 89 ef             	mov    %r13,%r15
    b778:	be 72 0b 00 00       	mov    $0xb72,%esi
    b77d:	ba 17 00 00 00       	mov    $0x17,%edx
    b782:	e9 c4 d8 ff ff       	jmp    904b <__pyx_pw_8funnybug_1solve+0x6db>
    b787:	4d 89 e9             	mov    %r13,%r9
    b78a:	4c 8b 6c 24 18       	mov    0x18(%rsp),%r13
    b78f:	4c 89 64 24 20       	mov    %r12,0x20(%rsp)
    b794:	4d 89 fb             	mov    %r15,%r11
    b797:	48 89 dd             	mov    %rbx,%rbp
    b79a:	4c 8b 74 24 40       	mov    0x40(%rsp),%r14
    b79f:	4c 8b 64 24 38       	mov    0x38(%rsp),%r12
    b7a4:	31 c9                	xor    %ecx,%ecx
    b7a6:	4d 89 ef             	mov    %r13,%r15
    b7a9:	be 72 0b 00 00       	mov    $0xb72,%esi
    b7ae:	ba 17 00 00 00       	mov    $0x17,%edx
    b7b3:	45 31 d2             	xor    %r10d,%r10d
    b7b6:	48 c7 44 24 10 00 00 	movq   $0x0,0x10(%rsp)
    b7bd:	00 00 
    b7bf:	45 31 c0             	xor    %r8d,%r8d
    b7c2:	31 db                	xor    %ebx,%ebx
    b7c4:	48 c7 44 24 18 00 00 	movq   $0x0,0x18(%rsp)
    b7cb:	00 00 
    b7cd:	e9 79 d8 ff ff       	jmp    904b <__pyx_pw_8funnybug_1solve+0x6db>
    b7d2:	48 8b 05 4f 37 00 00 	mov    0x374f(%rip),%rax        # ef28 <PyExc_SystemError@Base>
    b7d9:	48 8d 35 30 0b 00 00 	lea    0xb30(%rip),%rsi        # c310 <_fini+0x598>
    b7e0:	4c 89 4c 24 48       	mov    %r9,0x48(%rsp)
    b7e5:	4d 89 ef             	mov    %r13,%r15
    b7e8:	4c 89 5c 24 40       	mov    %r11,0x40(%rsp)
    b7ed:	48 8b 38             	mov    (%rax),%rdi
    b7f0:	e8 ab 7f ff ff       	call   37a0 <PyErr_SetString@plt>
    b7f5:	4c 8b 64 24 38       	mov    0x38(%rsp),%r12
    b7fa:	31 c9                	xor    %ecx,%ecx
    b7fc:	45 31 d2             	xor    %r10d,%r10d
    b7ff:	4c 8b 5c 24 40       	mov    0x40(%rsp),%r11
    b804:	4c 8b 4c 24 48       	mov    0x48(%rsp),%r9
    b809:	45 31 c0             	xor    %r8d,%r8d
    b80c:	be 72 0b 00 00       	mov    $0xb72,%esi
    b811:	48 c7 44 24 10 00 00 	movq   $0x0,0x10(%rsp)
    b818:	00 00 
    b81a:	ba 17 00 00 00       	mov    $0x17,%edx
    b81f:	e9 27 d8 ff ff       	jmp    904b <__pyx_pw_8funnybug_1solve+0x6db>
    b824:	e8 97 a3 ff ff       	call   5bc0 <__Pyx_PyErr_GivenExceptionMatches.part.0>
    b829:	85 c0                	test   %eax,%eax
    b82b:	0f 85 ae e7 ff ff    	jne    9fdf <__pyx_pw_8funnybug_1solve+0x166f>
    b831:	4d 89 fe             	mov    %r15,%r14
    b834:	4c 8b 64 24 38       	mov    0x38(%rsp),%r12
    b839:	4d 89 ef             	mov    %r13,%r15
    b83c:	31 c9                	xor    %ecx,%ecx
    b83e:	49 89 ed             	mov    %rbp,%r13
    b841:	45 31 c9             	xor    %r9d,%r9d
    b844:	45 31 d2             	xor    %r10d,%r10d
    b847:	45 31 db             	xor    %r11d,%r11d
    b84a:	48 c7 44 24 10 00 00 	movq   $0x0,0x10(%rsp)
    b851:	00 00 
    b853:	45 31 c0             	xor    %r8d,%r8d
    b856:	31 db                	xor    %ebx,%ebx
    b858:	31 ed                	xor    %ebp,%ebp
    b85a:	48 c7 44 24 18 00 00 	movq   $0x0,0x18(%rsp)
    b861:	00 00 
    b863:	be bd 0a 00 00       	mov    $0xabd,%esi
    b868:	ba 12 00 00 00       	mov    $0x12,%edx
    b86d:	48 c7 44 24 30 00 00 	movq   $0x0,0x30(%rsp)
    b874:	00 00 
    b876:	48 c7 44 24 28 00 00 	movq   $0x0,0x28(%rsp)
    b87d:	00 00 
    b87f:	48 c7 44 24 20 00 00 	movq   $0x0,0x20(%rsp)
    b886:	00 00 
    b888:	e9 be d7 ff ff       	jmp    904b <__pyx_pw_8funnybug_1solve+0x6db>
    b88d:	48 c7 44 24 30 00 00 	movq   $0x0,0x30(%rsp)
    b894:	00 00 
    b896:	4d 89 fe             	mov    %r15,%r14
    b899:	31 ed                	xor    %ebp,%ebp
    b89b:	48 c7 44 24 28 00 00 	movq   $0x0,0x28(%rsp)
    b8a2:	00 00 
    b8a4:	48 c7 44 24 20 00 00 	movq   $0x0,0x20(%rsp)
    b8ab:	00 00 
    b8ad:	e9 d7 f5 ff ff       	jmp    ae89 <__pyx_pw_8funnybug_1solve+0x2519>
    b8b2:	e8 09 a3 ff ff       	call   5bc0 <__Pyx_PyErr_GivenExceptionMatches.part.0>
    b8b7:	85 c0                	test   %eax,%eax
    b8b9:	0f 85 1a f5 ff ff    	jne    add9 <__pyx_pw_8funnybug_1solve+0x2469>
    b8bf:	4c 8b 6c 24 18       	mov    0x18(%rsp),%r13
    b8c4:	4c 89 64 24 20       	mov    %r12,0x20(%rsp)
    b8c9:	4d 89 f8             	mov    %r15,%r8
    b8cc:	49 89 dc             	mov    %rbx,%r12
    b8cf:	4c 8b 7c 24 48       	mov    0x48(%rsp),%r15
    b8d4:	48 8b 5c 24 28       	mov    0x28(%rsp),%rbx
    b8d9:	4d 89 f2             	mov    %r14,%r10
    b8dc:	31 c9                	xor    %ecx,%ecx
    b8de:	4c 89 64 24 30       	mov    %r12,0x30(%rsp)
    b8e3:	4c 8b 74 24 40       	mov    0x40(%rsp),%r14
    b8e8:	45 31 c9             	xor    %r9d,%r9d
    b8eb:	45 31 db             	xor    %r11d,%r11d
    b8ee:	4c 89 7c 24 28       	mov    %r15,0x28(%rsp)
    b8f3:	48 89 dd             	mov    %rbx,%rbp
    b8f6:	31 db                	xor    %ebx,%ebx
    b8f8:	4c 8b 64 24 38       	mov    0x38(%rsp),%r12
    b8fd:	4d 89 ef             	mov    %r13,%r15
    b900:	be bf 0b 00 00       	mov    $0xbbf,%esi
    b905:	ba 19 00 00 00       	mov    $0x19,%edx
    b90a:	48 c7 44 24 10 00 00 	movq   $0x0,0x10(%rsp)
    b911:	00 00 
    b913:	48 c7 44 24 18 00 00 	movq   $0x0,0x18(%rsp)
    b91a:	00 00 
    b91c:	e9 2a d7 ff ff       	jmp    904b <__pyx_pw_8funnybug_1solve+0x6db>
    b921:	4c 89 e7             	mov    %r12,%rdi
    b924:	e8 17 81 ff ff       	call   3a40 <PyObject_GetIter@plt>
    b929:	48 89 c5             	mov    %rax,%rbp
    b92c:	48 85 c0             	test   %rax,%rax
    b92f:	0f 84 e6 03 00 00    	je     bd1b <__pyx_pw_8funnybug_1solve+0x33ab>
    b935:	48 8b 40 08          	mov    0x8(%rax),%rax
    b939:	48 8b 80 e0 00 00 00 	mov    0xe0(%rax),%rax
    b940:	48 89 44 24 58       	mov    %rax,0x58(%rsp)
    b945:	48 85 c0             	test   %rax,%rax
    b948:	0f 84 91 03 00 00    	je     bcdf <__pyx_pw_8funnybug_1solve+0x336f>
    b94e:	48 c7 44 24 20 ff ff 	movq   $0xffffffffffffffff,0x20(%rsp)
    b955:	ff ff 
    b957:	e9 a5 e8 ff ff       	jmp    a201 <__pyx_pw_8funnybug_1solve+0x1891>
    b95c:	4d 89 e9             	mov    %r13,%r9
    b95f:	4c 8b 6c 24 18       	mov    0x18(%rsp),%r13
    b964:	4c 89 64 24 20       	mov    %r12,0x20(%rsp)
    b969:	4d 89 fb             	mov    %r15,%r11
    b96c:	4c 8b 74 24 40       	mov    0x40(%rsp),%r14
    b971:	4c 8b 64 24 38       	mov    0x38(%rsp),%r12
    b976:	49 89 ea             	mov    %rbp,%r10
    b979:	be 5c 0b 00 00       	mov    $0xb5c,%esi
    b97e:	48 89 dd             	mov    %rbx,%rbp
    b981:	4d 89 ef             	mov    %r13,%r15
    b984:	48 c7 44 24 10 00 00 	movq   $0x0,0x10(%rsp)
    b98b:	00 00 
    b98d:	31 c9                	xor    %ecx,%ecx
    b98f:	45 31 c0             	xor    %r8d,%r8d
    b992:	31 db                	xor    %ebx,%ebx
    b994:	48 c7 44 24 18 00 00 	movq   $0x0,0x18(%rsp)
    b99b:	00 00 
    b99d:	ba 17 00 00 00       	mov    $0x17,%edx
    b9a2:	e9 a4 d6 ff ff       	jmp    904b <__pyx_pw_8funnybug_1solve+0x6db>
    b9a7:	e8 24 81 ff ff       	call   3ad0 <PyObject_GetAttr@plt>
    b9ac:	48 89 c5             	mov    %rax,%rbp
    b9af:	e9 a8 ed ff ff       	jmp    a75c <__pyx_pw_8funnybug_1solve+0x1dec>
    b9b4:	4c 8b 6c 24 18       	mov    0x18(%rsp),%r13
    b9b9:	4c 89 64 24 20       	mov    %r12,0x20(%rsp)
    b9be:	4d 89 fb             	mov    %r15,%r11
    b9c1:	48 89 dd             	mov    %rbx,%rbp
    b9c4:	48 c7 44 24 10 00 00 	movq   $0x0,0x10(%rsp)
    b9cb:	00 00 
    b9cd:	49 89 c1             	mov    %rax,%r9
    b9d0:	31 c9                	xor    %ecx,%ecx
    b9d2:	31 db                	xor    %ebx,%ebx
    b9d4:	4c 8b 74 24 40       	mov    0x40(%rsp),%r14
    b9d9:	4c 8b 64 24 38       	mov    0x38(%rsp),%r12
    b9de:	45 31 d2             	xor    %r10d,%r10d
    b9e1:	45 31 c0             	xor    %r8d,%r8d
    b9e4:	4d 89 ef             	mov    %r13,%r15
    b9e7:	be 6c 0b 00 00       	mov    $0xb6c,%esi
    b9ec:	ba 17 00 00 00       	mov    $0x17,%edx
    b9f1:	48 c7 44 24 18 00 00 	movq   $0x0,0x18(%rsp)
    b9f8:	00 00 
    b9fa:	e9 4c d6 ff ff       	jmp    904b <__pyx_pw_8funnybug_1solve+0x6db>
    b9ff:	4d 89 e9             	mov    %r13,%r9
    ba02:	4c 8b 6c 24 18       	mov    0x18(%rsp),%r13
    ba07:	4c 89 64 24 20       	mov    %r12,0x20(%rsp)
    ba0c:	48 89 dd             	mov    %rbx,%rbp
    ba0f:	48 c7 44 24 10 00 00 	movq   $0x0,0x10(%rsp)
    ba16:	00 00 
    ba18:	49 89 c3             	mov    %rax,%r11
    ba1b:	31 c9                	xor    %ecx,%ecx
    ba1d:	31 db                	xor    %ebx,%ebx
    ba1f:	4c 8b 74 24 40       	mov    0x40(%rsp),%r14
    ba24:	4c 8b 64 24 38       	mov    0x38(%rsp),%r12
    ba29:	45 31 d2             	xor    %r10d,%r10d
    ba2c:	45 31 c0             	xor    %r8d,%r8d
    ba2f:	4d 89 ef             	mov    %r13,%r15
    ba32:	be 67 0b 00 00       	mov    $0xb67,%esi
    ba37:	ba 17 00 00 00       	mov    $0x17,%edx
    ba3c:	48 c7 44 24 18 00 00 	movq   $0x0,0x18(%rsp)
    ba43:	00 00 
    ba45:	e9 01 d6 ff ff       	jmp    904b <__pyx_pw_8funnybug_1solve+0x6db>
    ba4a:	4c 8b 6c 24 18       	mov    0x18(%rsp),%r13
    ba4f:	4c 89 64 24 20       	mov    %r12,0x20(%rsp)
    ba54:	48 89 dd             	mov    %rbx,%rbp
    ba57:	49 89 c1             	mov    %rax,%r9
    ba5a:	48 c7 44 24 10 00 00 	movq   $0x0,0x10(%rsp)
    ba61:	00 00 
    ba63:	31 c9                	xor    %ecx,%ecx
    ba65:	45 31 d2             	xor    %r10d,%r10d
    ba68:	31 db                	xor    %ebx,%ebx
    ba6a:	4c 8b 74 24 40       	mov    0x40(%rsp),%r14
    ba6f:	4c 8b 64 24 38       	mov    0x38(%rsp),%r12
    ba74:	45 31 db             	xor    %r11d,%r11d
    ba77:	45 31 c0             	xor    %r8d,%r8d
    ba7a:	4d 89 ef             	mov    %r13,%r15
    ba7d:	be 65 0b 00 00       	mov    $0xb65,%esi
    ba82:	ba 17 00 00 00       	mov    $0x17,%edx
    ba87:	48 c7 44 24 18 00 00 	movq   $0x0,0x18(%rsp)
    ba8e:	00 00 
    ba90:	e9 b6 d5 ff ff       	jmp    904b <__pyx_pw_8funnybug_1solve+0x6db>
    ba95:	4d 89 e9             	mov    %r13,%r9
    ba98:	4c 8b 6c 24 18       	mov    0x18(%rsp),%r13
    ba9d:	4c 89 64 24 20       	mov    %r12,0x20(%rsp)
    baa2:	4d 89 fb             	mov    %r15,%r11
    baa5:	49 89 ea             	mov    %rbp,%r10
    baa8:	4c 8b 74 24 40       	mov    0x40(%rsp),%r14
    baad:	4c 8b 64 24 38       	mov    0x38(%rsp),%r12
    bab2:	48 89 dd             	mov    %rbx,%rbp
    bab5:	4d 89 ef             	mov    %r13,%r15
    bab8:	be 70 0b 00 00       	mov    $0xb70,%esi
    babd:	e9 c2 fe ff ff       	jmp    b984 <__pyx_pw_8funnybug_1solve+0x3014>
    bac2:	4d 89 e9             	mov    %r13,%r9
    bac5:	4c 8b 6c 24 18       	mov    0x18(%rsp),%r13
    baca:	4c 89 64 24 20       	mov    %r12,0x20(%rsp)
    bacf:	4d 89 fb             	mov    %r15,%r11
    bad2:	49 89 ea             	mov    %rbp,%r10
    bad5:	4c 8b 74 24 40       	mov    0x40(%rsp),%r14
    bada:	48 89 dd             	mov    %rbx,%rbp
    badd:	4c 8b 64 24 38       	mov    0x38(%rsp),%r12
    bae2:	48 c7 44 24 10 00 00 	movq   $0x0,0x10(%rsp)
    bae9:	00 00 
    baeb:	31 c9                	xor    %ecx,%ecx
    baed:	45 31 c0             	xor    %r8d,%r8d
    baf0:	31 db                	xor    %ebx,%ebx
    baf2:	4d 89 ef             	mov    %r13,%r15
    baf5:	be 6e 0b 00 00       	mov    $0xb6e,%esi
    bafa:	ba 17 00 00 00       	mov    $0x17,%edx
    baff:	48 c7 44 24 18 00 00 	movq   $0x0,0x18(%rsp)
    bb06:	00 00 
    bb08:	e9 3e d5 ff ff       	jmp    904b <__pyx_pw_8funnybug_1solve+0x6db>
    bb0d:	4c 89 ea             	mov    %r13,%rdx
    bb10:	4c 89 fe             	mov    %r15,%rsi
    bb13:	48 89 ef             	mov    %rbp,%rdi
    bb16:	e8 55 7f ff ff       	call   3a70 <PyObject_Call@plt>
    bb1b:	49 89 c6             	mov    %rax,%r14
    bb1e:	48 85 c0             	test   %rax,%rax
    bb21:	0f 85 af ec ff ff    	jne    a7d6 <__pyx_pw_8funnybug_1solve+0x1e66>
    bb27:	4d 89 e9             	mov    %r13,%r9
    bb2a:	4c 89 64 24 20       	mov    %r12,0x20(%rsp)
    bb2f:	4c 8b 6c 24 18       	mov    0x18(%rsp),%r13
    bb34:	4d 89 fb             	mov    %r15,%r11
    bb37:	48 89 44 24 18       	mov    %rax,0x18(%rsp)
    bb3c:	4c 8b 74 24 40       	mov    0x40(%rsp),%r14
    bb41:	48 89 dd             	mov    %rbx,%rbp
    bb44:	e9 14 fc ff ff       	jmp    b75d <__pyx_pw_8funnybug_1solve+0x2ded>
    bb49:	4c 8b 6c 24 18       	mov    0x18(%rsp),%r13
    bb4e:	4c 89 64 24 20       	mov    %r12,0x20(%rsp)
    bb53:	49 89 ea             	mov    %rbp,%r10
    bb56:	49 89 c3             	mov    %rax,%r11
    bb59:	48 89 dd             	mov    %rbx,%rbp
    bb5c:	4c 8b 74 24 40       	mov    0x40(%rsp),%r14
    bb61:	4c 8b 64 24 38       	mov    0x38(%rsp),%r12
    bb66:	31 c9                	xor    %ecx,%ecx
    bb68:	45 31 c9             	xor    %r9d,%r9d
    bb6b:	45 31 c0             	xor    %r8d,%r8d
    bb6e:	31 db                	xor    %ebx,%ebx
    bb70:	4d 89 ef             	mov    %r13,%r15
    bb73:	48 c7 44 24 10 00 00 	movq   $0x0,0x10(%rsp)
    bb7a:	00 00 
    bb7c:	be 58 0b 00 00       	mov    $0xb58,%esi
    bb81:	ba 17 00 00 00       	mov    $0x17,%edx
    bb86:	48 c7 44 24 18 00 00 	movq   $0x0,0x18(%rsp)
    bb8d:	00 00 
    bb8f:	e9 b7 d4 ff ff       	jmp    904b <__pyx_pw_8funnybug_1solve+0x6db>
    bb94:	4c 8b 6c 24 18       	mov    0x18(%rsp),%r13
    bb99:	4c 89 64 24 20       	mov    %r12,0x20(%rsp)
    bb9e:	4d 89 fb             	mov    %r15,%r11
    bba1:	48 89 dd             	mov    %rbx,%rbp
    bba4:	48 c7 44 24 10 00 00 	movq   $0x0,0x10(%rsp)
    bbab:	00 00 
    bbad:	49 89 c2             	mov    %rax,%r10
    bbb0:	31 c9                	xor    %ecx,%ecx
    bbb2:	31 db                	xor    %ebx,%ebx
    bbb4:	4c 8b 74 24 40       	mov    0x40(%rsp),%r14
    bbb9:	4c 8b 64 24 38       	mov    0x38(%rsp),%r12
    bbbe:	45 31 c9             	xor    %r9d,%r9d
    bbc1:	45 31 c0             	xor    %r8d,%r8d
    bbc4:	4d 89 ef             	mov    %r13,%r15
    bbc7:	be 53 0b 00 00       	mov    $0xb53,%esi
    bbcc:	ba 17 00 00 00       	mov    $0x17,%edx
    bbd1:	48 c7 44 24 18 00 00 	movq   $0x0,0x18(%rsp)
    bbd8:	00 00 
    bbda:	e9 6c d4 ff ff       	jmp    904b <__pyx_pw_8funnybug_1solve+0x6db>
    bbdf:	4c 8b 6c 24 18       	mov    0x18(%rsp),%r13
    bbe4:	4c 89 64 24 20       	mov    %r12,0x20(%rsp)
    bbe9:	48 89 dd             	mov    %rbx,%rbp
    bbec:	49 89 c3             	mov    %rax,%r11
    bbef:	48 c7 44 24 10 00 00 	movq   $0x0,0x10(%rsp)
    bbf6:	00 00 
    bbf8:	31 c9                	xor    %ecx,%ecx
    bbfa:	45 31 c9             	xor    %r9d,%r9d
    bbfd:	31 db                	xor    %ebx,%ebx
    bbff:	4c 8b 74 24 40       	mov    0x40(%rsp),%r14
    bc04:	4c 8b 64 24 38       	mov    0x38(%rsp),%r12
    bc09:	45 31 d2             	xor    %r10d,%r10d
    bc0c:	45 31 c0             	xor    %r8d,%r8d
    bc0f:	4d 89 ef             	mov    %r13,%r15
    bc12:	be 51 0b 00 00       	mov    $0xb51,%esi
    bc17:	ba 17 00 00 00       	mov    $0x17,%edx
    bc1c:	48 c7 44 24 18 00 00 	movq   $0x0,0x18(%rsp)
    bc23:	00 00 
    bc25:	e9 21 d4 ff ff       	jmp    904b <__pyx_pw_8funnybug_1solve+0x6db>
    bc2a:	48 8b 5c 24 28       	mov    0x28(%rsp),%rbx
    bc2f:	4c 89 6c 24 20       	mov    %r13,0x20(%rsp)
    bc34:	4d 89 f8             	mov    %r15,%r8
    bc37:	4d 89 f2             	mov    %r14,%r10
    bc3a:	4c 8b 6c 24 18       	mov    0x18(%rsp),%r13
    bc3f:	4c 8b 7c 24 48       	mov    0x48(%rsp),%r15
    bc44:	4d 89 e6             	mov    %r12,%r14
    bc47:	49 89 c1             	mov    %rax,%r9
    bc4a:	48 89 6c 24 30       	mov    %rbp,0x30(%rsp)
    bc4f:	4c 8b 64 24 38       	mov    0x38(%rsp),%r12
    bc54:	48 89 dd             	mov    %rbx,%rbp
    bc57:	31 c9                	xor    %ecx,%ecx
    bc59:	4c 89 7c 24 28       	mov    %r15,0x28(%rsp)
    bc5e:	45 31 db             	xor    %r11d,%r11d
    bc61:	31 db                	xor    %ebx,%ebx
    bc63:	4d 89 ef             	mov    %r13,%r15
    bc66:	48 c7 44 24 10 00 00 	movq   $0x0,0x10(%rsp)
    bc6d:	00 00 
    bc6f:	be d6 0b 00 00       	mov    $0xbd6,%esi
    bc74:	ba 1a 00 00 00       	mov    $0x1a,%edx
    bc79:	48 c7 44 24 18 00 00 	movq   $0x0,0x18(%rsp)
    bc80:	00 00 
    bc82:	e9 c4 d3 ff ff       	jmp    904b <__pyx_pw_8funnybug_1solve+0x6db>
    bc87:	4d 89 e9             	mov    %r13,%r9
    bc8a:	4c 8b 6c 24 18       	mov    0x18(%rsp),%r13
    bc8f:	4c 89 64 24 20       	mov    %r12,0x20(%rsp)
    bc94:	4d 89 fb             	mov    %r15,%r11
    bc97:	49 89 ea             	mov    %rbp,%r10
    bc9a:	4c 8b 74 24 40       	mov    0x40(%rsp),%r14
    bc9f:	48 89 dd             	mov    %rbx,%rbp
    bca2:	4c 8b 64 24 38       	mov    0x38(%rsp),%r12
    bca7:	48 c7 44 24 10 00 00 	movq   $0x0,0x10(%rsp)
    bcae:	00 00 
    bcb0:	31 c9                	xor    %ecx,%ecx
    bcb2:	45 31 c0             	xor    %r8d,%r8d
    bcb5:	31 db                	xor    %ebx,%ebx
    bcb7:	4d 89 ef             	mov    %r13,%r15
    bcba:	be 5a 0b 00 00       	mov    $0xb5a,%esi
    bcbf:	ba 17 00 00 00       	mov    $0x17,%edx
    bcc4:	48 c7 44 24 18 00 00 	movq   $0x0,0x18(%rsp)
    bccb:	00 00 
    bccd:	e9 79 d3 ff ff       	jmp    904b <__pyx_pw_8funnybug_1solve+0x6db>
    bcd2:	e8 f9 7d ff ff       	call   3ad0 <PyObject_GetAttr@plt>
    bcd7:	49 89 c5             	mov    %rax,%r13
    bcda:	e9 12 e4 ff ff       	jmp    a0f1 <__pyx_pw_8funnybug_1solve+0x1781>
    bcdf:	48 8b 5c 24 28       	mov    0x28(%rsp),%rbx
    bce4:	4c 8b 6c 24 18       	mov    0x18(%rsp),%r13
    bce9:	4c 89 f0             	mov    %r14,%rax
    bcec:	4d 89 f8             	mov    %r15,%r8
    bcef:	4c 89 64 24 20       	mov    %r12,0x20(%rsp)
    bcf4:	49 89 ea             	mov    %rbp,%r10
    bcf7:	4c 8b 74 24 40       	mov    0x40(%rsp),%r14
    bcfc:	be 98 0b 00 00       	mov    $0xb98,%esi
    bd01:	48 89 44 24 28       	mov    %rax,0x28(%rsp)
    bd06:	4c 8b 64 24 38       	mov    0x38(%rsp),%r12
    bd0b:	48 89 dd             	mov    %rbx,%rbp
    bd0e:	4d 89 ef             	mov    %r13,%r15
    bd11:	ba 19 00 00 00       	mov    $0x19,%edx
    bd16:	e9 8c f9 ff ff       	jmp    b6a7 <__pyx_pw_8funnybug_1solve+0x2d37>
    bd1b:	48 8b 5c 24 28       	mov    0x28(%rsp),%rbx
    bd20:	4c 8b 6c 24 18       	mov    0x18(%rsp),%r13
    bd25:	4d 89 f8             	mov    %r15,%r8
    bd28:	49 89 c2             	mov    %rax,%r10
    bd2b:	4c 8b 7c 24 48       	mov    0x48(%rsp),%r15
    bd30:	4c 89 64 24 20       	mov    %r12,0x20(%rsp)
    bd35:	31 c9                	xor    %ecx,%ecx
    bd37:	45 31 c9             	xor    %r9d,%r9d
    bd3a:	48 89 dd             	mov    %rbx,%rbp
    bd3d:	4c 8b 74 24 40       	mov    0x40(%rsp),%r14
    bd42:	4c 8b 64 24 38       	mov    0x38(%rsp),%r12
    bd47:	45 31 db             	xor    %r11d,%r11d
    bd4a:	4c 89 7c 24 28       	mov    %r15,0x28(%rsp)
    bd4f:	31 db                	xor    %ebx,%ebx
    bd51:	4d 89 ef             	mov    %r13,%r15
    bd54:	be 96 0b 00 00       	mov    $0xb96,%esi
    bd59:	48 c7 44 24 10 00 00 	movq   $0x0,0x10(%rsp)
    bd60:	00 00 
    bd62:	ba 19 00 00 00       	mov    $0x19,%edx
    bd67:	48 c7 44 24 18 00 00 	movq   $0x0,0x18(%rsp)
    bd6e:	00 00 
    bd70:	e9 d6 d2 ff ff       	jmp    904b <__pyx_pw_8funnybug_1solve+0x6db>

Disassembly of section .fini:

000000000000bd78 <_fini>:
    bd78:	f3 0f 1e fa          	endbr64 
    bd7c:	48 83 ec 08          	sub    $0x8,%rsp
    bd80:	48 83 c4 08          	add    $0x8,%rsp
    bd84:	c3                   	ret    
